
./out/add.out:     ファイル形式 elf32-mist32


セクション .text の逆アセンブル:

00000000 <_start>:
       0:	0d 40 00 00 	wl16	r0,0x0
       4:	0d 60 00 0f 	wh16	r0,0xf
       8:	1c 00 00 00 	srspw	r0
       c:	14 30 00 18 	br	6c <check>,#al

00000010 <compare>:
      10:	00 c0 01 09 	cmp	r8,r9
      14:	14 41 03 e0 	b	rret,#eq

00000018 <error>:
      18:	0d 40 00 00 	wl16	r0,0x0
      1c:	0d 60 00 02 	wh16	r0,0x2
      20:	0e c0 00 20 	lil	r1,0
      24:	10 a0 00 20 	st32	r1,r0
      28:	0d 40 00 0c 	wl16	r0,0xc
      2c:	0d 60 00 02 	wh16	r0,0x2
      30:	10 a0 00 40 	st32	r2,r0
      34:	0d 40 00 08 	wl16	r0,0x8
      38:	0d 60 00 02 	wh16	r0,0x2
      3c:	10 a0 00 60 	st32	r3,r0
      40:	0d 40 00 10 	wl16	r0,0x10
      44:	0d 60 00 02 	wh16	r0,0x2
      48:	10 a0 01 00 	st32	r8,r0
      4c:	0d 40 00 14 	wl16	r0,0x14
      50:	0d 60 00 02 	wh16	r0,0x2
      54:	10 a0 01 20 	st32	r9,r0

00000058 <finish>:
      58:	0d 40 00 04 	wl16	r0,0x4
      5c:	0d 60 00 02 	wh16	r0,0x2
      60:	0e c0 00 21 	lil	r1,1
      64:	10 a0 00 20 	st32	r1,r0
      68:	14 30 00 00 	br	68 <finish+0x10>,#al

0000006c <check>:
      6c:	0c 40 00 42 	xor	r2,r2
      70:	0d 40 01 00 	wl16	r8,0x0
      74:	0d 60 01 03 	wh16	r8,0x3
      78:	10 40 01 08 	ld32	r8,r8
      7c:	0d 42 32 00 	wl16	r16,0x1180
      80:	0d 60 02 03 	wh16	r16,0x3
      84:	10 40 02 10 	ld32	r16,r16
      88:	0d 44 61 20 	wl16	r9,0x2300
      8c:	0d 60 01 23 	wh16	r9,0x3
      90:	10 40 01 29 	ld32	r9,r9
      94:	00 00 01 10 	add	r8,r16
      98:	20 70 03 e2 	movepc	rret,8
      9c:	14 30 ff dd 	br	10 <compare>,#al
      a0:	00 10 00 41 	add	r2,1
      a4:	0d 40 01 04 	wl16	r8,0x4
      a8:	0d 60 01 03 	wh16	r8,0x3
      ac:	10 40 01 08 	ld32	r8,r8
      b0:	0d 42 32 04 	wl16	r16,0x1184
      b4:	0d 60 02 03 	wh16	r16,0x3
      b8:	10 40 02 10 	ld32	r16,r16
      bc:	0d 44 61 24 	wl16	r9,0x2304
      c0:	0d 60 01 23 	wh16	r9,0x3
      c4:	10 40 01 29 	ld32	r9,r9
      c8:	00 00 01 10 	add	r8,r16
      cc:	20 70 03 e2 	movepc	rret,8
      d0:	14 30 ff d0 	br	10 <compare>,#al
      d4:	00 10 00 41 	add	r2,1
      d8:	0d 40 01 08 	wl16	r8,0x8
      dc:	0d 60 01 03 	wh16	r8,0x3
      e0:	10 40 01 08 	ld32	r8,r8
      e4:	0d 42 32 08 	wl16	r16,0x1188
      e8:	0d 60 02 03 	wh16	r16,0x3
      ec:	10 40 02 10 	ld32	r16,r16
      f0:	0d 44 61 28 	wl16	r9,0x2308
      f4:	0d 60 01 23 	wh16	r9,0x3
      f8:	10 40 01 29 	ld32	r9,r9
      fc:	00 00 01 10 	add	r8,r16
     100:	20 70 03 e2 	movepc	rret,8
     104:	14 30 ff c3 	br	10 <compare>,#al
     108:	00 10 00 41 	add	r2,1
     10c:	0d 40 01 0c 	wl16	r8,0xc
     110:	0d 60 01 03 	wh16	r8,0x3
     114:	10 40 01 08 	ld32	r8,r8
     118:	0d 42 32 0c 	wl16	r16,0x118c
     11c:	0d 60 02 03 	wh16	r16,0x3
     120:	10 40 02 10 	ld32	r16,r16
     124:	0d 44 61 2c 	wl16	r9,0x230c
     128:	0d 60 01 23 	wh16	r9,0x3
     12c:	10 40 01 29 	ld32	r9,r9
     130:	00 00 01 10 	add	r8,r16
     134:	20 70 03 e2 	movepc	rret,8
     138:	14 30 ff b6 	br	10 <compare>,#al
     13c:	00 10 00 41 	add	r2,1
     140:	0d 40 01 10 	wl16	r8,0x10
     144:	0d 60 01 03 	wh16	r8,0x3
     148:	10 40 01 08 	ld32	r8,r8
     14c:	0d 42 32 10 	wl16	r16,0x1190
     150:	0d 60 02 03 	wh16	r16,0x3
     154:	10 40 02 10 	ld32	r16,r16
     158:	0d 44 61 30 	wl16	r9,0x2310
     15c:	0d 60 01 23 	wh16	r9,0x3
     160:	10 40 01 29 	ld32	r9,r9
     164:	00 00 01 10 	add	r8,r16
     168:	20 70 03 e2 	movepc	rret,8
     16c:	14 30 ff a9 	br	10 <compare>,#al
     170:	00 10 00 41 	add	r2,1
     174:	0d 40 01 14 	wl16	r8,0x14
     178:	0d 60 01 03 	wh16	r8,0x3
     17c:	10 40 01 08 	ld32	r8,r8
     180:	0d 42 32 14 	wl16	r16,0x1194
     184:	0d 60 02 03 	wh16	r16,0x3
     188:	10 40 02 10 	ld32	r16,r16
     18c:	0d 44 61 34 	wl16	r9,0x2314
     190:	0d 60 01 23 	wh16	r9,0x3
     194:	10 40 01 29 	ld32	r9,r9
     198:	00 00 01 10 	add	r8,r16
     19c:	20 70 03 e2 	movepc	rret,8
     1a0:	14 30 ff 9c 	br	10 <compare>,#al
     1a4:	00 10 00 41 	add	r2,1
     1a8:	0d 40 01 18 	wl16	r8,0x18
     1ac:	0d 60 01 03 	wh16	r8,0x3
     1b0:	10 40 01 08 	ld32	r8,r8
     1b4:	0d 42 32 18 	wl16	r16,0x1198
     1b8:	0d 60 02 03 	wh16	r16,0x3
     1bc:	10 40 02 10 	ld32	r16,r16
     1c0:	0d 44 61 38 	wl16	r9,0x2318
     1c4:	0d 60 01 23 	wh16	r9,0x3
     1c8:	10 40 01 29 	ld32	r9,r9
     1cc:	00 00 01 10 	add	r8,r16
     1d0:	20 70 03 e2 	movepc	rret,8
     1d4:	14 30 ff 8f 	br	10 <compare>,#al
     1d8:	00 10 00 41 	add	r2,1
     1dc:	0d 40 01 1c 	wl16	r8,0x1c
     1e0:	0d 60 01 03 	wh16	r8,0x3
     1e4:	10 40 01 08 	ld32	r8,r8
     1e8:	0d 42 32 1c 	wl16	r16,0x119c
     1ec:	0d 60 02 03 	wh16	r16,0x3
     1f0:	10 40 02 10 	ld32	r16,r16
     1f4:	0d 44 61 3c 	wl16	r9,0x231c
     1f8:	0d 60 01 23 	wh16	r9,0x3
     1fc:	10 40 01 29 	ld32	r9,r9
     200:	00 00 01 10 	add	r8,r16
     204:	20 70 03 e2 	movepc	rret,8
     208:	14 30 ff 82 	br	10 <compare>,#al
     20c:	00 10 00 41 	add	r2,1
     210:	0d 40 05 00 	wl16	r8,0x20
     214:	0d 60 01 03 	wh16	r8,0x3
     218:	10 40 01 08 	ld32	r8,r8
     21c:	0d 42 36 00 	wl16	r16,0x11a0
     220:	0d 60 02 03 	wh16	r16,0x3
     224:	10 40 02 10 	ld32	r16,r16
     228:	0d 44 65 20 	wl16	r9,0x2320
     22c:	0d 60 01 23 	wh16	r9,0x3
     230:	10 40 01 29 	ld32	r9,r9
     234:	00 00 01 10 	add	r8,r16
     238:	20 70 03 e2 	movepc	rret,8
     23c:	14 30 ff 75 	br	10 <compare>,#al
     240:	00 10 00 41 	add	r2,1
     244:	0d 40 05 04 	wl16	r8,0x24
     248:	0d 60 01 03 	wh16	r8,0x3
     24c:	10 40 01 08 	ld32	r8,r8
     250:	0d 42 36 04 	wl16	r16,0x11a4
     254:	0d 60 02 03 	wh16	r16,0x3
     258:	10 40 02 10 	ld32	r16,r16
     25c:	0d 44 65 24 	wl16	r9,0x2324
     260:	0d 60 01 23 	wh16	r9,0x3
     264:	10 40 01 29 	ld32	r9,r9
     268:	00 00 01 10 	add	r8,r16
     26c:	20 70 03 e2 	movepc	rret,8
     270:	14 30 ff 68 	br	10 <compare>,#al
     274:	00 10 00 41 	add	r2,1
     278:	0d 40 05 08 	wl16	r8,0x28
     27c:	0d 60 01 03 	wh16	r8,0x3
     280:	10 40 01 08 	ld32	r8,r8
     284:	0d 42 36 08 	wl16	r16,0x11a8
     288:	0d 60 02 03 	wh16	r16,0x3
     28c:	10 40 02 10 	ld32	r16,r16
     290:	0d 44 65 28 	wl16	r9,0x2328
     294:	0d 60 01 23 	wh16	r9,0x3
     298:	10 40 01 29 	ld32	r9,r9
     29c:	00 00 01 10 	add	r8,r16
     2a0:	20 70 03 e2 	movepc	rret,8
     2a4:	14 30 ff 5b 	br	10 <compare>,#al
     2a8:	00 10 00 41 	add	r2,1
     2ac:	0d 40 05 0c 	wl16	r8,0x2c
     2b0:	0d 60 01 03 	wh16	r8,0x3
     2b4:	10 40 01 08 	ld32	r8,r8
     2b8:	0d 42 36 0c 	wl16	r16,0x11ac
     2bc:	0d 60 02 03 	wh16	r16,0x3
     2c0:	10 40 02 10 	ld32	r16,r16
     2c4:	0d 44 65 2c 	wl16	r9,0x232c
     2c8:	0d 60 01 23 	wh16	r9,0x3
     2cc:	10 40 01 29 	ld32	r9,r9
     2d0:	00 00 01 10 	add	r8,r16
     2d4:	20 70 03 e2 	movepc	rret,8
     2d8:	14 30 ff 4e 	br	10 <compare>,#al
     2dc:	00 10 00 41 	add	r2,1
     2e0:	0d 40 05 10 	wl16	r8,0x30
     2e4:	0d 60 01 03 	wh16	r8,0x3
     2e8:	10 40 01 08 	ld32	r8,r8
     2ec:	0d 42 36 10 	wl16	r16,0x11b0
     2f0:	0d 60 02 03 	wh16	r16,0x3
     2f4:	10 40 02 10 	ld32	r16,r16
     2f8:	0d 44 65 30 	wl16	r9,0x2330
     2fc:	0d 60 01 23 	wh16	r9,0x3
     300:	10 40 01 29 	ld32	r9,r9
     304:	00 00 01 10 	add	r8,r16
     308:	20 70 03 e2 	movepc	rret,8
     30c:	14 30 ff 41 	br	10 <compare>,#al
     310:	00 10 00 41 	add	r2,1
     314:	0d 40 05 14 	wl16	r8,0x34
     318:	0d 60 01 03 	wh16	r8,0x3
     31c:	10 40 01 08 	ld32	r8,r8
     320:	0d 42 36 14 	wl16	r16,0x11b4
     324:	0d 60 02 03 	wh16	r16,0x3
     328:	10 40 02 10 	ld32	r16,r16
     32c:	0d 44 65 34 	wl16	r9,0x2334
     330:	0d 60 01 23 	wh16	r9,0x3
     334:	10 40 01 29 	ld32	r9,r9
     338:	00 00 01 10 	add	r8,r16
     33c:	20 70 03 e2 	movepc	rret,8
     340:	14 30 ff 34 	br	10 <compare>,#al
     344:	00 10 00 41 	add	r2,1
     348:	0d 40 05 18 	wl16	r8,0x38
     34c:	0d 60 01 03 	wh16	r8,0x3
     350:	10 40 01 08 	ld32	r8,r8
     354:	0d 42 36 18 	wl16	r16,0x11b8
     358:	0d 60 02 03 	wh16	r16,0x3
     35c:	10 40 02 10 	ld32	r16,r16
     360:	0d 44 65 38 	wl16	r9,0x2338
     364:	0d 60 01 23 	wh16	r9,0x3
     368:	10 40 01 29 	ld32	r9,r9
     36c:	00 00 01 10 	add	r8,r16
     370:	20 70 03 e2 	movepc	rret,8
     374:	14 30 ff 27 	br	10 <compare>,#al
     378:	00 10 00 41 	add	r2,1
     37c:	0d 40 05 1c 	wl16	r8,0x3c
     380:	0d 60 01 03 	wh16	r8,0x3
     384:	10 40 01 08 	ld32	r8,r8
     388:	0d 42 36 1c 	wl16	r16,0x11bc
     38c:	0d 60 02 03 	wh16	r16,0x3
     390:	10 40 02 10 	ld32	r16,r16
     394:	0d 44 65 3c 	wl16	r9,0x233c
     398:	0d 60 01 23 	wh16	r9,0x3
     39c:	10 40 01 29 	ld32	r9,r9
     3a0:	00 00 01 10 	add	r8,r16
     3a4:	20 70 03 e2 	movepc	rret,8
     3a8:	14 30 ff 1a 	br	10 <compare>,#al
     3ac:	00 10 00 41 	add	r2,1
     3b0:	0d 40 09 00 	wl16	r8,0x40
     3b4:	0d 60 01 03 	wh16	r8,0x3
     3b8:	10 40 01 08 	ld32	r8,r8
     3bc:	0d 42 3a 00 	wl16	r16,0x11c0
     3c0:	0d 60 02 03 	wh16	r16,0x3
     3c4:	10 40 02 10 	ld32	r16,r16
     3c8:	0d 44 69 20 	wl16	r9,0x2340
     3cc:	0d 60 01 23 	wh16	r9,0x3
     3d0:	10 40 01 29 	ld32	r9,r9
     3d4:	00 00 01 10 	add	r8,r16
     3d8:	20 70 03 e2 	movepc	rret,8
     3dc:	14 30 ff 0d 	br	10 <compare>,#al
     3e0:	00 10 00 41 	add	r2,1
     3e4:	0d 40 09 04 	wl16	r8,0x44
     3e8:	0d 60 01 03 	wh16	r8,0x3
     3ec:	10 40 01 08 	ld32	r8,r8
     3f0:	0d 42 3a 04 	wl16	r16,0x11c4
     3f4:	0d 60 02 03 	wh16	r16,0x3
     3f8:	10 40 02 10 	ld32	r16,r16
     3fc:	0d 44 69 24 	wl16	r9,0x2344
     400:	0d 60 01 23 	wh16	r9,0x3
     404:	10 40 01 29 	ld32	r9,r9
     408:	00 00 01 10 	add	r8,r16
     40c:	20 70 03 e2 	movepc	rret,8
     410:	14 30 ff 00 	br	10 <compare>,#al
     414:	00 10 00 41 	add	r2,1
     418:	0d 40 09 08 	wl16	r8,0x48
     41c:	0d 60 01 03 	wh16	r8,0x3
     420:	10 40 01 08 	ld32	r8,r8
     424:	0d 42 3a 08 	wl16	r16,0x11c8
     428:	0d 60 02 03 	wh16	r16,0x3
     42c:	10 40 02 10 	ld32	r16,r16
     430:	0d 44 69 28 	wl16	r9,0x2348
     434:	0d 60 01 23 	wh16	r9,0x3
     438:	10 40 01 29 	ld32	r9,r9
     43c:	00 00 01 10 	add	r8,r16
     440:	20 70 03 e2 	movepc	rret,8
     444:	14 30 fe f3 	br	10 <compare>,#al
     448:	00 10 00 41 	add	r2,1
     44c:	0d 40 09 0c 	wl16	r8,0x4c
     450:	0d 60 01 03 	wh16	r8,0x3
     454:	10 40 01 08 	ld32	r8,r8
     458:	0d 42 3a 0c 	wl16	r16,0x11cc
     45c:	0d 60 02 03 	wh16	r16,0x3
     460:	10 40 02 10 	ld32	r16,r16
     464:	0d 44 69 2c 	wl16	r9,0x234c
     468:	0d 60 01 23 	wh16	r9,0x3
     46c:	10 40 01 29 	ld32	r9,r9
     470:	00 00 01 10 	add	r8,r16
     474:	20 70 03 e2 	movepc	rret,8
     478:	14 30 fe e6 	br	10 <compare>,#al
     47c:	00 10 00 41 	add	r2,1
     480:	0d 40 09 10 	wl16	r8,0x50
     484:	0d 60 01 03 	wh16	r8,0x3
     488:	10 40 01 08 	ld32	r8,r8
     48c:	0d 42 3a 10 	wl16	r16,0x11d0
     490:	0d 60 02 03 	wh16	r16,0x3
     494:	10 40 02 10 	ld32	r16,r16
     498:	0d 44 69 30 	wl16	r9,0x2350
     49c:	0d 60 01 23 	wh16	r9,0x3
     4a0:	10 40 01 29 	ld32	r9,r9
     4a4:	00 00 01 10 	add	r8,r16
     4a8:	20 70 03 e2 	movepc	rret,8
     4ac:	14 30 fe d9 	br	10 <compare>,#al
     4b0:	00 10 00 41 	add	r2,1
     4b4:	0d 40 09 14 	wl16	r8,0x54
     4b8:	0d 60 01 03 	wh16	r8,0x3
     4bc:	10 40 01 08 	ld32	r8,r8
     4c0:	0d 42 3a 14 	wl16	r16,0x11d4
     4c4:	0d 60 02 03 	wh16	r16,0x3
     4c8:	10 40 02 10 	ld32	r16,r16
     4cc:	0d 44 69 34 	wl16	r9,0x2354
     4d0:	0d 60 01 23 	wh16	r9,0x3
     4d4:	10 40 01 29 	ld32	r9,r9
     4d8:	00 00 01 10 	add	r8,r16
     4dc:	20 70 03 e2 	movepc	rret,8
     4e0:	14 30 fe cc 	br	10 <compare>,#al
     4e4:	00 10 00 41 	add	r2,1
     4e8:	0d 40 09 18 	wl16	r8,0x58
     4ec:	0d 60 01 03 	wh16	r8,0x3
     4f0:	10 40 01 08 	ld32	r8,r8
     4f4:	0d 42 3a 18 	wl16	r16,0x11d8
     4f8:	0d 60 02 03 	wh16	r16,0x3
     4fc:	10 40 02 10 	ld32	r16,r16
     500:	0d 44 69 38 	wl16	r9,0x2358
     504:	0d 60 01 23 	wh16	r9,0x3
     508:	10 40 01 29 	ld32	r9,r9
     50c:	00 00 01 10 	add	r8,r16
     510:	20 70 03 e2 	movepc	rret,8
     514:	14 30 fe bf 	br	10 <compare>,#al
     518:	00 10 00 41 	add	r2,1
     51c:	0d 40 09 1c 	wl16	r8,0x5c
     520:	0d 60 01 03 	wh16	r8,0x3
     524:	10 40 01 08 	ld32	r8,r8
     528:	0d 42 3a 1c 	wl16	r16,0x11dc
     52c:	0d 60 02 03 	wh16	r16,0x3
     530:	10 40 02 10 	ld32	r16,r16
     534:	0d 44 69 3c 	wl16	r9,0x235c
     538:	0d 60 01 23 	wh16	r9,0x3
     53c:	10 40 01 29 	ld32	r9,r9
     540:	00 00 01 10 	add	r8,r16
     544:	20 70 03 e2 	movepc	rret,8
     548:	14 30 fe b2 	br	10 <compare>,#al
     54c:	00 10 00 41 	add	r2,1
     550:	0d 40 0d 00 	wl16	r8,0x60
     554:	0d 60 01 03 	wh16	r8,0x3
     558:	10 40 01 08 	ld32	r8,r8
     55c:	0d 42 3e 00 	wl16	r16,0x11e0
     560:	0d 60 02 03 	wh16	r16,0x3
     564:	10 40 02 10 	ld32	r16,r16
     568:	0d 44 6d 20 	wl16	r9,0x2360
     56c:	0d 60 01 23 	wh16	r9,0x3
     570:	10 40 01 29 	ld32	r9,r9
     574:	00 00 01 10 	add	r8,r16
     578:	20 70 03 e2 	movepc	rret,8
     57c:	14 30 fe a5 	br	10 <compare>,#al
     580:	00 10 00 41 	add	r2,1
     584:	0d 40 0d 04 	wl16	r8,0x64
     588:	0d 60 01 03 	wh16	r8,0x3
     58c:	10 40 01 08 	ld32	r8,r8
     590:	0d 42 3e 04 	wl16	r16,0x11e4
     594:	0d 60 02 03 	wh16	r16,0x3
     598:	10 40 02 10 	ld32	r16,r16
     59c:	0d 44 6d 24 	wl16	r9,0x2364
     5a0:	0d 60 01 23 	wh16	r9,0x3
     5a4:	10 40 01 29 	ld32	r9,r9
     5a8:	00 00 01 10 	add	r8,r16
     5ac:	20 70 03 e2 	movepc	rret,8
     5b0:	14 30 fe 98 	br	10 <compare>,#al
     5b4:	00 10 00 41 	add	r2,1
     5b8:	0d 40 0d 08 	wl16	r8,0x68
     5bc:	0d 60 01 03 	wh16	r8,0x3
     5c0:	10 40 01 08 	ld32	r8,r8
     5c4:	0d 42 3e 08 	wl16	r16,0x11e8
     5c8:	0d 60 02 03 	wh16	r16,0x3
     5cc:	10 40 02 10 	ld32	r16,r16
     5d0:	0d 44 6d 28 	wl16	r9,0x2368
     5d4:	0d 60 01 23 	wh16	r9,0x3
     5d8:	10 40 01 29 	ld32	r9,r9
     5dc:	00 00 01 10 	add	r8,r16
     5e0:	20 70 03 e2 	movepc	rret,8
     5e4:	14 30 fe 8b 	br	10 <compare>,#al
     5e8:	00 10 00 41 	add	r2,1
     5ec:	0d 40 0d 0c 	wl16	r8,0x6c
     5f0:	0d 60 01 03 	wh16	r8,0x3
     5f4:	10 40 01 08 	ld32	r8,r8
     5f8:	0d 42 3e 0c 	wl16	r16,0x11ec
     5fc:	0d 60 02 03 	wh16	r16,0x3
     600:	10 40 02 10 	ld32	r16,r16
     604:	0d 44 6d 2c 	wl16	r9,0x236c
     608:	0d 60 01 23 	wh16	r9,0x3
     60c:	10 40 01 29 	ld32	r9,r9
     610:	00 00 01 10 	add	r8,r16
     614:	20 70 03 e2 	movepc	rret,8
     618:	14 30 fe 7e 	br	10 <compare>,#al
     61c:	00 10 00 41 	add	r2,1
     620:	0d 40 0d 10 	wl16	r8,0x70
     624:	0d 60 01 03 	wh16	r8,0x3
     628:	10 40 01 08 	ld32	r8,r8
     62c:	0d 42 3e 10 	wl16	r16,0x11f0
     630:	0d 60 02 03 	wh16	r16,0x3
     634:	10 40 02 10 	ld32	r16,r16
     638:	0d 44 6d 30 	wl16	r9,0x2370
     63c:	0d 60 01 23 	wh16	r9,0x3
     640:	10 40 01 29 	ld32	r9,r9
     644:	00 00 01 10 	add	r8,r16
     648:	20 70 03 e2 	movepc	rret,8
     64c:	14 30 fe 71 	br	10 <compare>,#al
     650:	00 10 00 41 	add	r2,1
     654:	0d 40 0d 14 	wl16	r8,0x74
     658:	0d 60 01 03 	wh16	r8,0x3
     65c:	10 40 01 08 	ld32	r8,r8
     660:	0d 42 3e 14 	wl16	r16,0x11f4
     664:	0d 60 02 03 	wh16	r16,0x3
     668:	10 40 02 10 	ld32	r16,r16
     66c:	0d 44 6d 34 	wl16	r9,0x2374
     670:	0d 60 01 23 	wh16	r9,0x3
     674:	10 40 01 29 	ld32	r9,r9
     678:	00 00 01 10 	add	r8,r16
     67c:	20 70 03 e2 	movepc	rret,8
     680:	14 30 fe 64 	br	10 <compare>,#al
     684:	00 10 00 41 	add	r2,1
     688:	0d 40 0d 18 	wl16	r8,0x78
     68c:	0d 60 01 03 	wh16	r8,0x3
     690:	10 40 01 08 	ld32	r8,r8
     694:	0d 42 3e 18 	wl16	r16,0x11f8
     698:	0d 60 02 03 	wh16	r16,0x3
     69c:	10 40 02 10 	ld32	r16,r16
     6a0:	0d 44 6d 38 	wl16	r9,0x2378
     6a4:	0d 60 01 23 	wh16	r9,0x3
     6a8:	10 40 01 29 	ld32	r9,r9
     6ac:	00 00 01 10 	add	r8,r16
     6b0:	20 70 03 e2 	movepc	rret,8
     6b4:	14 30 fe 57 	br	10 <compare>,#al
     6b8:	00 10 00 41 	add	r2,1
     6bc:	0d 40 0d 1c 	wl16	r8,0x7c
     6c0:	0d 60 01 03 	wh16	r8,0x3
     6c4:	10 40 01 08 	ld32	r8,r8
     6c8:	0d 42 3e 1c 	wl16	r16,0x11fc
     6cc:	0d 60 02 03 	wh16	r16,0x3
     6d0:	10 40 02 10 	ld32	r16,r16
     6d4:	0d 44 6d 3c 	wl16	r9,0x237c
     6d8:	0d 60 01 23 	wh16	r9,0x3
     6dc:	10 40 01 29 	ld32	r9,r9
     6e0:	00 00 01 10 	add	r8,r16
     6e4:	20 70 03 e2 	movepc	rret,8
     6e8:	14 30 fe 4a 	br	10 <compare>,#al
     6ec:	00 10 00 41 	add	r2,1
     6f0:	0d 40 11 00 	wl16	r8,0x80
     6f4:	0d 60 01 03 	wh16	r8,0x3
     6f8:	10 40 01 08 	ld32	r8,r8
     6fc:	0d 42 42 00 	wl16	r16,0x1200
     700:	0d 60 02 03 	wh16	r16,0x3
     704:	10 40 02 10 	ld32	r16,r16
     708:	0d 44 71 20 	wl16	r9,0x2380
     70c:	0d 60 01 23 	wh16	r9,0x3
     710:	10 40 01 29 	ld32	r9,r9
     714:	00 00 01 10 	add	r8,r16
     718:	20 70 03 e2 	movepc	rret,8
     71c:	14 30 fe 3d 	br	10 <compare>,#al
     720:	00 10 00 41 	add	r2,1
     724:	0d 40 11 04 	wl16	r8,0x84
     728:	0d 60 01 03 	wh16	r8,0x3
     72c:	10 40 01 08 	ld32	r8,r8
     730:	0d 42 42 04 	wl16	r16,0x1204
     734:	0d 60 02 03 	wh16	r16,0x3
     738:	10 40 02 10 	ld32	r16,r16
     73c:	0d 44 71 24 	wl16	r9,0x2384
     740:	0d 60 01 23 	wh16	r9,0x3
     744:	10 40 01 29 	ld32	r9,r9
     748:	00 00 01 10 	add	r8,r16
     74c:	20 70 03 e2 	movepc	rret,8
     750:	14 30 fe 30 	br	10 <compare>,#al
     754:	00 10 00 41 	add	r2,1
     758:	0d 40 11 08 	wl16	r8,0x88
     75c:	0d 60 01 03 	wh16	r8,0x3
     760:	10 40 01 08 	ld32	r8,r8
     764:	0d 42 42 08 	wl16	r16,0x1208
     768:	0d 60 02 03 	wh16	r16,0x3
     76c:	10 40 02 10 	ld32	r16,r16
     770:	0d 44 71 28 	wl16	r9,0x2388
     774:	0d 60 01 23 	wh16	r9,0x3
     778:	10 40 01 29 	ld32	r9,r9
     77c:	00 00 01 10 	add	r8,r16
     780:	20 70 03 e2 	movepc	rret,8
     784:	14 30 fe 23 	br	10 <compare>,#al
     788:	00 10 00 41 	add	r2,1
     78c:	0d 40 11 0c 	wl16	r8,0x8c
     790:	0d 60 01 03 	wh16	r8,0x3
     794:	10 40 01 08 	ld32	r8,r8
     798:	0d 42 42 0c 	wl16	r16,0x120c
     79c:	0d 60 02 03 	wh16	r16,0x3
     7a0:	10 40 02 10 	ld32	r16,r16
     7a4:	0d 44 71 2c 	wl16	r9,0x238c
     7a8:	0d 60 01 23 	wh16	r9,0x3
     7ac:	10 40 01 29 	ld32	r9,r9
     7b0:	00 00 01 10 	add	r8,r16
     7b4:	20 70 03 e2 	movepc	rret,8
     7b8:	14 30 fe 16 	br	10 <compare>,#al
     7bc:	00 10 00 41 	add	r2,1
     7c0:	0d 40 11 10 	wl16	r8,0x90
     7c4:	0d 60 01 03 	wh16	r8,0x3
     7c8:	10 40 01 08 	ld32	r8,r8
     7cc:	0d 42 42 10 	wl16	r16,0x1210
     7d0:	0d 60 02 03 	wh16	r16,0x3
     7d4:	10 40 02 10 	ld32	r16,r16
     7d8:	0d 44 71 30 	wl16	r9,0x2390
     7dc:	0d 60 01 23 	wh16	r9,0x3
     7e0:	10 40 01 29 	ld32	r9,r9
     7e4:	00 00 01 10 	add	r8,r16
     7e8:	20 70 03 e2 	movepc	rret,8
     7ec:	14 30 fe 09 	br	10 <compare>,#al
     7f0:	00 10 00 41 	add	r2,1
     7f4:	0d 40 11 14 	wl16	r8,0x94
     7f8:	0d 60 01 03 	wh16	r8,0x3
     7fc:	10 40 01 08 	ld32	r8,r8
     800:	0d 42 42 14 	wl16	r16,0x1214
     804:	0d 60 02 03 	wh16	r16,0x3
     808:	10 40 02 10 	ld32	r16,r16
     80c:	0d 44 71 34 	wl16	r9,0x2394
     810:	0d 60 01 23 	wh16	r9,0x3
     814:	10 40 01 29 	ld32	r9,r9
     818:	00 00 01 10 	add	r8,r16
     81c:	20 70 03 e2 	movepc	rret,8
     820:	14 30 fd fc 	br	10 <compare>,#al
     824:	00 10 00 41 	add	r2,1
     828:	0d 40 11 18 	wl16	r8,0x98
     82c:	0d 60 01 03 	wh16	r8,0x3
     830:	10 40 01 08 	ld32	r8,r8
     834:	0d 42 42 18 	wl16	r16,0x1218
     838:	0d 60 02 03 	wh16	r16,0x3
     83c:	10 40 02 10 	ld32	r16,r16
     840:	0d 44 71 38 	wl16	r9,0x2398
     844:	0d 60 01 23 	wh16	r9,0x3
     848:	10 40 01 29 	ld32	r9,r9
     84c:	00 00 01 10 	add	r8,r16
     850:	20 70 03 e2 	movepc	rret,8
     854:	14 30 fd ef 	br	10 <compare>,#al
     858:	00 10 00 41 	add	r2,1
     85c:	0d 40 11 1c 	wl16	r8,0x9c
     860:	0d 60 01 03 	wh16	r8,0x3
     864:	10 40 01 08 	ld32	r8,r8
     868:	0d 42 42 1c 	wl16	r16,0x121c
     86c:	0d 60 02 03 	wh16	r16,0x3
     870:	10 40 02 10 	ld32	r16,r16
     874:	0d 44 71 3c 	wl16	r9,0x239c
     878:	0d 60 01 23 	wh16	r9,0x3
     87c:	10 40 01 29 	ld32	r9,r9
     880:	00 00 01 10 	add	r8,r16
     884:	20 70 03 e2 	movepc	rret,8
     888:	14 30 fd e2 	br	10 <compare>,#al
     88c:	00 10 00 41 	add	r2,1
     890:	0d 40 15 00 	wl16	r8,0xa0
     894:	0d 60 01 03 	wh16	r8,0x3
     898:	10 40 01 08 	ld32	r8,r8
     89c:	0d 42 46 00 	wl16	r16,0x1220
     8a0:	0d 60 02 03 	wh16	r16,0x3
     8a4:	10 40 02 10 	ld32	r16,r16
     8a8:	0d 44 75 20 	wl16	r9,0x23a0
     8ac:	0d 60 01 23 	wh16	r9,0x3
     8b0:	10 40 01 29 	ld32	r9,r9
     8b4:	00 00 01 10 	add	r8,r16
     8b8:	20 70 03 e2 	movepc	rret,8
     8bc:	14 30 fd d5 	br	10 <compare>,#al
     8c0:	00 10 00 41 	add	r2,1
     8c4:	0d 40 15 04 	wl16	r8,0xa4
     8c8:	0d 60 01 03 	wh16	r8,0x3
     8cc:	10 40 01 08 	ld32	r8,r8
     8d0:	0d 42 46 04 	wl16	r16,0x1224
     8d4:	0d 60 02 03 	wh16	r16,0x3
     8d8:	10 40 02 10 	ld32	r16,r16
     8dc:	0d 44 75 24 	wl16	r9,0x23a4
     8e0:	0d 60 01 23 	wh16	r9,0x3
     8e4:	10 40 01 29 	ld32	r9,r9
     8e8:	00 00 01 10 	add	r8,r16
     8ec:	20 70 03 e2 	movepc	rret,8
     8f0:	14 30 fd c8 	br	10 <compare>,#al
     8f4:	00 10 00 41 	add	r2,1
     8f8:	0d 40 15 08 	wl16	r8,0xa8
     8fc:	0d 60 01 03 	wh16	r8,0x3
     900:	10 40 01 08 	ld32	r8,r8
     904:	0d 42 46 08 	wl16	r16,0x1228
     908:	0d 60 02 03 	wh16	r16,0x3
     90c:	10 40 02 10 	ld32	r16,r16
     910:	0d 44 75 28 	wl16	r9,0x23a8
     914:	0d 60 01 23 	wh16	r9,0x3
     918:	10 40 01 29 	ld32	r9,r9
     91c:	00 00 01 10 	add	r8,r16
     920:	20 70 03 e2 	movepc	rret,8
     924:	14 30 fd bb 	br	10 <compare>,#al
     928:	00 10 00 41 	add	r2,1
     92c:	0d 40 15 0c 	wl16	r8,0xac
     930:	0d 60 01 03 	wh16	r8,0x3
     934:	10 40 01 08 	ld32	r8,r8
     938:	0d 42 46 0c 	wl16	r16,0x122c
     93c:	0d 60 02 03 	wh16	r16,0x3
     940:	10 40 02 10 	ld32	r16,r16
     944:	0d 44 75 2c 	wl16	r9,0x23ac
     948:	0d 60 01 23 	wh16	r9,0x3
     94c:	10 40 01 29 	ld32	r9,r9
     950:	00 00 01 10 	add	r8,r16
     954:	20 70 03 e2 	movepc	rret,8
     958:	14 30 fd ae 	br	10 <compare>,#al
     95c:	00 10 00 41 	add	r2,1
     960:	0d 40 15 10 	wl16	r8,0xb0
     964:	0d 60 01 03 	wh16	r8,0x3
     968:	10 40 01 08 	ld32	r8,r8
     96c:	0d 42 46 10 	wl16	r16,0x1230
     970:	0d 60 02 03 	wh16	r16,0x3
     974:	10 40 02 10 	ld32	r16,r16
     978:	0d 44 75 30 	wl16	r9,0x23b0
     97c:	0d 60 01 23 	wh16	r9,0x3
     980:	10 40 01 29 	ld32	r9,r9
     984:	00 00 01 10 	add	r8,r16
     988:	20 70 03 e2 	movepc	rret,8
     98c:	14 30 fd a1 	br	10 <compare>,#al
     990:	00 10 00 41 	add	r2,1
     994:	0d 40 15 14 	wl16	r8,0xb4
     998:	0d 60 01 03 	wh16	r8,0x3
     99c:	10 40 01 08 	ld32	r8,r8
     9a0:	0d 42 46 14 	wl16	r16,0x1234
     9a4:	0d 60 02 03 	wh16	r16,0x3
     9a8:	10 40 02 10 	ld32	r16,r16
     9ac:	0d 44 75 34 	wl16	r9,0x23b4
     9b0:	0d 60 01 23 	wh16	r9,0x3
     9b4:	10 40 01 29 	ld32	r9,r9
     9b8:	00 00 01 10 	add	r8,r16
     9bc:	20 70 03 e2 	movepc	rret,8
     9c0:	14 30 fd 94 	br	10 <compare>,#al
     9c4:	00 10 00 41 	add	r2,1
     9c8:	0d 40 15 18 	wl16	r8,0xb8
     9cc:	0d 60 01 03 	wh16	r8,0x3
     9d0:	10 40 01 08 	ld32	r8,r8
     9d4:	0d 42 46 18 	wl16	r16,0x1238
     9d8:	0d 60 02 03 	wh16	r16,0x3
     9dc:	10 40 02 10 	ld32	r16,r16
     9e0:	0d 44 75 38 	wl16	r9,0x23b8
     9e4:	0d 60 01 23 	wh16	r9,0x3
     9e8:	10 40 01 29 	ld32	r9,r9
     9ec:	00 00 01 10 	add	r8,r16
     9f0:	20 70 03 e2 	movepc	rret,8
     9f4:	14 30 fd 87 	br	10 <compare>,#al
     9f8:	00 10 00 41 	add	r2,1
     9fc:	0d 40 15 1c 	wl16	r8,0xbc
     a00:	0d 60 01 03 	wh16	r8,0x3
     a04:	10 40 01 08 	ld32	r8,r8
     a08:	0d 42 46 1c 	wl16	r16,0x123c
     a0c:	0d 60 02 03 	wh16	r16,0x3
     a10:	10 40 02 10 	ld32	r16,r16
     a14:	0d 44 75 3c 	wl16	r9,0x23bc
     a18:	0d 60 01 23 	wh16	r9,0x3
     a1c:	10 40 01 29 	ld32	r9,r9
     a20:	00 00 01 10 	add	r8,r16
     a24:	20 70 03 e2 	movepc	rret,8
     a28:	14 30 fd 7a 	br	10 <compare>,#al
     a2c:	00 10 00 41 	add	r2,1
     a30:	0d 40 19 00 	wl16	r8,0xc0
     a34:	0d 60 01 03 	wh16	r8,0x3
     a38:	10 40 01 08 	ld32	r8,r8
     a3c:	0d 42 4a 00 	wl16	r16,0x1240
     a40:	0d 60 02 03 	wh16	r16,0x3
     a44:	10 40 02 10 	ld32	r16,r16
     a48:	0d 44 79 20 	wl16	r9,0x23c0
     a4c:	0d 60 01 23 	wh16	r9,0x3
     a50:	10 40 01 29 	ld32	r9,r9
     a54:	00 00 01 10 	add	r8,r16
     a58:	20 70 03 e2 	movepc	rret,8
     a5c:	14 30 fd 6d 	br	10 <compare>,#al
     a60:	00 10 00 41 	add	r2,1
     a64:	0d 40 19 04 	wl16	r8,0xc4
     a68:	0d 60 01 03 	wh16	r8,0x3
     a6c:	10 40 01 08 	ld32	r8,r8
     a70:	0d 42 4a 04 	wl16	r16,0x1244
     a74:	0d 60 02 03 	wh16	r16,0x3
     a78:	10 40 02 10 	ld32	r16,r16
     a7c:	0d 44 79 24 	wl16	r9,0x23c4
     a80:	0d 60 01 23 	wh16	r9,0x3
     a84:	10 40 01 29 	ld32	r9,r9
     a88:	00 00 01 10 	add	r8,r16
     a8c:	20 70 03 e2 	movepc	rret,8
     a90:	14 30 fd 60 	br	10 <compare>,#al
     a94:	00 10 00 41 	add	r2,1
     a98:	0d 40 19 08 	wl16	r8,0xc8
     a9c:	0d 60 01 03 	wh16	r8,0x3
     aa0:	10 40 01 08 	ld32	r8,r8
     aa4:	0d 42 4a 08 	wl16	r16,0x1248
     aa8:	0d 60 02 03 	wh16	r16,0x3
     aac:	10 40 02 10 	ld32	r16,r16
     ab0:	0d 44 79 28 	wl16	r9,0x23c8
     ab4:	0d 60 01 23 	wh16	r9,0x3
     ab8:	10 40 01 29 	ld32	r9,r9
     abc:	00 00 01 10 	add	r8,r16
     ac0:	20 70 03 e2 	movepc	rret,8
     ac4:	14 30 fd 53 	br	10 <compare>,#al
     ac8:	00 10 00 41 	add	r2,1
     acc:	0d 40 19 0c 	wl16	r8,0xcc
     ad0:	0d 60 01 03 	wh16	r8,0x3
     ad4:	10 40 01 08 	ld32	r8,r8
     ad8:	0d 42 4a 0c 	wl16	r16,0x124c
     adc:	0d 60 02 03 	wh16	r16,0x3
     ae0:	10 40 02 10 	ld32	r16,r16
     ae4:	0d 44 79 2c 	wl16	r9,0x23cc
     ae8:	0d 60 01 23 	wh16	r9,0x3
     aec:	10 40 01 29 	ld32	r9,r9
     af0:	00 00 01 10 	add	r8,r16
     af4:	20 70 03 e2 	movepc	rret,8
     af8:	14 30 fd 46 	br	10 <compare>,#al
     afc:	00 10 00 41 	add	r2,1
     b00:	0d 40 19 10 	wl16	r8,0xd0
     b04:	0d 60 01 03 	wh16	r8,0x3
     b08:	10 40 01 08 	ld32	r8,r8
     b0c:	0d 42 4a 10 	wl16	r16,0x1250
     b10:	0d 60 02 03 	wh16	r16,0x3
     b14:	10 40 02 10 	ld32	r16,r16
     b18:	0d 44 79 30 	wl16	r9,0x23d0
     b1c:	0d 60 01 23 	wh16	r9,0x3
     b20:	10 40 01 29 	ld32	r9,r9
     b24:	00 00 01 10 	add	r8,r16
     b28:	20 70 03 e2 	movepc	rret,8
     b2c:	14 30 fd 39 	br	10 <compare>,#al
     b30:	00 10 00 41 	add	r2,1
     b34:	0d 40 19 14 	wl16	r8,0xd4
     b38:	0d 60 01 03 	wh16	r8,0x3
     b3c:	10 40 01 08 	ld32	r8,r8
     b40:	0d 42 4a 14 	wl16	r16,0x1254
     b44:	0d 60 02 03 	wh16	r16,0x3
     b48:	10 40 02 10 	ld32	r16,r16
     b4c:	0d 44 79 34 	wl16	r9,0x23d4
     b50:	0d 60 01 23 	wh16	r9,0x3
     b54:	10 40 01 29 	ld32	r9,r9
     b58:	00 00 01 10 	add	r8,r16
     b5c:	20 70 03 e2 	movepc	rret,8
     b60:	14 30 fd 2c 	br	10 <compare>,#al
     b64:	00 10 00 41 	add	r2,1
     b68:	0d 40 19 18 	wl16	r8,0xd8
     b6c:	0d 60 01 03 	wh16	r8,0x3
     b70:	10 40 01 08 	ld32	r8,r8
     b74:	0d 42 4a 18 	wl16	r16,0x1258
     b78:	0d 60 02 03 	wh16	r16,0x3
     b7c:	10 40 02 10 	ld32	r16,r16
     b80:	0d 44 79 38 	wl16	r9,0x23d8
     b84:	0d 60 01 23 	wh16	r9,0x3
     b88:	10 40 01 29 	ld32	r9,r9
     b8c:	00 00 01 10 	add	r8,r16
     b90:	20 70 03 e2 	movepc	rret,8
     b94:	14 30 fd 1f 	br	10 <compare>,#al
     b98:	00 10 00 41 	add	r2,1
     b9c:	0d 40 19 1c 	wl16	r8,0xdc
     ba0:	0d 60 01 03 	wh16	r8,0x3
     ba4:	10 40 01 08 	ld32	r8,r8
     ba8:	0d 42 4a 1c 	wl16	r16,0x125c
     bac:	0d 60 02 03 	wh16	r16,0x3
     bb0:	10 40 02 10 	ld32	r16,r16
     bb4:	0d 44 79 3c 	wl16	r9,0x23dc
     bb8:	0d 60 01 23 	wh16	r9,0x3
     bbc:	10 40 01 29 	ld32	r9,r9
     bc0:	00 00 01 10 	add	r8,r16
     bc4:	20 70 03 e2 	movepc	rret,8
     bc8:	14 30 fd 12 	br	10 <compare>,#al
     bcc:	00 10 00 41 	add	r2,1
     bd0:	0d 40 1d 00 	wl16	r8,0xe0
     bd4:	0d 60 01 03 	wh16	r8,0x3
     bd8:	10 40 01 08 	ld32	r8,r8
     bdc:	0d 42 4e 00 	wl16	r16,0x1260
     be0:	0d 60 02 03 	wh16	r16,0x3
     be4:	10 40 02 10 	ld32	r16,r16
     be8:	0d 44 7d 20 	wl16	r9,0x23e0
     bec:	0d 60 01 23 	wh16	r9,0x3
     bf0:	10 40 01 29 	ld32	r9,r9
     bf4:	00 00 01 10 	add	r8,r16
     bf8:	20 70 03 e2 	movepc	rret,8
     bfc:	14 30 fd 05 	br	10 <compare>,#al
     c00:	00 10 00 41 	add	r2,1
     c04:	0d 40 1d 04 	wl16	r8,0xe4
     c08:	0d 60 01 03 	wh16	r8,0x3
     c0c:	10 40 01 08 	ld32	r8,r8
     c10:	0d 42 4e 04 	wl16	r16,0x1264
     c14:	0d 60 02 03 	wh16	r16,0x3
     c18:	10 40 02 10 	ld32	r16,r16
     c1c:	0d 44 7d 24 	wl16	r9,0x23e4
     c20:	0d 60 01 23 	wh16	r9,0x3
     c24:	10 40 01 29 	ld32	r9,r9
     c28:	00 00 01 10 	add	r8,r16
     c2c:	20 70 03 e2 	movepc	rret,8
     c30:	14 30 fc f8 	br	10 <compare>,#al
     c34:	00 10 00 41 	add	r2,1
     c38:	0d 40 1d 08 	wl16	r8,0xe8
     c3c:	0d 60 01 03 	wh16	r8,0x3
     c40:	10 40 01 08 	ld32	r8,r8
     c44:	0d 42 4e 08 	wl16	r16,0x1268
     c48:	0d 60 02 03 	wh16	r16,0x3
     c4c:	10 40 02 10 	ld32	r16,r16
     c50:	0d 44 7d 28 	wl16	r9,0x23e8
     c54:	0d 60 01 23 	wh16	r9,0x3
     c58:	10 40 01 29 	ld32	r9,r9
     c5c:	00 00 01 10 	add	r8,r16
     c60:	20 70 03 e2 	movepc	rret,8
     c64:	14 30 fc eb 	br	10 <compare>,#al
     c68:	00 10 00 41 	add	r2,1
     c6c:	0d 40 1d 0c 	wl16	r8,0xec
     c70:	0d 60 01 03 	wh16	r8,0x3
     c74:	10 40 01 08 	ld32	r8,r8
     c78:	0d 42 4e 0c 	wl16	r16,0x126c
     c7c:	0d 60 02 03 	wh16	r16,0x3
     c80:	10 40 02 10 	ld32	r16,r16
     c84:	0d 44 7d 2c 	wl16	r9,0x23ec
     c88:	0d 60 01 23 	wh16	r9,0x3
     c8c:	10 40 01 29 	ld32	r9,r9
     c90:	00 00 01 10 	add	r8,r16
     c94:	20 70 03 e2 	movepc	rret,8
     c98:	14 30 fc de 	br	10 <compare>,#al
     c9c:	00 10 00 41 	add	r2,1
     ca0:	0d 40 1d 10 	wl16	r8,0xf0
     ca4:	0d 60 01 03 	wh16	r8,0x3
     ca8:	10 40 01 08 	ld32	r8,r8
     cac:	0d 42 4e 10 	wl16	r16,0x1270
     cb0:	0d 60 02 03 	wh16	r16,0x3
     cb4:	10 40 02 10 	ld32	r16,r16
     cb8:	0d 44 7d 30 	wl16	r9,0x23f0
     cbc:	0d 60 01 23 	wh16	r9,0x3
     cc0:	10 40 01 29 	ld32	r9,r9
     cc4:	00 00 01 10 	add	r8,r16
     cc8:	20 70 03 e2 	movepc	rret,8
     ccc:	14 30 fc d1 	br	10 <compare>,#al
     cd0:	00 10 00 41 	add	r2,1
     cd4:	0d 40 1d 14 	wl16	r8,0xf4
     cd8:	0d 60 01 03 	wh16	r8,0x3
     cdc:	10 40 01 08 	ld32	r8,r8
     ce0:	0d 42 4e 14 	wl16	r16,0x1274
     ce4:	0d 60 02 03 	wh16	r16,0x3
     ce8:	10 40 02 10 	ld32	r16,r16
     cec:	0d 44 7d 34 	wl16	r9,0x23f4
     cf0:	0d 60 01 23 	wh16	r9,0x3
     cf4:	10 40 01 29 	ld32	r9,r9
     cf8:	00 00 01 10 	add	r8,r16
     cfc:	20 70 03 e2 	movepc	rret,8
     d00:	14 30 fc c4 	br	10 <compare>,#al
     d04:	00 10 00 41 	add	r2,1
     d08:	0d 40 1d 18 	wl16	r8,0xf8
     d0c:	0d 60 01 03 	wh16	r8,0x3
     d10:	10 40 01 08 	ld32	r8,r8
     d14:	0d 42 4e 18 	wl16	r16,0x1278
     d18:	0d 60 02 03 	wh16	r16,0x3
     d1c:	10 40 02 10 	ld32	r16,r16
     d20:	0d 44 7d 38 	wl16	r9,0x23f8
     d24:	0d 60 01 23 	wh16	r9,0x3
     d28:	10 40 01 29 	ld32	r9,r9
     d2c:	00 00 01 10 	add	r8,r16
     d30:	20 70 03 e2 	movepc	rret,8
     d34:	14 30 fc b7 	br	10 <compare>,#al
     d38:	00 10 00 41 	add	r2,1
     d3c:	0d 40 1d 1c 	wl16	r8,0xfc
     d40:	0d 60 01 03 	wh16	r8,0x3
     d44:	10 40 01 08 	ld32	r8,r8
     d48:	0d 42 4e 1c 	wl16	r16,0x127c
     d4c:	0d 60 02 03 	wh16	r16,0x3
     d50:	10 40 02 10 	ld32	r16,r16
     d54:	0d 44 7d 3c 	wl16	r9,0x23fc
     d58:	0d 60 01 23 	wh16	r9,0x3
     d5c:	10 40 01 29 	ld32	r9,r9
     d60:	00 00 01 10 	add	r8,r16
     d64:	20 70 03 e2 	movepc	rret,8
     d68:	14 30 fc aa 	br	10 <compare>,#al
     d6c:	00 10 00 41 	add	r2,1
     d70:	0d 40 21 00 	wl16	r8,0x100
     d74:	0d 60 01 03 	wh16	r8,0x3
     d78:	10 40 01 08 	ld32	r8,r8
     d7c:	0d 42 52 00 	wl16	r16,0x1280
     d80:	0d 60 02 03 	wh16	r16,0x3
     d84:	10 40 02 10 	ld32	r16,r16
     d88:	0d 44 81 20 	wl16	r9,0x2400
     d8c:	0d 60 01 23 	wh16	r9,0x3
     d90:	10 40 01 29 	ld32	r9,r9
     d94:	00 00 01 10 	add	r8,r16
     d98:	20 70 03 e2 	movepc	rret,8
     d9c:	14 30 fc 9d 	br	10 <compare>,#al
     da0:	00 10 00 41 	add	r2,1
     da4:	0d 40 21 04 	wl16	r8,0x104
     da8:	0d 60 01 03 	wh16	r8,0x3
     dac:	10 40 01 08 	ld32	r8,r8
     db0:	0d 42 52 04 	wl16	r16,0x1284
     db4:	0d 60 02 03 	wh16	r16,0x3
     db8:	10 40 02 10 	ld32	r16,r16
     dbc:	0d 44 81 24 	wl16	r9,0x2404
     dc0:	0d 60 01 23 	wh16	r9,0x3
     dc4:	10 40 01 29 	ld32	r9,r9
     dc8:	00 00 01 10 	add	r8,r16
     dcc:	20 70 03 e2 	movepc	rret,8
     dd0:	14 30 fc 90 	br	10 <compare>,#al
     dd4:	00 10 00 41 	add	r2,1
     dd8:	0d 40 21 08 	wl16	r8,0x108
     ddc:	0d 60 01 03 	wh16	r8,0x3
     de0:	10 40 01 08 	ld32	r8,r8
     de4:	0d 42 52 08 	wl16	r16,0x1288
     de8:	0d 60 02 03 	wh16	r16,0x3
     dec:	10 40 02 10 	ld32	r16,r16
     df0:	0d 44 81 28 	wl16	r9,0x2408
     df4:	0d 60 01 23 	wh16	r9,0x3
     df8:	10 40 01 29 	ld32	r9,r9
     dfc:	00 00 01 10 	add	r8,r16
     e00:	20 70 03 e2 	movepc	rret,8
     e04:	14 30 fc 83 	br	10 <compare>,#al
     e08:	00 10 00 41 	add	r2,1
     e0c:	0d 40 21 0c 	wl16	r8,0x10c
     e10:	0d 60 01 03 	wh16	r8,0x3
     e14:	10 40 01 08 	ld32	r8,r8
     e18:	0d 42 52 0c 	wl16	r16,0x128c
     e1c:	0d 60 02 03 	wh16	r16,0x3
     e20:	10 40 02 10 	ld32	r16,r16
     e24:	0d 44 81 2c 	wl16	r9,0x240c
     e28:	0d 60 01 23 	wh16	r9,0x3
     e2c:	10 40 01 29 	ld32	r9,r9
     e30:	00 00 01 10 	add	r8,r16
     e34:	20 70 03 e2 	movepc	rret,8
     e38:	14 30 fc 76 	br	10 <compare>,#al
     e3c:	00 10 00 41 	add	r2,1
     e40:	0d 40 21 10 	wl16	r8,0x110
     e44:	0d 60 01 03 	wh16	r8,0x3
     e48:	10 40 01 08 	ld32	r8,r8
     e4c:	0d 42 52 10 	wl16	r16,0x1290
     e50:	0d 60 02 03 	wh16	r16,0x3
     e54:	10 40 02 10 	ld32	r16,r16
     e58:	0d 44 81 30 	wl16	r9,0x2410
     e5c:	0d 60 01 23 	wh16	r9,0x3
     e60:	10 40 01 29 	ld32	r9,r9
     e64:	00 00 01 10 	add	r8,r16
     e68:	20 70 03 e2 	movepc	rret,8
     e6c:	14 30 fc 69 	br	10 <compare>,#al
     e70:	00 10 00 41 	add	r2,1
     e74:	0d 40 21 14 	wl16	r8,0x114
     e78:	0d 60 01 03 	wh16	r8,0x3
     e7c:	10 40 01 08 	ld32	r8,r8
     e80:	0d 42 52 14 	wl16	r16,0x1294
     e84:	0d 60 02 03 	wh16	r16,0x3
     e88:	10 40 02 10 	ld32	r16,r16
     e8c:	0d 44 81 34 	wl16	r9,0x2414
     e90:	0d 60 01 23 	wh16	r9,0x3
     e94:	10 40 01 29 	ld32	r9,r9
     e98:	00 00 01 10 	add	r8,r16
     e9c:	20 70 03 e2 	movepc	rret,8
     ea0:	14 30 fc 5c 	br	10 <compare>,#al
     ea4:	00 10 00 41 	add	r2,1
     ea8:	0d 40 21 18 	wl16	r8,0x118
     eac:	0d 60 01 03 	wh16	r8,0x3
     eb0:	10 40 01 08 	ld32	r8,r8
     eb4:	0d 42 52 18 	wl16	r16,0x1298
     eb8:	0d 60 02 03 	wh16	r16,0x3
     ebc:	10 40 02 10 	ld32	r16,r16
     ec0:	0d 44 81 38 	wl16	r9,0x2418
     ec4:	0d 60 01 23 	wh16	r9,0x3
     ec8:	10 40 01 29 	ld32	r9,r9
     ecc:	00 00 01 10 	add	r8,r16
     ed0:	20 70 03 e2 	movepc	rret,8
     ed4:	14 30 fc 4f 	br	10 <compare>,#al
     ed8:	00 10 00 41 	add	r2,1
     edc:	0d 40 21 1c 	wl16	r8,0x11c
     ee0:	0d 60 01 03 	wh16	r8,0x3
     ee4:	10 40 01 08 	ld32	r8,r8
     ee8:	0d 42 52 1c 	wl16	r16,0x129c
     eec:	0d 60 02 03 	wh16	r16,0x3
     ef0:	10 40 02 10 	ld32	r16,r16
     ef4:	0d 44 81 3c 	wl16	r9,0x241c
     ef8:	0d 60 01 23 	wh16	r9,0x3
     efc:	10 40 01 29 	ld32	r9,r9
     f00:	00 00 01 10 	add	r8,r16
     f04:	20 70 03 e2 	movepc	rret,8
     f08:	14 30 fc 42 	br	10 <compare>,#al
     f0c:	00 10 00 41 	add	r2,1
     f10:	0d 40 25 00 	wl16	r8,0x120
     f14:	0d 60 01 03 	wh16	r8,0x3
     f18:	10 40 01 08 	ld32	r8,r8
     f1c:	0d 42 56 00 	wl16	r16,0x12a0
     f20:	0d 60 02 03 	wh16	r16,0x3
     f24:	10 40 02 10 	ld32	r16,r16
     f28:	0d 44 85 20 	wl16	r9,0x2420
     f2c:	0d 60 01 23 	wh16	r9,0x3
     f30:	10 40 01 29 	ld32	r9,r9
     f34:	00 00 01 10 	add	r8,r16
     f38:	20 70 03 e2 	movepc	rret,8
     f3c:	14 30 fc 35 	br	10 <compare>,#al
     f40:	00 10 00 41 	add	r2,1
     f44:	0d 40 25 04 	wl16	r8,0x124
     f48:	0d 60 01 03 	wh16	r8,0x3
     f4c:	10 40 01 08 	ld32	r8,r8
     f50:	0d 42 56 04 	wl16	r16,0x12a4
     f54:	0d 60 02 03 	wh16	r16,0x3
     f58:	10 40 02 10 	ld32	r16,r16
     f5c:	0d 44 85 24 	wl16	r9,0x2424
     f60:	0d 60 01 23 	wh16	r9,0x3
     f64:	10 40 01 29 	ld32	r9,r9
     f68:	00 00 01 10 	add	r8,r16
     f6c:	20 70 03 e2 	movepc	rret,8
     f70:	14 30 fc 28 	br	10 <compare>,#al
     f74:	00 10 00 41 	add	r2,1
     f78:	0d 40 25 08 	wl16	r8,0x128
     f7c:	0d 60 01 03 	wh16	r8,0x3
     f80:	10 40 01 08 	ld32	r8,r8
     f84:	0d 42 56 08 	wl16	r16,0x12a8
     f88:	0d 60 02 03 	wh16	r16,0x3
     f8c:	10 40 02 10 	ld32	r16,r16
     f90:	0d 44 85 28 	wl16	r9,0x2428
     f94:	0d 60 01 23 	wh16	r9,0x3
     f98:	10 40 01 29 	ld32	r9,r9
     f9c:	00 00 01 10 	add	r8,r16
     fa0:	20 70 03 e2 	movepc	rret,8
     fa4:	14 30 fc 1b 	br	10 <compare>,#al
     fa8:	00 10 00 41 	add	r2,1
     fac:	0d 40 25 0c 	wl16	r8,0x12c
     fb0:	0d 60 01 03 	wh16	r8,0x3
     fb4:	10 40 01 08 	ld32	r8,r8
     fb8:	0d 42 56 0c 	wl16	r16,0x12ac
     fbc:	0d 60 02 03 	wh16	r16,0x3
     fc0:	10 40 02 10 	ld32	r16,r16
     fc4:	0d 44 85 2c 	wl16	r9,0x242c
     fc8:	0d 60 01 23 	wh16	r9,0x3
     fcc:	10 40 01 29 	ld32	r9,r9
     fd0:	00 00 01 10 	add	r8,r16
     fd4:	20 70 03 e2 	movepc	rret,8
     fd8:	14 30 fc 0e 	br	10 <compare>,#al
     fdc:	00 10 00 41 	add	r2,1
     fe0:	0d 40 25 10 	wl16	r8,0x130
     fe4:	0d 60 01 03 	wh16	r8,0x3
     fe8:	10 40 01 08 	ld32	r8,r8
     fec:	0d 42 56 10 	wl16	r16,0x12b0
     ff0:	0d 60 02 03 	wh16	r16,0x3
     ff4:	10 40 02 10 	ld32	r16,r16
     ff8:	0d 44 85 30 	wl16	r9,0x2430
     ffc:	0d 60 01 23 	wh16	r9,0x3
    1000:	10 40 01 29 	ld32	r9,r9
    1004:	00 00 01 10 	add	r8,r16
    1008:	20 70 03 e2 	movepc	rret,8
    100c:	14 30 fc 01 	br	10 <compare>,#al
    1010:	00 10 00 41 	add	r2,1
    1014:	0d 40 25 14 	wl16	r8,0x134
    1018:	0d 60 01 03 	wh16	r8,0x3
    101c:	10 40 01 08 	ld32	r8,r8
    1020:	0d 42 56 14 	wl16	r16,0x12b4
    1024:	0d 60 02 03 	wh16	r16,0x3
    1028:	10 40 02 10 	ld32	r16,r16
    102c:	0d 44 85 34 	wl16	r9,0x2434
    1030:	0d 60 01 23 	wh16	r9,0x3
    1034:	10 40 01 29 	ld32	r9,r9
    1038:	00 00 01 10 	add	r8,r16
    103c:	20 70 03 e2 	movepc	rret,8
    1040:	14 30 fb f4 	br	10 <compare>,#al
    1044:	00 10 00 41 	add	r2,1
    1048:	0d 40 25 18 	wl16	r8,0x138
    104c:	0d 60 01 03 	wh16	r8,0x3
    1050:	10 40 01 08 	ld32	r8,r8
    1054:	0d 42 56 18 	wl16	r16,0x12b8
    1058:	0d 60 02 03 	wh16	r16,0x3
    105c:	10 40 02 10 	ld32	r16,r16
    1060:	0d 44 85 38 	wl16	r9,0x2438
    1064:	0d 60 01 23 	wh16	r9,0x3
    1068:	10 40 01 29 	ld32	r9,r9
    106c:	00 00 01 10 	add	r8,r16
    1070:	20 70 03 e2 	movepc	rret,8
    1074:	14 30 fb e7 	br	10 <compare>,#al
    1078:	00 10 00 41 	add	r2,1
    107c:	0d 40 25 1c 	wl16	r8,0x13c
    1080:	0d 60 01 03 	wh16	r8,0x3
    1084:	10 40 01 08 	ld32	r8,r8
    1088:	0d 42 56 1c 	wl16	r16,0x12bc
    108c:	0d 60 02 03 	wh16	r16,0x3
    1090:	10 40 02 10 	ld32	r16,r16
    1094:	0d 44 85 3c 	wl16	r9,0x243c
    1098:	0d 60 01 23 	wh16	r9,0x3
    109c:	10 40 01 29 	ld32	r9,r9
    10a0:	00 00 01 10 	add	r8,r16
    10a4:	20 70 03 e2 	movepc	rret,8
    10a8:	14 30 fb da 	br	10 <compare>,#al
    10ac:	00 10 00 41 	add	r2,1
    10b0:	0d 40 29 00 	wl16	r8,0x140
    10b4:	0d 60 01 03 	wh16	r8,0x3
    10b8:	10 40 01 08 	ld32	r8,r8
    10bc:	0d 42 5a 00 	wl16	r16,0x12c0
    10c0:	0d 60 02 03 	wh16	r16,0x3
    10c4:	10 40 02 10 	ld32	r16,r16
    10c8:	0d 44 89 20 	wl16	r9,0x2440
    10cc:	0d 60 01 23 	wh16	r9,0x3
    10d0:	10 40 01 29 	ld32	r9,r9
    10d4:	00 00 01 10 	add	r8,r16
    10d8:	20 70 03 e2 	movepc	rret,8
    10dc:	14 30 fb cd 	br	10 <compare>,#al
    10e0:	00 10 00 41 	add	r2,1
    10e4:	0d 40 29 04 	wl16	r8,0x144
    10e8:	0d 60 01 03 	wh16	r8,0x3
    10ec:	10 40 01 08 	ld32	r8,r8
    10f0:	0d 42 5a 04 	wl16	r16,0x12c4
    10f4:	0d 60 02 03 	wh16	r16,0x3
    10f8:	10 40 02 10 	ld32	r16,r16
    10fc:	0d 44 89 24 	wl16	r9,0x2444
    1100:	0d 60 01 23 	wh16	r9,0x3
    1104:	10 40 01 29 	ld32	r9,r9
    1108:	00 00 01 10 	add	r8,r16
    110c:	20 70 03 e2 	movepc	rret,8
    1110:	14 30 fb c0 	br	10 <compare>,#al
    1114:	00 10 00 41 	add	r2,1
    1118:	0d 40 29 08 	wl16	r8,0x148
    111c:	0d 60 01 03 	wh16	r8,0x3
    1120:	10 40 01 08 	ld32	r8,r8
    1124:	0d 42 5a 08 	wl16	r16,0x12c8
    1128:	0d 60 02 03 	wh16	r16,0x3
    112c:	10 40 02 10 	ld32	r16,r16
    1130:	0d 44 89 28 	wl16	r9,0x2448
    1134:	0d 60 01 23 	wh16	r9,0x3
    1138:	10 40 01 29 	ld32	r9,r9
    113c:	00 00 01 10 	add	r8,r16
    1140:	20 70 03 e2 	movepc	rret,8
    1144:	14 30 fb b3 	br	10 <compare>,#al
    1148:	00 10 00 41 	add	r2,1
    114c:	0d 40 29 0c 	wl16	r8,0x14c
    1150:	0d 60 01 03 	wh16	r8,0x3
    1154:	10 40 01 08 	ld32	r8,r8
    1158:	0d 42 5a 0c 	wl16	r16,0x12cc
    115c:	0d 60 02 03 	wh16	r16,0x3
    1160:	10 40 02 10 	ld32	r16,r16
    1164:	0d 44 89 2c 	wl16	r9,0x244c
    1168:	0d 60 01 23 	wh16	r9,0x3
    116c:	10 40 01 29 	ld32	r9,r9
    1170:	00 00 01 10 	add	r8,r16
    1174:	20 70 03 e2 	movepc	rret,8
    1178:	14 30 fb a6 	br	10 <compare>,#al
    117c:	00 10 00 41 	add	r2,1
    1180:	0d 40 29 10 	wl16	r8,0x150
    1184:	0d 60 01 03 	wh16	r8,0x3
    1188:	10 40 01 08 	ld32	r8,r8
    118c:	0d 42 5a 10 	wl16	r16,0x12d0
    1190:	0d 60 02 03 	wh16	r16,0x3
    1194:	10 40 02 10 	ld32	r16,r16
    1198:	0d 44 89 30 	wl16	r9,0x2450
    119c:	0d 60 01 23 	wh16	r9,0x3
    11a0:	10 40 01 29 	ld32	r9,r9
    11a4:	00 00 01 10 	add	r8,r16
    11a8:	20 70 03 e2 	movepc	rret,8
    11ac:	14 30 fb 99 	br	10 <compare>,#al
    11b0:	00 10 00 41 	add	r2,1
    11b4:	0d 40 29 14 	wl16	r8,0x154
    11b8:	0d 60 01 03 	wh16	r8,0x3
    11bc:	10 40 01 08 	ld32	r8,r8
    11c0:	0d 42 5a 14 	wl16	r16,0x12d4
    11c4:	0d 60 02 03 	wh16	r16,0x3
    11c8:	10 40 02 10 	ld32	r16,r16
    11cc:	0d 44 89 34 	wl16	r9,0x2454
    11d0:	0d 60 01 23 	wh16	r9,0x3
    11d4:	10 40 01 29 	ld32	r9,r9
    11d8:	00 00 01 10 	add	r8,r16
    11dc:	20 70 03 e2 	movepc	rret,8
    11e0:	14 30 fb 8c 	br	10 <compare>,#al
    11e4:	00 10 00 41 	add	r2,1
    11e8:	0d 40 29 18 	wl16	r8,0x158
    11ec:	0d 60 01 03 	wh16	r8,0x3
    11f0:	10 40 01 08 	ld32	r8,r8
    11f4:	0d 42 5a 18 	wl16	r16,0x12d8
    11f8:	0d 60 02 03 	wh16	r16,0x3
    11fc:	10 40 02 10 	ld32	r16,r16
    1200:	0d 44 89 38 	wl16	r9,0x2458
    1204:	0d 60 01 23 	wh16	r9,0x3
    1208:	10 40 01 29 	ld32	r9,r9
    120c:	00 00 01 10 	add	r8,r16
    1210:	20 70 03 e2 	movepc	rret,8
    1214:	14 30 fb 7f 	br	10 <compare>,#al
    1218:	00 10 00 41 	add	r2,1
    121c:	0d 40 29 1c 	wl16	r8,0x15c
    1220:	0d 60 01 03 	wh16	r8,0x3
    1224:	10 40 01 08 	ld32	r8,r8
    1228:	0d 42 5a 1c 	wl16	r16,0x12dc
    122c:	0d 60 02 03 	wh16	r16,0x3
    1230:	10 40 02 10 	ld32	r16,r16
    1234:	0d 44 89 3c 	wl16	r9,0x245c
    1238:	0d 60 01 23 	wh16	r9,0x3
    123c:	10 40 01 29 	ld32	r9,r9
    1240:	00 00 01 10 	add	r8,r16
    1244:	20 70 03 e2 	movepc	rret,8
    1248:	14 30 fb 72 	br	10 <compare>,#al
    124c:	00 10 00 41 	add	r2,1
    1250:	0d 40 2d 00 	wl16	r8,0x160
    1254:	0d 60 01 03 	wh16	r8,0x3
    1258:	10 40 01 08 	ld32	r8,r8
    125c:	0d 42 5e 00 	wl16	r16,0x12e0
    1260:	0d 60 02 03 	wh16	r16,0x3
    1264:	10 40 02 10 	ld32	r16,r16
    1268:	0d 44 8d 20 	wl16	r9,0x2460
    126c:	0d 60 01 23 	wh16	r9,0x3
    1270:	10 40 01 29 	ld32	r9,r9
    1274:	00 00 01 10 	add	r8,r16
    1278:	20 70 03 e2 	movepc	rret,8
    127c:	14 30 fb 65 	br	10 <compare>,#al
    1280:	00 10 00 41 	add	r2,1
    1284:	0d 40 2d 04 	wl16	r8,0x164
    1288:	0d 60 01 03 	wh16	r8,0x3
    128c:	10 40 01 08 	ld32	r8,r8
    1290:	0d 42 5e 04 	wl16	r16,0x12e4
    1294:	0d 60 02 03 	wh16	r16,0x3
    1298:	10 40 02 10 	ld32	r16,r16
    129c:	0d 44 8d 24 	wl16	r9,0x2464
    12a0:	0d 60 01 23 	wh16	r9,0x3
    12a4:	10 40 01 29 	ld32	r9,r9
    12a8:	00 00 01 10 	add	r8,r16
    12ac:	20 70 03 e2 	movepc	rret,8
    12b0:	14 30 fb 58 	br	10 <compare>,#al
    12b4:	00 10 00 41 	add	r2,1
    12b8:	0d 40 2d 08 	wl16	r8,0x168
    12bc:	0d 60 01 03 	wh16	r8,0x3
    12c0:	10 40 01 08 	ld32	r8,r8
    12c4:	0d 42 5e 08 	wl16	r16,0x12e8
    12c8:	0d 60 02 03 	wh16	r16,0x3
    12cc:	10 40 02 10 	ld32	r16,r16
    12d0:	0d 44 8d 28 	wl16	r9,0x2468
    12d4:	0d 60 01 23 	wh16	r9,0x3
    12d8:	10 40 01 29 	ld32	r9,r9
    12dc:	00 00 01 10 	add	r8,r16
    12e0:	20 70 03 e2 	movepc	rret,8
    12e4:	14 30 fb 4b 	br	10 <compare>,#al
    12e8:	00 10 00 41 	add	r2,1
    12ec:	0d 40 2d 0c 	wl16	r8,0x16c
    12f0:	0d 60 01 03 	wh16	r8,0x3
    12f4:	10 40 01 08 	ld32	r8,r8
    12f8:	0d 42 5e 0c 	wl16	r16,0x12ec
    12fc:	0d 60 02 03 	wh16	r16,0x3
    1300:	10 40 02 10 	ld32	r16,r16
    1304:	0d 44 8d 2c 	wl16	r9,0x246c
    1308:	0d 60 01 23 	wh16	r9,0x3
    130c:	10 40 01 29 	ld32	r9,r9
    1310:	00 00 01 10 	add	r8,r16
    1314:	20 70 03 e2 	movepc	rret,8
    1318:	14 30 fb 3e 	br	10 <compare>,#al
    131c:	00 10 00 41 	add	r2,1
    1320:	0d 40 2d 10 	wl16	r8,0x170
    1324:	0d 60 01 03 	wh16	r8,0x3
    1328:	10 40 01 08 	ld32	r8,r8
    132c:	0d 42 5e 10 	wl16	r16,0x12f0
    1330:	0d 60 02 03 	wh16	r16,0x3
    1334:	10 40 02 10 	ld32	r16,r16
    1338:	0d 44 8d 30 	wl16	r9,0x2470
    133c:	0d 60 01 23 	wh16	r9,0x3
    1340:	10 40 01 29 	ld32	r9,r9
    1344:	00 00 01 10 	add	r8,r16
    1348:	20 70 03 e2 	movepc	rret,8
    134c:	14 30 fb 31 	br	10 <compare>,#al
    1350:	00 10 00 41 	add	r2,1
    1354:	0d 40 2d 14 	wl16	r8,0x174
    1358:	0d 60 01 03 	wh16	r8,0x3
    135c:	10 40 01 08 	ld32	r8,r8
    1360:	0d 42 5e 14 	wl16	r16,0x12f4
    1364:	0d 60 02 03 	wh16	r16,0x3
    1368:	10 40 02 10 	ld32	r16,r16
    136c:	0d 44 8d 34 	wl16	r9,0x2474
    1370:	0d 60 01 23 	wh16	r9,0x3
    1374:	10 40 01 29 	ld32	r9,r9
    1378:	00 00 01 10 	add	r8,r16
    137c:	20 70 03 e2 	movepc	rret,8
    1380:	14 30 fb 24 	br	10 <compare>,#al
    1384:	00 10 00 41 	add	r2,1
    1388:	0d 40 2d 18 	wl16	r8,0x178
    138c:	0d 60 01 03 	wh16	r8,0x3
    1390:	10 40 01 08 	ld32	r8,r8
    1394:	0d 42 5e 18 	wl16	r16,0x12f8
    1398:	0d 60 02 03 	wh16	r16,0x3
    139c:	10 40 02 10 	ld32	r16,r16
    13a0:	0d 44 8d 38 	wl16	r9,0x2478
    13a4:	0d 60 01 23 	wh16	r9,0x3
    13a8:	10 40 01 29 	ld32	r9,r9
    13ac:	00 00 01 10 	add	r8,r16
    13b0:	20 70 03 e2 	movepc	rret,8
    13b4:	14 30 fb 17 	br	10 <compare>,#al
    13b8:	00 10 00 41 	add	r2,1
    13bc:	0d 40 2d 1c 	wl16	r8,0x17c
    13c0:	0d 60 01 03 	wh16	r8,0x3
    13c4:	10 40 01 08 	ld32	r8,r8
    13c8:	0d 42 5e 1c 	wl16	r16,0x12fc
    13cc:	0d 60 02 03 	wh16	r16,0x3
    13d0:	10 40 02 10 	ld32	r16,r16
    13d4:	0d 44 8d 3c 	wl16	r9,0x247c
    13d8:	0d 60 01 23 	wh16	r9,0x3
    13dc:	10 40 01 29 	ld32	r9,r9
    13e0:	00 00 01 10 	add	r8,r16
    13e4:	20 70 03 e2 	movepc	rret,8
    13e8:	14 30 fb 0a 	br	10 <compare>,#al
    13ec:	00 10 00 41 	add	r2,1
    13f0:	0d 40 31 00 	wl16	r8,0x180
    13f4:	0d 60 01 03 	wh16	r8,0x3
    13f8:	10 40 01 08 	ld32	r8,r8
    13fc:	0d 42 62 00 	wl16	r16,0x1300
    1400:	0d 60 02 03 	wh16	r16,0x3
    1404:	10 40 02 10 	ld32	r16,r16
    1408:	0d 44 91 20 	wl16	r9,0x2480
    140c:	0d 60 01 23 	wh16	r9,0x3
    1410:	10 40 01 29 	ld32	r9,r9
    1414:	00 00 01 10 	add	r8,r16
    1418:	20 70 03 e2 	movepc	rret,8
    141c:	14 30 fa fd 	br	10 <compare>,#al
    1420:	00 10 00 41 	add	r2,1
    1424:	0d 40 31 04 	wl16	r8,0x184
    1428:	0d 60 01 03 	wh16	r8,0x3
    142c:	10 40 01 08 	ld32	r8,r8
    1430:	0d 42 62 04 	wl16	r16,0x1304
    1434:	0d 60 02 03 	wh16	r16,0x3
    1438:	10 40 02 10 	ld32	r16,r16
    143c:	0d 44 91 24 	wl16	r9,0x2484
    1440:	0d 60 01 23 	wh16	r9,0x3
    1444:	10 40 01 29 	ld32	r9,r9
    1448:	00 00 01 10 	add	r8,r16
    144c:	20 70 03 e2 	movepc	rret,8
    1450:	14 30 fa f0 	br	10 <compare>,#al
    1454:	00 10 00 41 	add	r2,1
    1458:	0d 40 31 08 	wl16	r8,0x188
    145c:	0d 60 01 03 	wh16	r8,0x3
    1460:	10 40 01 08 	ld32	r8,r8
    1464:	0d 42 62 08 	wl16	r16,0x1308
    1468:	0d 60 02 03 	wh16	r16,0x3
    146c:	10 40 02 10 	ld32	r16,r16
    1470:	0d 44 91 28 	wl16	r9,0x2488
    1474:	0d 60 01 23 	wh16	r9,0x3
    1478:	10 40 01 29 	ld32	r9,r9
    147c:	00 00 01 10 	add	r8,r16
    1480:	20 70 03 e2 	movepc	rret,8
    1484:	14 30 fa e3 	br	10 <compare>,#al
    1488:	00 10 00 41 	add	r2,1
    148c:	0d 40 31 0c 	wl16	r8,0x18c
    1490:	0d 60 01 03 	wh16	r8,0x3
    1494:	10 40 01 08 	ld32	r8,r8
    1498:	0d 42 62 0c 	wl16	r16,0x130c
    149c:	0d 60 02 03 	wh16	r16,0x3
    14a0:	10 40 02 10 	ld32	r16,r16
    14a4:	0d 44 91 2c 	wl16	r9,0x248c
    14a8:	0d 60 01 23 	wh16	r9,0x3
    14ac:	10 40 01 29 	ld32	r9,r9
    14b0:	00 00 01 10 	add	r8,r16
    14b4:	20 70 03 e2 	movepc	rret,8
    14b8:	14 30 fa d6 	br	10 <compare>,#al
    14bc:	00 10 00 41 	add	r2,1
    14c0:	0d 40 31 10 	wl16	r8,0x190
    14c4:	0d 60 01 03 	wh16	r8,0x3
    14c8:	10 40 01 08 	ld32	r8,r8
    14cc:	0d 42 62 10 	wl16	r16,0x1310
    14d0:	0d 60 02 03 	wh16	r16,0x3
    14d4:	10 40 02 10 	ld32	r16,r16
    14d8:	0d 44 91 30 	wl16	r9,0x2490
    14dc:	0d 60 01 23 	wh16	r9,0x3
    14e0:	10 40 01 29 	ld32	r9,r9
    14e4:	00 00 01 10 	add	r8,r16
    14e8:	20 70 03 e2 	movepc	rret,8
    14ec:	14 30 fa c9 	br	10 <compare>,#al
    14f0:	00 10 00 41 	add	r2,1
    14f4:	0d 40 31 14 	wl16	r8,0x194
    14f8:	0d 60 01 03 	wh16	r8,0x3
    14fc:	10 40 01 08 	ld32	r8,r8
    1500:	0d 42 62 14 	wl16	r16,0x1314
    1504:	0d 60 02 03 	wh16	r16,0x3
    1508:	10 40 02 10 	ld32	r16,r16
    150c:	0d 44 91 34 	wl16	r9,0x2494
    1510:	0d 60 01 23 	wh16	r9,0x3
    1514:	10 40 01 29 	ld32	r9,r9
    1518:	00 00 01 10 	add	r8,r16
    151c:	20 70 03 e2 	movepc	rret,8
    1520:	14 30 fa bc 	br	10 <compare>,#al
    1524:	00 10 00 41 	add	r2,1
    1528:	0d 40 31 18 	wl16	r8,0x198
    152c:	0d 60 01 03 	wh16	r8,0x3
    1530:	10 40 01 08 	ld32	r8,r8
    1534:	0d 42 62 18 	wl16	r16,0x1318
    1538:	0d 60 02 03 	wh16	r16,0x3
    153c:	10 40 02 10 	ld32	r16,r16
    1540:	0d 44 91 38 	wl16	r9,0x2498
    1544:	0d 60 01 23 	wh16	r9,0x3
    1548:	10 40 01 29 	ld32	r9,r9
    154c:	00 00 01 10 	add	r8,r16
    1550:	20 70 03 e2 	movepc	rret,8
    1554:	14 30 fa af 	br	10 <compare>,#al
    1558:	00 10 00 41 	add	r2,1
    155c:	0d 40 31 1c 	wl16	r8,0x19c
    1560:	0d 60 01 03 	wh16	r8,0x3
    1564:	10 40 01 08 	ld32	r8,r8
    1568:	0d 42 62 1c 	wl16	r16,0x131c
    156c:	0d 60 02 03 	wh16	r16,0x3
    1570:	10 40 02 10 	ld32	r16,r16
    1574:	0d 44 91 3c 	wl16	r9,0x249c
    1578:	0d 60 01 23 	wh16	r9,0x3
    157c:	10 40 01 29 	ld32	r9,r9
    1580:	00 00 01 10 	add	r8,r16
    1584:	20 70 03 e2 	movepc	rret,8
    1588:	14 30 fa a2 	br	10 <compare>,#al
    158c:	00 10 00 41 	add	r2,1
    1590:	0d 40 35 00 	wl16	r8,0x1a0
    1594:	0d 60 01 03 	wh16	r8,0x3
    1598:	10 40 01 08 	ld32	r8,r8
    159c:	0d 42 66 00 	wl16	r16,0x1320
    15a0:	0d 60 02 03 	wh16	r16,0x3
    15a4:	10 40 02 10 	ld32	r16,r16
    15a8:	0d 44 95 20 	wl16	r9,0x24a0
    15ac:	0d 60 01 23 	wh16	r9,0x3
    15b0:	10 40 01 29 	ld32	r9,r9
    15b4:	00 00 01 10 	add	r8,r16
    15b8:	20 70 03 e2 	movepc	rret,8
    15bc:	14 30 fa 95 	br	10 <compare>,#al
    15c0:	00 10 00 41 	add	r2,1
    15c4:	0d 40 35 04 	wl16	r8,0x1a4
    15c8:	0d 60 01 03 	wh16	r8,0x3
    15cc:	10 40 01 08 	ld32	r8,r8
    15d0:	0d 42 66 04 	wl16	r16,0x1324
    15d4:	0d 60 02 03 	wh16	r16,0x3
    15d8:	10 40 02 10 	ld32	r16,r16
    15dc:	0d 44 95 24 	wl16	r9,0x24a4
    15e0:	0d 60 01 23 	wh16	r9,0x3
    15e4:	10 40 01 29 	ld32	r9,r9
    15e8:	00 00 01 10 	add	r8,r16
    15ec:	20 70 03 e2 	movepc	rret,8
    15f0:	14 30 fa 88 	br	10 <compare>,#al
    15f4:	00 10 00 41 	add	r2,1
    15f8:	0d 40 35 08 	wl16	r8,0x1a8
    15fc:	0d 60 01 03 	wh16	r8,0x3
    1600:	10 40 01 08 	ld32	r8,r8
    1604:	0d 42 66 08 	wl16	r16,0x1328
    1608:	0d 60 02 03 	wh16	r16,0x3
    160c:	10 40 02 10 	ld32	r16,r16
    1610:	0d 44 95 28 	wl16	r9,0x24a8
    1614:	0d 60 01 23 	wh16	r9,0x3
    1618:	10 40 01 29 	ld32	r9,r9
    161c:	00 00 01 10 	add	r8,r16
    1620:	20 70 03 e2 	movepc	rret,8
    1624:	14 30 fa 7b 	br	10 <compare>,#al
    1628:	00 10 00 41 	add	r2,1
    162c:	0d 40 35 0c 	wl16	r8,0x1ac
    1630:	0d 60 01 03 	wh16	r8,0x3
    1634:	10 40 01 08 	ld32	r8,r8
    1638:	0d 42 66 0c 	wl16	r16,0x132c
    163c:	0d 60 02 03 	wh16	r16,0x3
    1640:	10 40 02 10 	ld32	r16,r16
    1644:	0d 44 95 2c 	wl16	r9,0x24ac
    1648:	0d 60 01 23 	wh16	r9,0x3
    164c:	10 40 01 29 	ld32	r9,r9
    1650:	00 00 01 10 	add	r8,r16
    1654:	20 70 03 e2 	movepc	rret,8
    1658:	14 30 fa 6e 	br	10 <compare>,#al
    165c:	00 10 00 41 	add	r2,1
    1660:	0d 40 35 10 	wl16	r8,0x1b0
    1664:	0d 60 01 03 	wh16	r8,0x3
    1668:	10 40 01 08 	ld32	r8,r8
    166c:	0d 42 66 10 	wl16	r16,0x1330
    1670:	0d 60 02 03 	wh16	r16,0x3
    1674:	10 40 02 10 	ld32	r16,r16
    1678:	0d 44 95 30 	wl16	r9,0x24b0
    167c:	0d 60 01 23 	wh16	r9,0x3
    1680:	10 40 01 29 	ld32	r9,r9
    1684:	00 00 01 10 	add	r8,r16
    1688:	20 70 03 e2 	movepc	rret,8
    168c:	14 30 fa 61 	br	10 <compare>,#al
    1690:	00 10 00 41 	add	r2,1
    1694:	0d 40 35 14 	wl16	r8,0x1b4
    1698:	0d 60 01 03 	wh16	r8,0x3
    169c:	10 40 01 08 	ld32	r8,r8
    16a0:	0d 42 66 14 	wl16	r16,0x1334
    16a4:	0d 60 02 03 	wh16	r16,0x3
    16a8:	10 40 02 10 	ld32	r16,r16
    16ac:	0d 44 95 34 	wl16	r9,0x24b4
    16b0:	0d 60 01 23 	wh16	r9,0x3
    16b4:	10 40 01 29 	ld32	r9,r9
    16b8:	00 00 01 10 	add	r8,r16
    16bc:	20 70 03 e2 	movepc	rret,8
    16c0:	14 30 fa 54 	br	10 <compare>,#al
    16c4:	00 10 00 41 	add	r2,1
    16c8:	0d 40 35 18 	wl16	r8,0x1b8
    16cc:	0d 60 01 03 	wh16	r8,0x3
    16d0:	10 40 01 08 	ld32	r8,r8
    16d4:	0d 42 66 18 	wl16	r16,0x1338
    16d8:	0d 60 02 03 	wh16	r16,0x3
    16dc:	10 40 02 10 	ld32	r16,r16
    16e0:	0d 44 95 38 	wl16	r9,0x24b8
    16e4:	0d 60 01 23 	wh16	r9,0x3
    16e8:	10 40 01 29 	ld32	r9,r9
    16ec:	00 00 01 10 	add	r8,r16
    16f0:	20 70 03 e2 	movepc	rret,8
    16f4:	14 30 fa 47 	br	10 <compare>,#al
    16f8:	00 10 00 41 	add	r2,1
    16fc:	0d 40 35 1c 	wl16	r8,0x1bc
    1700:	0d 60 01 03 	wh16	r8,0x3
    1704:	10 40 01 08 	ld32	r8,r8
    1708:	0d 42 66 1c 	wl16	r16,0x133c
    170c:	0d 60 02 03 	wh16	r16,0x3
    1710:	10 40 02 10 	ld32	r16,r16
    1714:	0d 44 95 3c 	wl16	r9,0x24bc
    1718:	0d 60 01 23 	wh16	r9,0x3
    171c:	10 40 01 29 	ld32	r9,r9
    1720:	00 00 01 10 	add	r8,r16
    1724:	20 70 03 e2 	movepc	rret,8
    1728:	14 30 fa 3a 	br	10 <compare>,#al
    172c:	00 10 00 41 	add	r2,1
    1730:	0d 40 39 00 	wl16	r8,0x1c0
    1734:	0d 60 01 03 	wh16	r8,0x3
    1738:	10 40 01 08 	ld32	r8,r8
    173c:	0d 42 6a 00 	wl16	r16,0x1340
    1740:	0d 60 02 03 	wh16	r16,0x3
    1744:	10 40 02 10 	ld32	r16,r16
    1748:	0d 44 99 20 	wl16	r9,0x24c0
    174c:	0d 60 01 23 	wh16	r9,0x3
    1750:	10 40 01 29 	ld32	r9,r9
    1754:	00 00 01 10 	add	r8,r16
    1758:	20 70 03 e2 	movepc	rret,8
    175c:	14 30 fa 2d 	br	10 <compare>,#al
    1760:	00 10 00 41 	add	r2,1
    1764:	0d 40 39 04 	wl16	r8,0x1c4
    1768:	0d 60 01 03 	wh16	r8,0x3
    176c:	10 40 01 08 	ld32	r8,r8
    1770:	0d 42 6a 04 	wl16	r16,0x1344
    1774:	0d 60 02 03 	wh16	r16,0x3
    1778:	10 40 02 10 	ld32	r16,r16
    177c:	0d 44 99 24 	wl16	r9,0x24c4
    1780:	0d 60 01 23 	wh16	r9,0x3
    1784:	10 40 01 29 	ld32	r9,r9
    1788:	00 00 01 10 	add	r8,r16
    178c:	20 70 03 e2 	movepc	rret,8
    1790:	14 30 fa 20 	br	10 <compare>,#al
    1794:	00 10 00 41 	add	r2,1
    1798:	0d 40 39 08 	wl16	r8,0x1c8
    179c:	0d 60 01 03 	wh16	r8,0x3
    17a0:	10 40 01 08 	ld32	r8,r8
    17a4:	0d 42 6a 08 	wl16	r16,0x1348
    17a8:	0d 60 02 03 	wh16	r16,0x3
    17ac:	10 40 02 10 	ld32	r16,r16
    17b0:	0d 44 99 28 	wl16	r9,0x24c8
    17b4:	0d 60 01 23 	wh16	r9,0x3
    17b8:	10 40 01 29 	ld32	r9,r9
    17bc:	00 00 01 10 	add	r8,r16
    17c0:	20 70 03 e2 	movepc	rret,8
    17c4:	14 30 fa 13 	br	10 <compare>,#al
    17c8:	00 10 00 41 	add	r2,1
    17cc:	0d 40 39 0c 	wl16	r8,0x1cc
    17d0:	0d 60 01 03 	wh16	r8,0x3
    17d4:	10 40 01 08 	ld32	r8,r8
    17d8:	0d 42 6a 0c 	wl16	r16,0x134c
    17dc:	0d 60 02 03 	wh16	r16,0x3
    17e0:	10 40 02 10 	ld32	r16,r16
    17e4:	0d 44 99 2c 	wl16	r9,0x24cc
    17e8:	0d 60 01 23 	wh16	r9,0x3
    17ec:	10 40 01 29 	ld32	r9,r9
    17f0:	00 00 01 10 	add	r8,r16
    17f4:	20 70 03 e2 	movepc	rret,8
    17f8:	14 30 fa 06 	br	10 <compare>,#al
    17fc:	00 10 00 41 	add	r2,1
    1800:	0d 40 39 10 	wl16	r8,0x1d0
    1804:	0d 60 01 03 	wh16	r8,0x3
    1808:	10 40 01 08 	ld32	r8,r8
    180c:	0d 42 6a 10 	wl16	r16,0x1350
    1810:	0d 60 02 03 	wh16	r16,0x3
    1814:	10 40 02 10 	ld32	r16,r16
    1818:	0d 44 99 30 	wl16	r9,0x24d0
    181c:	0d 60 01 23 	wh16	r9,0x3
    1820:	10 40 01 29 	ld32	r9,r9
    1824:	00 00 01 10 	add	r8,r16
    1828:	20 70 03 e2 	movepc	rret,8
    182c:	14 30 f9 f9 	br	10 <compare>,#al
    1830:	00 10 00 41 	add	r2,1
    1834:	0d 40 39 14 	wl16	r8,0x1d4
    1838:	0d 60 01 03 	wh16	r8,0x3
    183c:	10 40 01 08 	ld32	r8,r8
    1840:	0d 42 6a 14 	wl16	r16,0x1354
    1844:	0d 60 02 03 	wh16	r16,0x3
    1848:	10 40 02 10 	ld32	r16,r16
    184c:	0d 44 99 34 	wl16	r9,0x24d4
    1850:	0d 60 01 23 	wh16	r9,0x3
    1854:	10 40 01 29 	ld32	r9,r9
    1858:	00 00 01 10 	add	r8,r16
    185c:	20 70 03 e2 	movepc	rret,8
    1860:	14 30 f9 ec 	br	10 <compare>,#al
    1864:	00 10 00 41 	add	r2,1
    1868:	0d 40 39 18 	wl16	r8,0x1d8
    186c:	0d 60 01 03 	wh16	r8,0x3
    1870:	10 40 01 08 	ld32	r8,r8
    1874:	0d 42 6a 18 	wl16	r16,0x1358
    1878:	0d 60 02 03 	wh16	r16,0x3
    187c:	10 40 02 10 	ld32	r16,r16
    1880:	0d 44 99 38 	wl16	r9,0x24d8
    1884:	0d 60 01 23 	wh16	r9,0x3
    1888:	10 40 01 29 	ld32	r9,r9
    188c:	00 00 01 10 	add	r8,r16
    1890:	20 70 03 e2 	movepc	rret,8
    1894:	14 30 f9 df 	br	10 <compare>,#al
    1898:	00 10 00 41 	add	r2,1
    189c:	0d 40 39 1c 	wl16	r8,0x1dc
    18a0:	0d 60 01 03 	wh16	r8,0x3
    18a4:	10 40 01 08 	ld32	r8,r8
    18a8:	0d 42 6a 1c 	wl16	r16,0x135c
    18ac:	0d 60 02 03 	wh16	r16,0x3
    18b0:	10 40 02 10 	ld32	r16,r16
    18b4:	0d 44 99 3c 	wl16	r9,0x24dc
    18b8:	0d 60 01 23 	wh16	r9,0x3
    18bc:	10 40 01 29 	ld32	r9,r9
    18c0:	00 00 01 10 	add	r8,r16
    18c4:	20 70 03 e2 	movepc	rret,8
    18c8:	14 30 f9 d2 	br	10 <compare>,#al
    18cc:	00 10 00 41 	add	r2,1
    18d0:	0d 40 3d 00 	wl16	r8,0x1e0
    18d4:	0d 60 01 03 	wh16	r8,0x3
    18d8:	10 40 01 08 	ld32	r8,r8
    18dc:	0d 42 6e 00 	wl16	r16,0x1360
    18e0:	0d 60 02 03 	wh16	r16,0x3
    18e4:	10 40 02 10 	ld32	r16,r16
    18e8:	0d 44 9d 20 	wl16	r9,0x24e0
    18ec:	0d 60 01 23 	wh16	r9,0x3
    18f0:	10 40 01 29 	ld32	r9,r9
    18f4:	00 00 01 10 	add	r8,r16
    18f8:	20 70 03 e2 	movepc	rret,8
    18fc:	14 30 f9 c5 	br	10 <compare>,#al
    1900:	00 10 00 41 	add	r2,1
    1904:	0d 40 3d 04 	wl16	r8,0x1e4
    1908:	0d 60 01 03 	wh16	r8,0x3
    190c:	10 40 01 08 	ld32	r8,r8
    1910:	0d 42 6e 04 	wl16	r16,0x1364
    1914:	0d 60 02 03 	wh16	r16,0x3
    1918:	10 40 02 10 	ld32	r16,r16
    191c:	0d 44 9d 24 	wl16	r9,0x24e4
    1920:	0d 60 01 23 	wh16	r9,0x3
    1924:	10 40 01 29 	ld32	r9,r9
    1928:	00 00 01 10 	add	r8,r16
    192c:	20 70 03 e2 	movepc	rret,8
    1930:	14 30 f9 b8 	br	10 <compare>,#al
    1934:	00 10 00 41 	add	r2,1
    1938:	0d 40 3d 08 	wl16	r8,0x1e8
    193c:	0d 60 01 03 	wh16	r8,0x3
    1940:	10 40 01 08 	ld32	r8,r8
    1944:	0d 42 6e 08 	wl16	r16,0x1368
    1948:	0d 60 02 03 	wh16	r16,0x3
    194c:	10 40 02 10 	ld32	r16,r16
    1950:	0d 44 9d 28 	wl16	r9,0x24e8
    1954:	0d 60 01 23 	wh16	r9,0x3
    1958:	10 40 01 29 	ld32	r9,r9
    195c:	00 00 01 10 	add	r8,r16
    1960:	20 70 03 e2 	movepc	rret,8
    1964:	14 30 f9 ab 	br	10 <compare>,#al
    1968:	00 10 00 41 	add	r2,1
    196c:	0d 40 3d 0c 	wl16	r8,0x1ec
    1970:	0d 60 01 03 	wh16	r8,0x3
    1974:	10 40 01 08 	ld32	r8,r8
    1978:	0d 42 6e 0c 	wl16	r16,0x136c
    197c:	0d 60 02 03 	wh16	r16,0x3
    1980:	10 40 02 10 	ld32	r16,r16
    1984:	0d 44 9d 2c 	wl16	r9,0x24ec
    1988:	0d 60 01 23 	wh16	r9,0x3
    198c:	10 40 01 29 	ld32	r9,r9
    1990:	00 00 01 10 	add	r8,r16
    1994:	20 70 03 e2 	movepc	rret,8
    1998:	14 30 f9 9e 	br	10 <compare>,#al
    199c:	00 10 00 41 	add	r2,1
    19a0:	0d 40 3d 10 	wl16	r8,0x1f0
    19a4:	0d 60 01 03 	wh16	r8,0x3
    19a8:	10 40 01 08 	ld32	r8,r8
    19ac:	0d 42 6e 10 	wl16	r16,0x1370
    19b0:	0d 60 02 03 	wh16	r16,0x3
    19b4:	10 40 02 10 	ld32	r16,r16
    19b8:	0d 44 9d 30 	wl16	r9,0x24f0
    19bc:	0d 60 01 23 	wh16	r9,0x3
    19c0:	10 40 01 29 	ld32	r9,r9
    19c4:	00 00 01 10 	add	r8,r16
    19c8:	20 70 03 e2 	movepc	rret,8
    19cc:	14 30 f9 91 	br	10 <compare>,#al
    19d0:	00 10 00 41 	add	r2,1
    19d4:	0d 40 3d 14 	wl16	r8,0x1f4
    19d8:	0d 60 01 03 	wh16	r8,0x3
    19dc:	10 40 01 08 	ld32	r8,r8
    19e0:	0d 42 6e 14 	wl16	r16,0x1374
    19e4:	0d 60 02 03 	wh16	r16,0x3
    19e8:	10 40 02 10 	ld32	r16,r16
    19ec:	0d 44 9d 34 	wl16	r9,0x24f4
    19f0:	0d 60 01 23 	wh16	r9,0x3
    19f4:	10 40 01 29 	ld32	r9,r9
    19f8:	00 00 01 10 	add	r8,r16
    19fc:	20 70 03 e2 	movepc	rret,8
    1a00:	14 30 f9 84 	br	10 <compare>,#al
    1a04:	00 10 00 41 	add	r2,1
    1a08:	0d 40 3d 18 	wl16	r8,0x1f8
    1a0c:	0d 60 01 03 	wh16	r8,0x3
    1a10:	10 40 01 08 	ld32	r8,r8
    1a14:	0d 42 6e 18 	wl16	r16,0x1378
    1a18:	0d 60 02 03 	wh16	r16,0x3
    1a1c:	10 40 02 10 	ld32	r16,r16
    1a20:	0d 44 9d 38 	wl16	r9,0x24f8
    1a24:	0d 60 01 23 	wh16	r9,0x3
    1a28:	10 40 01 29 	ld32	r9,r9
    1a2c:	00 00 01 10 	add	r8,r16
    1a30:	20 70 03 e2 	movepc	rret,8
    1a34:	14 30 f9 77 	br	10 <compare>,#al
    1a38:	00 10 00 41 	add	r2,1
    1a3c:	0d 40 3d 1c 	wl16	r8,0x1fc
    1a40:	0d 60 01 03 	wh16	r8,0x3
    1a44:	10 40 01 08 	ld32	r8,r8
    1a48:	0d 42 6e 1c 	wl16	r16,0x137c
    1a4c:	0d 60 02 03 	wh16	r16,0x3
    1a50:	10 40 02 10 	ld32	r16,r16
    1a54:	0d 44 9d 3c 	wl16	r9,0x24fc
    1a58:	0d 60 01 23 	wh16	r9,0x3
    1a5c:	10 40 01 29 	ld32	r9,r9
    1a60:	00 00 01 10 	add	r8,r16
    1a64:	20 70 03 e2 	movepc	rret,8
    1a68:	14 30 f9 6a 	br	10 <compare>,#al
    1a6c:	00 10 00 41 	add	r2,1
    1a70:	0d 40 41 00 	wl16	r8,0x200
    1a74:	0d 60 01 03 	wh16	r8,0x3
    1a78:	10 40 01 08 	ld32	r8,r8
    1a7c:	0d 42 72 00 	wl16	r16,0x1380
    1a80:	0d 60 02 03 	wh16	r16,0x3
    1a84:	10 40 02 10 	ld32	r16,r16
    1a88:	0d 44 a1 20 	wl16	r9,0x2500
    1a8c:	0d 60 01 23 	wh16	r9,0x3
    1a90:	10 40 01 29 	ld32	r9,r9
    1a94:	00 00 01 10 	add	r8,r16
    1a98:	20 70 03 e2 	movepc	rret,8
    1a9c:	14 30 f9 5d 	br	10 <compare>,#al
    1aa0:	00 10 00 41 	add	r2,1
    1aa4:	0d 40 41 04 	wl16	r8,0x204
    1aa8:	0d 60 01 03 	wh16	r8,0x3
    1aac:	10 40 01 08 	ld32	r8,r8
    1ab0:	0d 42 72 04 	wl16	r16,0x1384
    1ab4:	0d 60 02 03 	wh16	r16,0x3
    1ab8:	10 40 02 10 	ld32	r16,r16
    1abc:	0d 44 a1 24 	wl16	r9,0x2504
    1ac0:	0d 60 01 23 	wh16	r9,0x3
    1ac4:	10 40 01 29 	ld32	r9,r9
    1ac8:	00 00 01 10 	add	r8,r16
    1acc:	20 70 03 e2 	movepc	rret,8
    1ad0:	14 30 f9 50 	br	10 <compare>,#al
    1ad4:	00 10 00 41 	add	r2,1
    1ad8:	0d 40 41 08 	wl16	r8,0x208
    1adc:	0d 60 01 03 	wh16	r8,0x3
    1ae0:	10 40 01 08 	ld32	r8,r8
    1ae4:	0d 42 72 08 	wl16	r16,0x1388
    1ae8:	0d 60 02 03 	wh16	r16,0x3
    1aec:	10 40 02 10 	ld32	r16,r16
    1af0:	0d 44 a1 28 	wl16	r9,0x2508
    1af4:	0d 60 01 23 	wh16	r9,0x3
    1af8:	10 40 01 29 	ld32	r9,r9
    1afc:	00 00 01 10 	add	r8,r16
    1b00:	20 70 03 e2 	movepc	rret,8
    1b04:	14 30 f9 43 	br	10 <compare>,#al
    1b08:	00 10 00 41 	add	r2,1
    1b0c:	0d 40 41 0c 	wl16	r8,0x20c
    1b10:	0d 60 01 03 	wh16	r8,0x3
    1b14:	10 40 01 08 	ld32	r8,r8
    1b18:	0d 42 72 0c 	wl16	r16,0x138c
    1b1c:	0d 60 02 03 	wh16	r16,0x3
    1b20:	10 40 02 10 	ld32	r16,r16
    1b24:	0d 44 a1 2c 	wl16	r9,0x250c
    1b28:	0d 60 01 23 	wh16	r9,0x3
    1b2c:	10 40 01 29 	ld32	r9,r9
    1b30:	00 00 01 10 	add	r8,r16
    1b34:	20 70 03 e2 	movepc	rret,8
    1b38:	14 30 f9 36 	br	10 <compare>,#al
    1b3c:	00 10 00 41 	add	r2,1
    1b40:	0d 40 41 10 	wl16	r8,0x210
    1b44:	0d 60 01 03 	wh16	r8,0x3
    1b48:	10 40 01 08 	ld32	r8,r8
    1b4c:	0d 42 72 10 	wl16	r16,0x1390
    1b50:	0d 60 02 03 	wh16	r16,0x3
    1b54:	10 40 02 10 	ld32	r16,r16
    1b58:	0d 44 a1 30 	wl16	r9,0x2510
    1b5c:	0d 60 01 23 	wh16	r9,0x3
    1b60:	10 40 01 29 	ld32	r9,r9
    1b64:	00 00 01 10 	add	r8,r16
    1b68:	20 70 03 e2 	movepc	rret,8
    1b6c:	14 30 f9 29 	br	10 <compare>,#al
    1b70:	00 10 00 41 	add	r2,1
    1b74:	0d 40 41 14 	wl16	r8,0x214
    1b78:	0d 60 01 03 	wh16	r8,0x3
    1b7c:	10 40 01 08 	ld32	r8,r8
    1b80:	0d 42 72 14 	wl16	r16,0x1394
    1b84:	0d 60 02 03 	wh16	r16,0x3
    1b88:	10 40 02 10 	ld32	r16,r16
    1b8c:	0d 44 a1 34 	wl16	r9,0x2514
    1b90:	0d 60 01 23 	wh16	r9,0x3
    1b94:	10 40 01 29 	ld32	r9,r9
    1b98:	00 00 01 10 	add	r8,r16
    1b9c:	20 70 03 e2 	movepc	rret,8
    1ba0:	14 30 f9 1c 	br	10 <compare>,#al
    1ba4:	00 10 00 41 	add	r2,1
    1ba8:	0d 40 41 18 	wl16	r8,0x218
    1bac:	0d 60 01 03 	wh16	r8,0x3
    1bb0:	10 40 01 08 	ld32	r8,r8
    1bb4:	0d 42 72 18 	wl16	r16,0x1398
    1bb8:	0d 60 02 03 	wh16	r16,0x3
    1bbc:	10 40 02 10 	ld32	r16,r16
    1bc0:	0d 44 a1 38 	wl16	r9,0x2518
    1bc4:	0d 60 01 23 	wh16	r9,0x3
    1bc8:	10 40 01 29 	ld32	r9,r9
    1bcc:	00 00 01 10 	add	r8,r16
    1bd0:	20 70 03 e2 	movepc	rret,8
    1bd4:	14 30 f9 0f 	br	10 <compare>,#al
    1bd8:	00 10 00 41 	add	r2,1
    1bdc:	0d 40 41 1c 	wl16	r8,0x21c
    1be0:	0d 60 01 03 	wh16	r8,0x3
    1be4:	10 40 01 08 	ld32	r8,r8
    1be8:	0d 42 72 1c 	wl16	r16,0x139c
    1bec:	0d 60 02 03 	wh16	r16,0x3
    1bf0:	10 40 02 10 	ld32	r16,r16
    1bf4:	0d 44 a1 3c 	wl16	r9,0x251c
    1bf8:	0d 60 01 23 	wh16	r9,0x3
    1bfc:	10 40 01 29 	ld32	r9,r9
    1c00:	00 00 01 10 	add	r8,r16
    1c04:	20 70 03 e2 	movepc	rret,8
    1c08:	14 30 f9 02 	br	10 <compare>,#al
    1c0c:	00 10 00 41 	add	r2,1
    1c10:	0d 40 45 00 	wl16	r8,0x220
    1c14:	0d 60 01 03 	wh16	r8,0x3
    1c18:	10 40 01 08 	ld32	r8,r8
    1c1c:	0d 42 76 00 	wl16	r16,0x13a0
    1c20:	0d 60 02 03 	wh16	r16,0x3
    1c24:	10 40 02 10 	ld32	r16,r16
    1c28:	0d 44 a5 20 	wl16	r9,0x2520
    1c2c:	0d 60 01 23 	wh16	r9,0x3
    1c30:	10 40 01 29 	ld32	r9,r9
    1c34:	00 00 01 10 	add	r8,r16
    1c38:	20 70 03 e2 	movepc	rret,8
    1c3c:	14 30 f8 f5 	br	10 <compare>,#al
    1c40:	00 10 00 41 	add	r2,1
    1c44:	0d 40 45 04 	wl16	r8,0x224
    1c48:	0d 60 01 03 	wh16	r8,0x3
    1c4c:	10 40 01 08 	ld32	r8,r8
    1c50:	0d 42 76 04 	wl16	r16,0x13a4
    1c54:	0d 60 02 03 	wh16	r16,0x3
    1c58:	10 40 02 10 	ld32	r16,r16
    1c5c:	0d 44 a5 24 	wl16	r9,0x2524
    1c60:	0d 60 01 23 	wh16	r9,0x3
    1c64:	10 40 01 29 	ld32	r9,r9
    1c68:	00 00 01 10 	add	r8,r16
    1c6c:	20 70 03 e2 	movepc	rret,8
    1c70:	14 30 f8 e8 	br	10 <compare>,#al
    1c74:	00 10 00 41 	add	r2,1
    1c78:	0d 40 45 08 	wl16	r8,0x228
    1c7c:	0d 60 01 03 	wh16	r8,0x3
    1c80:	10 40 01 08 	ld32	r8,r8
    1c84:	0d 42 76 08 	wl16	r16,0x13a8
    1c88:	0d 60 02 03 	wh16	r16,0x3
    1c8c:	10 40 02 10 	ld32	r16,r16
    1c90:	0d 44 a5 28 	wl16	r9,0x2528
    1c94:	0d 60 01 23 	wh16	r9,0x3
    1c98:	10 40 01 29 	ld32	r9,r9
    1c9c:	00 00 01 10 	add	r8,r16
    1ca0:	20 70 03 e2 	movepc	rret,8
    1ca4:	14 30 f8 db 	br	10 <compare>,#al
    1ca8:	00 10 00 41 	add	r2,1
    1cac:	0d 40 45 0c 	wl16	r8,0x22c
    1cb0:	0d 60 01 03 	wh16	r8,0x3
    1cb4:	10 40 01 08 	ld32	r8,r8
    1cb8:	0d 42 76 0c 	wl16	r16,0x13ac
    1cbc:	0d 60 02 03 	wh16	r16,0x3
    1cc0:	10 40 02 10 	ld32	r16,r16
    1cc4:	0d 44 a5 2c 	wl16	r9,0x252c
    1cc8:	0d 60 01 23 	wh16	r9,0x3
    1ccc:	10 40 01 29 	ld32	r9,r9
    1cd0:	00 00 01 10 	add	r8,r16
    1cd4:	20 70 03 e2 	movepc	rret,8
    1cd8:	14 30 f8 ce 	br	10 <compare>,#al
    1cdc:	00 10 00 41 	add	r2,1
    1ce0:	0d 40 45 10 	wl16	r8,0x230
    1ce4:	0d 60 01 03 	wh16	r8,0x3
    1ce8:	10 40 01 08 	ld32	r8,r8
    1cec:	0d 42 76 10 	wl16	r16,0x13b0
    1cf0:	0d 60 02 03 	wh16	r16,0x3
    1cf4:	10 40 02 10 	ld32	r16,r16
    1cf8:	0d 44 a5 30 	wl16	r9,0x2530
    1cfc:	0d 60 01 23 	wh16	r9,0x3
    1d00:	10 40 01 29 	ld32	r9,r9
    1d04:	00 00 01 10 	add	r8,r16
    1d08:	20 70 03 e2 	movepc	rret,8
    1d0c:	14 30 f8 c1 	br	10 <compare>,#al
    1d10:	00 10 00 41 	add	r2,1
    1d14:	0d 40 45 14 	wl16	r8,0x234
    1d18:	0d 60 01 03 	wh16	r8,0x3
    1d1c:	10 40 01 08 	ld32	r8,r8
    1d20:	0d 42 76 14 	wl16	r16,0x13b4
    1d24:	0d 60 02 03 	wh16	r16,0x3
    1d28:	10 40 02 10 	ld32	r16,r16
    1d2c:	0d 44 a5 34 	wl16	r9,0x2534
    1d30:	0d 60 01 23 	wh16	r9,0x3
    1d34:	10 40 01 29 	ld32	r9,r9
    1d38:	00 00 01 10 	add	r8,r16
    1d3c:	20 70 03 e2 	movepc	rret,8
    1d40:	14 30 f8 b4 	br	10 <compare>,#al
    1d44:	00 10 00 41 	add	r2,1
    1d48:	0d 40 45 18 	wl16	r8,0x238
    1d4c:	0d 60 01 03 	wh16	r8,0x3
    1d50:	10 40 01 08 	ld32	r8,r8
    1d54:	0d 42 76 18 	wl16	r16,0x13b8
    1d58:	0d 60 02 03 	wh16	r16,0x3
    1d5c:	10 40 02 10 	ld32	r16,r16
    1d60:	0d 44 a5 38 	wl16	r9,0x2538
    1d64:	0d 60 01 23 	wh16	r9,0x3
    1d68:	10 40 01 29 	ld32	r9,r9
    1d6c:	00 00 01 10 	add	r8,r16
    1d70:	20 70 03 e2 	movepc	rret,8
    1d74:	14 30 f8 a7 	br	10 <compare>,#al
    1d78:	00 10 00 41 	add	r2,1
    1d7c:	0d 40 45 1c 	wl16	r8,0x23c
    1d80:	0d 60 01 03 	wh16	r8,0x3
    1d84:	10 40 01 08 	ld32	r8,r8
    1d88:	0d 42 76 1c 	wl16	r16,0x13bc
    1d8c:	0d 60 02 03 	wh16	r16,0x3
    1d90:	10 40 02 10 	ld32	r16,r16
    1d94:	0d 44 a5 3c 	wl16	r9,0x253c
    1d98:	0d 60 01 23 	wh16	r9,0x3
    1d9c:	10 40 01 29 	ld32	r9,r9
    1da0:	00 00 01 10 	add	r8,r16
    1da4:	20 70 03 e2 	movepc	rret,8
    1da8:	14 30 f8 9a 	br	10 <compare>,#al
    1dac:	00 10 00 41 	add	r2,1
    1db0:	0d 40 49 00 	wl16	r8,0x240
    1db4:	0d 60 01 03 	wh16	r8,0x3
    1db8:	10 40 01 08 	ld32	r8,r8
    1dbc:	0d 42 7a 00 	wl16	r16,0x13c0
    1dc0:	0d 60 02 03 	wh16	r16,0x3
    1dc4:	10 40 02 10 	ld32	r16,r16
    1dc8:	0d 44 a9 20 	wl16	r9,0x2540
    1dcc:	0d 60 01 23 	wh16	r9,0x3
    1dd0:	10 40 01 29 	ld32	r9,r9
    1dd4:	00 00 01 10 	add	r8,r16
    1dd8:	20 70 03 e2 	movepc	rret,8
    1ddc:	14 30 f8 8d 	br	10 <compare>,#al
    1de0:	00 10 00 41 	add	r2,1
    1de4:	0d 40 49 04 	wl16	r8,0x244
    1de8:	0d 60 01 03 	wh16	r8,0x3
    1dec:	10 40 01 08 	ld32	r8,r8
    1df0:	0d 42 7a 04 	wl16	r16,0x13c4
    1df4:	0d 60 02 03 	wh16	r16,0x3
    1df8:	10 40 02 10 	ld32	r16,r16
    1dfc:	0d 44 a9 24 	wl16	r9,0x2544
    1e00:	0d 60 01 23 	wh16	r9,0x3
    1e04:	10 40 01 29 	ld32	r9,r9
    1e08:	00 00 01 10 	add	r8,r16
    1e0c:	20 70 03 e2 	movepc	rret,8
    1e10:	14 30 f8 80 	br	10 <compare>,#al
    1e14:	00 10 00 41 	add	r2,1
    1e18:	0d 40 49 08 	wl16	r8,0x248
    1e1c:	0d 60 01 03 	wh16	r8,0x3
    1e20:	10 40 01 08 	ld32	r8,r8
    1e24:	0d 42 7a 08 	wl16	r16,0x13c8
    1e28:	0d 60 02 03 	wh16	r16,0x3
    1e2c:	10 40 02 10 	ld32	r16,r16
    1e30:	0d 44 a9 28 	wl16	r9,0x2548
    1e34:	0d 60 01 23 	wh16	r9,0x3
    1e38:	10 40 01 29 	ld32	r9,r9
    1e3c:	00 00 01 10 	add	r8,r16
    1e40:	20 70 03 e2 	movepc	rret,8
    1e44:	14 30 f8 73 	br	10 <compare>,#al
    1e48:	00 10 00 41 	add	r2,1
    1e4c:	0d 40 49 0c 	wl16	r8,0x24c
    1e50:	0d 60 01 03 	wh16	r8,0x3
    1e54:	10 40 01 08 	ld32	r8,r8
    1e58:	0d 42 7a 0c 	wl16	r16,0x13cc
    1e5c:	0d 60 02 03 	wh16	r16,0x3
    1e60:	10 40 02 10 	ld32	r16,r16
    1e64:	0d 44 a9 2c 	wl16	r9,0x254c
    1e68:	0d 60 01 23 	wh16	r9,0x3
    1e6c:	10 40 01 29 	ld32	r9,r9
    1e70:	00 00 01 10 	add	r8,r16
    1e74:	20 70 03 e2 	movepc	rret,8
    1e78:	14 30 f8 66 	br	10 <compare>,#al
    1e7c:	00 10 00 41 	add	r2,1
    1e80:	0d 40 49 10 	wl16	r8,0x250
    1e84:	0d 60 01 03 	wh16	r8,0x3
    1e88:	10 40 01 08 	ld32	r8,r8
    1e8c:	0d 42 7a 10 	wl16	r16,0x13d0
    1e90:	0d 60 02 03 	wh16	r16,0x3
    1e94:	10 40 02 10 	ld32	r16,r16
    1e98:	0d 44 a9 30 	wl16	r9,0x2550
    1e9c:	0d 60 01 23 	wh16	r9,0x3
    1ea0:	10 40 01 29 	ld32	r9,r9
    1ea4:	00 00 01 10 	add	r8,r16
    1ea8:	20 70 03 e2 	movepc	rret,8
    1eac:	14 30 f8 59 	br	10 <compare>,#al
    1eb0:	00 10 00 41 	add	r2,1
    1eb4:	0d 40 49 14 	wl16	r8,0x254
    1eb8:	0d 60 01 03 	wh16	r8,0x3
    1ebc:	10 40 01 08 	ld32	r8,r8
    1ec0:	0d 42 7a 14 	wl16	r16,0x13d4
    1ec4:	0d 60 02 03 	wh16	r16,0x3
    1ec8:	10 40 02 10 	ld32	r16,r16
    1ecc:	0d 44 a9 34 	wl16	r9,0x2554
    1ed0:	0d 60 01 23 	wh16	r9,0x3
    1ed4:	10 40 01 29 	ld32	r9,r9
    1ed8:	00 00 01 10 	add	r8,r16
    1edc:	20 70 03 e2 	movepc	rret,8
    1ee0:	14 30 f8 4c 	br	10 <compare>,#al
    1ee4:	00 10 00 41 	add	r2,1
    1ee8:	0d 40 49 18 	wl16	r8,0x258
    1eec:	0d 60 01 03 	wh16	r8,0x3
    1ef0:	10 40 01 08 	ld32	r8,r8
    1ef4:	0d 42 7a 18 	wl16	r16,0x13d8
    1ef8:	0d 60 02 03 	wh16	r16,0x3
    1efc:	10 40 02 10 	ld32	r16,r16
    1f00:	0d 44 a9 38 	wl16	r9,0x2558
    1f04:	0d 60 01 23 	wh16	r9,0x3
    1f08:	10 40 01 29 	ld32	r9,r9
    1f0c:	00 00 01 10 	add	r8,r16
    1f10:	20 70 03 e2 	movepc	rret,8
    1f14:	14 30 f8 3f 	br	10 <compare>,#al
    1f18:	00 10 00 41 	add	r2,1
    1f1c:	0d 40 49 1c 	wl16	r8,0x25c
    1f20:	0d 60 01 03 	wh16	r8,0x3
    1f24:	10 40 01 08 	ld32	r8,r8
    1f28:	0d 42 7a 1c 	wl16	r16,0x13dc
    1f2c:	0d 60 02 03 	wh16	r16,0x3
    1f30:	10 40 02 10 	ld32	r16,r16
    1f34:	0d 44 a9 3c 	wl16	r9,0x255c
    1f38:	0d 60 01 23 	wh16	r9,0x3
    1f3c:	10 40 01 29 	ld32	r9,r9
    1f40:	00 00 01 10 	add	r8,r16
    1f44:	20 70 03 e2 	movepc	rret,8
    1f48:	14 30 f8 32 	br	10 <compare>,#al
    1f4c:	00 10 00 41 	add	r2,1
    1f50:	0d 40 4d 00 	wl16	r8,0x260
    1f54:	0d 60 01 03 	wh16	r8,0x3
    1f58:	10 40 01 08 	ld32	r8,r8
    1f5c:	0d 42 7e 00 	wl16	r16,0x13e0
    1f60:	0d 60 02 03 	wh16	r16,0x3
    1f64:	10 40 02 10 	ld32	r16,r16
    1f68:	0d 44 ad 20 	wl16	r9,0x2560
    1f6c:	0d 60 01 23 	wh16	r9,0x3
    1f70:	10 40 01 29 	ld32	r9,r9
    1f74:	00 00 01 10 	add	r8,r16
    1f78:	20 70 03 e2 	movepc	rret,8
    1f7c:	14 30 f8 25 	br	10 <compare>,#al
    1f80:	00 10 00 41 	add	r2,1
    1f84:	0d 40 4d 04 	wl16	r8,0x264
    1f88:	0d 60 01 03 	wh16	r8,0x3
    1f8c:	10 40 01 08 	ld32	r8,r8
    1f90:	0d 42 7e 04 	wl16	r16,0x13e4
    1f94:	0d 60 02 03 	wh16	r16,0x3
    1f98:	10 40 02 10 	ld32	r16,r16
    1f9c:	0d 44 ad 24 	wl16	r9,0x2564
    1fa0:	0d 60 01 23 	wh16	r9,0x3
    1fa4:	10 40 01 29 	ld32	r9,r9
    1fa8:	00 00 01 10 	add	r8,r16
    1fac:	20 70 03 e2 	movepc	rret,8
    1fb0:	14 30 f8 18 	br	10 <compare>,#al
    1fb4:	00 10 00 41 	add	r2,1
    1fb8:	0d 40 4d 08 	wl16	r8,0x268
    1fbc:	0d 60 01 03 	wh16	r8,0x3
    1fc0:	10 40 01 08 	ld32	r8,r8
    1fc4:	0d 42 7e 08 	wl16	r16,0x13e8
    1fc8:	0d 60 02 03 	wh16	r16,0x3
    1fcc:	10 40 02 10 	ld32	r16,r16
    1fd0:	0d 44 ad 28 	wl16	r9,0x2568
    1fd4:	0d 60 01 23 	wh16	r9,0x3
    1fd8:	10 40 01 29 	ld32	r9,r9
    1fdc:	00 00 01 10 	add	r8,r16
    1fe0:	20 70 03 e2 	movepc	rret,8
    1fe4:	14 30 f8 0b 	br	10 <compare>,#al
    1fe8:	00 10 00 41 	add	r2,1
    1fec:	0d 40 4d 0c 	wl16	r8,0x26c
    1ff0:	0d 60 01 03 	wh16	r8,0x3
    1ff4:	10 40 01 08 	ld32	r8,r8
    1ff8:	0d 42 7e 0c 	wl16	r16,0x13ec
    1ffc:	0d 60 02 03 	wh16	r16,0x3
    2000:	10 40 02 10 	ld32	r16,r16
    2004:	0d 44 ad 2c 	wl16	r9,0x256c
    2008:	0d 60 01 23 	wh16	r9,0x3
    200c:	10 40 01 29 	ld32	r9,r9
    2010:	00 00 01 10 	add	r8,r16
    2014:	20 70 03 e2 	movepc	rret,8
    2018:	14 30 f7 fe 	br	10 <compare>,#al
    201c:	00 10 00 41 	add	r2,1
    2020:	0d 40 4d 10 	wl16	r8,0x270
    2024:	0d 60 01 03 	wh16	r8,0x3
    2028:	10 40 01 08 	ld32	r8,r8
    202c:	0d 42 7e 10 	wl16	r16,0x13f0
    2030:	0d 60 02 03 	wh16	r16,0x3
    2034:	10 40 02 10 	ld32	r16,r16
    2038:	0d 44 ad 30 	wl16	r9,0x2570
    203c:	0d 60 01 23 	wh16	r9,0x3
    2040:	10 40 01 29 	ld32	r9,r9
    2044:	00 00 01 10 	add	r8,r16
    2048:	20 70 03 e2 	movepc	rret,8
    204c:	14 30 f7 f1 	br	10 <compare>,#al
    2050:	00 10 00 41 	add	r2,1
    2054:	0d 40 4d 14 	wl16	r8,0x274
    2058:	0d 60 01 03 	wh16	r8,0x3
    205c:	10 40 01 08 	ld32	r8,r8
    2060:	0d 42 7e 14 	wl16	r16,0x13f4
    2064:	0d 60 02 03 	wh16	r16,0x3
    2068:	10 40 02 10 	ld32	r16,r16
    206c:	0d 44 ad 34 	wl16	r9,0x2574
    2070:	0d 60 01 23 	wh16	r9,0x3
    2074:	10 40 01 29 	ld32	r9,r9
    2078:	00 00 01 10 	add	r8,r16
    207c:	20 70 03 e2 	movepc	rret,8
    2080:	14 30 f7 e4 	br	10 <compare>,#al
    2084:	00 10 00 41 	add	r2,1
    2088:	0d 40 4d 18 	wl16	r8,0x278
    208c:	0d 60 01 03 	wh16	r8,0x3
    2090:	10 40 01 08 	ld32	r8,r8
    2094:	0d 42 7e 18 	wl16	r16,0x13f8
    2098:	0d 60 02 03 	wh16	r16,0x3
    209c:	10 40 02 10 	ld32	r16,r16
    20a0:	0d 44 ad 38 	wl16	r9,0x2578
    20a4:	0d 60 01 23 	wh16	r9,0x3
    20a8:	10 40 01 29 	ld32	r9,r9
    20ac:	00 00 01 10 	add	r8,r16
    20b0:	20 70 03 e2 	movepc	rret,8
    20b4:	14 30 f7 d7 	br	10 <compare>,#al
    20b8:	00 10 00 41 	add	r2,1
    20bc:	0d 40 4d 1c 	wl16	r8,0x27c
    20c0:	0d 60 01 03 	wh16	r8,0x3
    20c4:	10 40 01 08 	ld32	r8,r8
    20c8:	0d 42 7e 1c 	wl16	r16,0x13fc
    20cc:	0d 60 02 03 	wh16	r16,0x3
    20d0:	10 40 02 10 	ld32	r16,r16
    20d4:	0d 44 ad 3c 	wl16	r9,0x257c
    20d8:	0d 60 01 23 	wh16	r9,0x3
    20dc:	10 40 01 29 	ld32	r9,r9
    20e0:	00 00 01 10 	add	r8,r16
    20e4:	20 70 03 e2 	movepc	rret,8
    20e8:	14 30 f7 ca 	br	10 <compare>,#al
    20ec:	00 10 00 41 	add	r2,1
    20f0:	0d 40 51 00 	wl16	r8,0x280
    20f4:	0d 60 01 03 	wh16	r8,0x3
    20f8:	10 40 01 08 	ld32	r8,r8
    20fc:	0d 42 82 00 	wl16	r16,0x1400
    2100:	0d 60 02 03 	wh16	r16,0x3
    2104:	10 40 02 10 	ld32	r16,r16
    2108:	0d 44 b1 20 	wl16	r9,0x2580
    210c:	0d 60 01 23 	wh16	r9,0x3
    2110:	10 40 01 29 	ld32	r9,r9
    2114:	00 00 01 10 	add	r8,r16
    2118:	20 70 03 e2 	movepc	rret,8
    211c:	14 30 f7 bd 	br	10 <compare>,#al
    2120:	00 10 00 41 	add	r2,1
    2124:	0d 40 51 04 	wl16	r8,0x284
    2128:	0d 60 01 03 	wh16	r8,0x3
    212c:	10 40 01 08 	ld32	r8,r8
    2130:	0d 42 82 04 	wl16	r16,0x1404
    2134:	0d 60 02 03 	wh16	r16,0x3
    2138:	10 40 02 10 	ld32	r16,r16
    213c:	0d 44 b1 24 	wl16	r9,0x2584
    2140:	0d 60 01 23 	wh16	r9,0x3
    2144:	10 40 01 29 	ld32	r9,r9
    2148:	00 00 01 10 	add	r8,r16
    214c:	20 70 03 e2 	movepc	rret,8
    2150:	14 30 f7 b0 	br	10 <compare>,#al
    2154:	00 10 00 41 	add	r2,1
    2158:	0d 40 51 08 	wl16	r8,0x288
    215c:	0d 60 01 03 	wh16	r8,0x3
    2160:	10 40 01 08 	ld32	r8,r8
    2164:	0d 42 82 08 	wl16	r16,0x1408
    2168:	0d 60 02 03 	wh16	r16,0x3
    216c:	10 40 02 10 	ld32	r16,r16
    2170:	0d 44 b1 28 	wl16	r9,0x2588
    2174:	0d 60 01 23 	wh16	r9,0x3
    2178:	10 40 01 29 	ld32	r9,r9
    217c:	00 00 01 10 	add	r8,r16
    2180:	20 70 03 e2 	movepc	rret,8
    2184:	14 30 f7 a3 	br	10 <compare>,#al
    2188:	00 10 00 41 	add	r2,1
    218c:	0d 40 51 0c 	wl16	r8,0x28c
    2190:	0d 60 01 03 	wh16	r8,0x3
    2194:	10 40 01 08 	ld32	r8,r8
    2198:	0d 42 82 0c 	wl16	r16,0x140c
    219c:	0d 60 02 03 	wh16	r16,0x3
    21a0:	10 40 02 10 	ld32	r16,r16
    21a4:	0d 44 b1 2c 	wl16	r9,0x258c
    21a8:	0d 60 01 23 	wh16	r9,0x3
    21ac:	10 40 01 29 	ld32	r9,r9
    21b0:	00 00 01 10 	add	r8,r16
    21b4:	20 70 03 e2 	movepc	rret,8
    21b8:	14 30 f7 96 	br	10 <compare>,#al
    21bc:	00 10 00 41 	add	r2,1
    21c0:	0d 40 51 10 	wl16	r8,0x290
    21c4:	0d 60 01 03 	wh16	r8,0x3
    21c8:	10 40 01 08 	ld32	r8,r8
    21cc:	0d 42 82 10 	wl16	r16,0x1410
    21d0:	0d 60 02 03 	wh16	r16,0x3
    21d4:	10 40 02 10 	ld32	r16,r16
    21d8:	0d 44 b1 30 	wl16	r9,0x2590
    21dc:	0d 60 01 23 	wh16	r9,0x3
    21e0:	10 40 01 29 	ld32	r9,r9
    21e4:	00 00 01 10 	add	r8,r16
    21e8:	20 70 03 e2 	movepc	rret,8
    21ec:	14 30 f7 89 	br	10 <compare>,#al
    21f0:	00 10 00 41 	add	r2,1
    21f4:	0d 40 51 14 	wl16	r8,0x294
    21f8:	0d 60 01 03 	wh16	r8,0x3
    21fc:	10 40 01 08 	ld32	r8,r8
    2200:	0d 42 82 14 	wl16	r16,0x1414
    2204:	0d 60 02 03 	wh16	r16,0x3
    2208:	10 40 02 10 	ld32	r16,r16
    220c:	0d 44 b1 34 	wl16	r9,0x2594
    2210:	0d 60 01 23 	wh16	r9,0x3
    2214:	10 40 01 29 	ld32	r9,r9
    2218:	00 00 01 10 	add	r8,r16
    221c:	20 70 03 e2 	movepc	rret,8
    2220:	14 30 f7 7c 	br	10 <compare>,#al
    2224:	00 10 00 41 	add	r2,1
    2228:	0d 40 51 18 	wl16	r8,0x298
    222c:	0d 60 01 03 	wh16	r8,0x3
    2230:	10 40 01 08 	ld32	r8,r8
    2234:	0d 42 82 18 	wl16	r16,0x1418
    2238:	0d 60 02 03 	wh16	r16,0x3
    223c:	10 40 02 10 	ld32	r16,r16
    2240:	0d 44 b1 38 	wl16	r9,0x2598
    2244:	0d 60 01 23 	wh16	r9,0x3
    2248:	10 40 01 29 	ld32	r9,r9
    224c:	00 00 01 10 	add	r8,r16
    2250:	20 70 03 e2 	movepc	rret,8
    2254:	14 30 f7 6f 	br	10 <compare>,#al
    2258:	00 10 00 41 	add	r2,1
    225c:	0d 40 51 1c 	wl16	r8,0x29c
    2260:	0d 60 01 03 	wh16	r8,0x3
    2264:	10 40 01 08 	ld32	r8,r8
    2268:	0d 42 82 1c 	wl16	r16,0x141c
    226c:	0d 60 02 03 	wh16	r16,0x3
    2270:	10 40 02 10 	ld32	r16,r16
    2274:	0d 44 b1 3c 	wl16	r9,0x259c
    2278:	0d 60 01 23 	wh16	r9,0x3
    227c:	10 40 01 29 	ld32	r9,r9
    2280:	00 00 01 10 	add	r8,r16
    2284:	20 70 03 e2 	movepc	rret,8
    2288:	14 30 f7 62 	br	10 <compare>,#al
    228c:	00 10 00 41 	add	r2,1
    2290:	0d 40 55 00 	wl16	r8,0x2a0
    2294:	0d 60 01 03 	wh16	r8,0x3
    2298:	10 40 01 08 	ld32	r8,r8
    229c:	0d 42 86 00 	wl16	r16,0x1420
    22a0:	0d 60 02 03 	wh16	r16,0x3
    22a4:	10 40 02 10 	ld32	r16,r16
    22a8:	0d 44 b5 20 	wl16	r9,0x25a0
    22ac:	0d 60 01 23 	wh16	r9,0x3
    22b0:	10 40 01 29 	ld32	r9,r9
    22b4:	00 00 01 10 	add	r8,r16
    22b8:	20 70 03 e2 	movepc	rret,8
    22bc:	14 30 f7 55 	br	10 <compare>,#al
    22c0:	00 10 00 41 	add	r2,1
    22c4:	0d 40 55 04 	wl16	r8,0x2a4
    22c8:	0d 60 01 03 	wh16	r8,0x3
    22cc:	10 40 01 08 	ld32	r8,r8
    22d0:	0d 42 86 04 	wl16	r16,0x1424
    22d4:	0d 60 02 03 	wh16	r16,0x3
    22d8:	10 40 02 10 	ld32	r16,r16
    22dc:	0d 44 b5 24 	wl16	r9,0x25a4
    22e0:	0d 60 01 23 	wh16	r9,0x3
    22e4:	10 40 01 29 	ld32	r9,r9
    22e8:	00 00 01 10 	add	r8,r16
    22ec:	20 70 03 e2 	movepc	rret,8
    22f0:	14 30 f7 48 	br	10 <compare>,#al
    22f4:	00 10 00 41 	add	r2,1
    22f8:	0d 40 55 08 	wl16	r8,0x2a8
    22fc:	0d 60 01 03 	wh16	r8,0x3
    2300:	10 40 01 08 	ld32	r8,r8
    2304:	0d 42 86 08 	wl16	r16,0x1428
    2308:	0d 60 02 03 	wh16	r16,0x3
    230c:	10 40 02 10 	ld32	r16,r16
    2310:	0d 44 b5 28 	wl16	r9,0x25a8
    2314:	0d 60 01 23 	wh16	r9,0x3
    2318:	10 40 01 29 	ld32	r9,r9
    231c:	00 00 01 10 	add	r8,r16
    2320:	20 70 03 e2 	movepc	rret,8
    2324:	14 30 f7 3b 	br	10 <compare>,#al
    2328:	00 10 00 41 	add	r2,1
    232c:	0d 40 55 0c 	wl16	r8,0x2ac
    2330:	0d 60 01 03 	wh16	r8,0x3
    2334:	10 40 01 08 	ld32	r8,r8
    2338:	0d 42 86 0c 	wl16	r16,0x142c
    233c:	0d 60 02 03 	wh16	r16,0x3
    2340:	10 40 02 10 	ld32	r16,r16
    2344:	0d 44 b5 2c 	wl16	r9,0x25ac
    2348:	0d 60 01 23 	wh16	r9,0x3
    234c:	10 40 01 29 	ld32	r9,r9
    2350:	00 00 01 10 	add	r8,r16
    2354:	20 70 03 e2 	movepc	rret,8
    2358:	14 30 f7 2e 	br	10 <compare>,#al
    235c:	00 10 00 41 	add	r2,1
    2360:	0d 40 55 10 	wl16	r8,0x2b0
    2364:	0d 60 01 03 	wh16	r8,0x3
    2368:	10 40 01 08 	ld32	r8,r8
    236c:	0d 42 86 10 	wl16	r16,0x1430
    2370:	0d 60 02 03 	wh16	r16,0x3
    2374:	10 40 02 10 	ld32	r16,r16
    2378:	0d 44 b5 30 	wl16	r9,0x25b0
    237c:	0d 60 01 23 	wh16	r9,0x3
    2380:	10 40 01 29 	ld32	r9,r9
    2384:	00 00 01 10 	add	r8,r16
    2388:	20 70 03 e2 	movepc	rret,8
    238c:	14 30 f7 21 	br	10 <compare>,#al
    2390:	00 10 00 41 	add	r2,1
    2394:	0d 40 55 14 	wl16	r8,0x2b4
    2398:	0d 60 01 03 	wh16	r8,0x3
    239c:	10 40 01 08 	ld32	r8,r8
    23a0:	0d 42 86 14 	wl16	r16,0x1434
    23a4:	0d 60 02 03 	wh16	r16,0x3
    23a8:	10 40 02 10 	ld32	r16,r16
    23ac:	0d 44 b5 34 	wl16	r9,0x25b4
    23b0:	0d 60 01 23 	wh16	r9,0x3
    23b4:	10 40 01 29 	ld32	r9,r9
    23b8:	00 00 01 10 	add	r8,r16
    23bc:	20 70 03 e2 	movepc	rret,8
    23c0:	14 30 f7 14 	br	10 <compare>,#al
    23c4:	00 10 00 41 	add	r2,1
    23c8:	0d 40 55 18 	wl16	r8,0x2b8
    23cc:	0d 60 01 03 	wh16	r8,0x3
    23d0:	10 40 01 08 	ld32	r8,r8
    23d4:	0d 42 86 18 	wl16	r16,0x1438
    23d8:	0d 60 02 03 	wh16	r16,0x3
    23dc:	10 40 02 10 	ld32	r16,r16
    23e0:	0d 44 b5 38 	wl16	r9,0x25b8
    23e4:	0d 60 01 23 	wh16	r9,0x3
    23e8:	10 40 01 29 	ld32	r9,r9
    23ec:	00 00 01 10 	add	r8,r16
    23f0:	20 70 03 e2 	movepc	rret,8
    23f4:	14 30 f7 07 	br	10 <compare>,#al
    23f8:	00 10 00 41 	add	r2,1
    23fc:	0d 40 55 1c 	wl16	r8,0x2bc
    2400:	0d 60 01 03 	wh16	r8,0x3
    2404:	10 40 01 08 	ld32	r8,r8
    2408:	0d 42 86 1c 	wl16	r16,0x143c
    240c:	0d 60 02 03 	wh16	r16,0x3
    2410:	10 40 02 10 	ld32	r16,r16
    2414:	0d 44 b5 3c 	wl16	r9,0x25bc
    2418:	0d 60 01 23 	wh16	r9,0x3
    241c:	10 40 01 29 	ld32	r9,r9
    2420:	00 00 01 10 	add	r8,r16
    2424:	20 70 03 e2 	movepc	rret,8
    2428:	14 30 f6 fa 	br	10 <compare>,#al
    242c:	00 10 00 41 	add	r2,1
    2430:	0d 40 59 00 	wl16	r8,0x2c0
    2434:	0d 60 01 03 	wh16	r8,0x3
    2438:	10 40 01 08 	ld32	r8,r8
    243c:	0d 42 8a 00 	wl16	r16,0x1440
    2440:	0d 60 02 03 	wh16	r16,0x3
    2444:	10 40 02 10 	ld32	r16,r16
    2448:	0d 44 b9 20 	wl16	r9,0x25c0
    244c:	0d 60 01 23 	wh16	r9,0x3
    2450:	10 40 01 29 	ld32	r9,r9
    2454:	00 00 01 10 	add	r8,r16
    2458:	20 70 03 e2 	movepc	rret,8
    245c:	14 30 f6 ed 	br	10 <compare>,#al
    2460:	00 10 00 41 	add	r2,1
    2464:	0d 40 59 04 	wl16	r8,0x2c4
    2468:	0d 60 01 03 	wh16	r8,0x3
    246c:	10 40 01 08 	ld32	r8,r8
    2470:	0d 42 8a 04 	wl16	r16,0x1444
    2474:	0d 60 02 03 	wh16	r16,0x3
    2478:	10 40 02 10 	ld32	r16,r16
    247c:	0d 44 b9 24 	wl16	r9,0x25c4
    2480:	0d 60 01 23 	wh16	r9,0x3
    2484:	10 40 01 29 	ld32	r9,r9
    2488:	00 00 01 10 	add	r8,r16
    248c:	20 70 03 e2 	movepc	rret,8
    2490:	14 30 f6 e0 	br	10 <compare>,#al
    2494:	00 10 00 41 	add	r2,1
    2498:	0d 40 59 08 	wl16	r8,0x2c8
    249c:	0d 60 01 03 	wh16	r8,0x3
    24a0:	10 40 01 08 	ld32	r8,r8
    24a4:	0d 42 8a 08 	wl16	r16,0x1448
    24a8:	0d 60 02 03 	wh16	r16,0x3
    24ac:	10 40 02 10 	ld32	r16,r16
    24b0:	0d 44 b9 28 	wl16	r9,0x25c8
    24b4:	0d 60 01 23 	wh16	r9,0x3
    24b8:	10 40 01 29 	ld32	r9,r9
    24bc:	00 00 01 10 	add	r8,r16
    24c0:	20 70 03 e2 	movepc	rret,8
    24c4:	14 30 f6 d3 	br	10 <compare>,#al
    24c8:	00 10 00 41 	add	r2,1
    24cc:	0d 40 59 0c 	wl16	r8,0x2cc
    24d0:	0d 60 01 03 	wh16	r8,0x3
    24d4:	10 40 01 08 	ld32	r8,r8
    24d8:	0d 42 8a 0c 	wl16	r16,0x144c
    24dc:	0d 60 02 03 	wh16	r16,0x3
    24e0:	10 40 02 10 	ld32	r16,r16
    24e4:	0d 44 b9 2c 	wl16	r9,0x25cc
    24e8:	0d 60 01 23 	wh16	r9,0x3
    24ec:	10 40 01 29 	ld32	r9,r9
    24f0:	00 00 01 10 	add	r8,r16
    24f4:	20 70 03 e2 	movepc	rret,8
    24f8:	14 30 f6 c6 	br	10 <compare>,#al
    24fc:	00 10 00 41 	add	r2,1
    2500:	0d 40 59 10 	wl16	r8,0x2d0
    2504:	0d 60 01 03 	wh16	r8,0x3
    2508:	10 40 01 08 	ld32	r8,r8
    250c:	0d 42 8a 10 	wl16	r16,0x1450
    2510:	0d 60 02 03 	wh16	r16,0x3
    2514:	10 40 02 10 	ld32	r16,r16
    2518:	0d 44 b9 30 	wl16	r9,0x25d0
    251c:	0d 60 01 23 	wh16	r9,0x3
    2520:	10 40 01 29 	ld32	r9,r9
    2524:	00 00 01 10 	add	r8,r16
    2528:	20 70 03 e2 	movepc	rret,8
    252c:	14 30 f6 b9 	br	10 <compare>,#al
    2530:	00 10 00 41 	add	r2,1
    2534:	0d 40 59 14 	wl16	r8,0x2d4
    2538:	0d 60 01 03 	wh16	r8,0x3
    253c:	10 40 01 08 	ld32	r8,r8
    2540:	0d 42 8a 14 	wl16	r16,0x1454
    2544:	0d 60 02 03 	wh16	r16,0x3
    2548:	10 40 02 10 	ld32	r16,r16
    254c:	0d 44 b9 34 	wl16	r9,0x25d4
    2550:	0d 60 01 23 	wh16	r9,0x3
    2554:	10 40 01 29 	ld32	r9,r9
    2558:	00 00 01 10 	add	r8,r16
    255c:	20 70 03 e2 	movepc	rret,8
    2560:	14 30 f6 ac 	br	10 <compare>,#al
    2564:	00 10 00 41 	add	r2,1
    2568:	0d 40 59 18 	wl16	r8,0x2d8
    256c:	0d 60 01 03 	wh16	r8,0x3
    2570:	10 40 01 08 	ld32	r8,r8
    2574:	0d 42 8a 18 	wl16	r16,0x1458
    2578:	0d 60 02 03 	wh16	r16,0x3
    257c:	10 40 02 10 	ld32	r16,r16
    2580:	0d 44 b9 38 	wl16	r9,0x25d8
    2584:	0d 60 01 23 	wh16	r9,0x3
    2588:	10 40 01 29 	ld32	r9,r9
    258c:	00 00 01 10 	add	r8,r16
    2590:	20 70 03 e2 	movepc	rret,8
    2594:	14 30 f6 9f 	br	10 <compare>,#al
    2598:	00 10 00 41 	add	r2,1
    259c:	0d 40 59 1c 	wl16	r8,0x2dc
    25a0:	0d 60 01 03 	wh16	r8,0x3
    25a4:	10 40 01 08 	ld32	r8,r8
    25a8:	0d 42 8a 1c 	wl16	r16,0x145c
    25ac:	0d 60 02 03 	wh16	r16,0x3
    25b0:	10 40 02 10 	ld32	r16,r16
    25b4:	0d 44 b9 3c 	wl16	r9,0x25dc
    25b8:	0d 60 01 23 	wh16	r9,0x3
    25bc:	10 40 01 29 	ld32	r9,r9
    25c0:	00 00 01 10 	add	r8,r16
    25c4:	20 70 03 e2 	movepc	rret,8
    25c8:	14 30 f6 92 	br	10 <compare>,#al
    25cc:	00 10 00 41 	add	r2,1
    25d0:	0d 40 5d 00 	wl16	r8,0x2e0
    25d4:	0d 60 01 03 	wh16	r8,0x3
    25d8:	10 40 01 08 	ld32	r8,r8
    25dc:	0d 42 8e 00 	wl16	r16,0x1460
    25e0:	0d 60 02 03 	wh16	r16,0x3
    25e4:	10 40 02 10 	ld32	r16,r16
    25e8:	0d 44 bd 20 	wl16	r9,0x25e0
    25ec:	0d 60 01 23 	wh16	r9,0x3
    25f0:	10 40 01 29 	ld32	r9,r9
    25f4:	00 00 01 10 	add	r8,r16
    25f8:	20 70 03 e2 	movepc	rret,8
    25fc:	14 30 f6 85 	br	10 <compare>,#al
    2600:	00 10 00 41 	add	r2,1
    2604:	0d 40 5d 04 	wl16	r8,0x2e4
    2608:	0d 60 01 03 	wh16	r8,0x3
    260c:	10 40 01 08 	ld32	r8,r8
    2610:	0d 42 8e 04 	wl16	r16,0x1464
    2614:	0d 60 02 03 	wh16	r16,0x3
    2618:	10 40 02 10 	ld32	r16,r16
    261c:	0d 44 bd 24 	wl16	r9,0x25e4
    2620:	0d 60 01 23 	wh16	r9,0x3
    2624:	10 40 01 29 	ld32	r9,r9
    2628:	00 00 01 10 	add	r8,r16
    262c:	20 70 03 e2 	movepc	rret,8
    2630:	14 30 f6 78 	br	10 <compare>,#al
    2634:	00 10 00 41 	add	r2,1
    2638:	0d 40 5d 08 	wl16	r8,0x2e8
    263c:	0d 60 01 03 	wh16	r8,0x3
    2640:	10 40 01 08 	ld32	r8,r8
    2644:	0d 42 8e 08 	wl16	r16,0x1468
    2648:	0d 60 02 03 	wh16	r16,0x3
    264c:	10 40 02 10 	ld32	r16,r16
    2650:	0d 44 bd 28 	wl16	r9,0x25e8
    2654:	0d 60 01 23 	wh16	r9,0x3
    2658:	10 40 01 29 	ld32	r9,r9
    265c:	00 00 01 10 	add	r8,r16
    2660:	20 70 03 e2 	movepc	rret,8
    2664:	14 30 f6 6b 	br	10 <compare>,#al
    2668:	00 10 00 41 	add	r2,1
    266c:	0d 40 5d 0c 	wl16	r8,0x2ec
    2670:	0d 60 01 03 	wh16	r8,0x3
    2674:	10 40 01 08 	ld32	r8,r8
    2678:	0d 42 8e 0c 	wl16	r16,0x146c
    267c:	0d 60 02 03 	wh16	r16,0x3
    2680:	10 40 02 10 	ld32	r16,r16
    2684:	0d 44 bd 2c 	wl16	r9,0x25ec
    2688:	0d 60 01 23 	wh16	r9,0x3
    268c:	10 40 01 29 	ld32	r9,r9
    2690:	00 00 01 10 	add	r8,r16
    2694:	20 70 03 e2 	movepc	rret,8
    2698:	14 30 f6 5e 	br	10 <compare>,#al
    269c:	00 10 00 41 	add	r2,1
    26a0:	0d 40 5d 10 	wl16	r8,0x2f0
    26a4:	0d 60 01 03 	wh16	r8,0x3
    26a8:	10 40 01 08 	ld32	r8,r8
    26ac:	0d 42 8e 10 	wl16	r16,0x1470
    26b0:	0d 60 02 03 	wh16	r16,0x3
    26b4:	10 40 02 10 	ld32	r16,r16
    26b8:	0d 44 bd 30 	wl16	r9,0x25f0
    26bc:	0d 60 01 23 	wh16	r9,0x3
    26c0:	10 40 01 29 	ld32	r9,r9
    26c4:	00 00 01 10 	add	r8,r16
    26c8:	20 70 03 e2 	movepc	rret,8
    26cc:	14 30 f6 51 	br	10 <compare>,#al
    26d0:	00 10 00 41 	add	r2,1
    26d4:	0d 40 5d 14 	wl16	r8,0x2f4
    26d8:	0d 60 01 03 	wh16	r8,0x3
    26dc:	10 40 01 08 	ld32	r8,r8
    26e0:	0d 42 8e 14 	wl16	r16,0x1474
    26e4:	0d 60 02 03 	wh16	r16,0x3
    26e8:	10 40 02 10 	ld32	r16,r16
    26ec:	0d 44 bd 34 	wl16	r9,0x25f4
    26f0:	0d 60 01 23 	wh16	r9,0x3
    26f4:	10 40 01 29 	ld32	r9,r9
    26f8:	00 00 01 10 	add	r8,r16
    26fc:	20 70 03 e2 	movepc	rret,8
    2700:	14 30 f6 44 	br	10 <compare>,#al
    2704:	00 10 00 41 	add	r2,1
    2708:	0d 40 5d 18 	wl16	r8,0x2f8
    270c:	0d 60 01 03 	wh16	r8,0x3
    2710:	10 40 01 08 	ld32	r8,r8
    2714:	0d 42 8e 18 	wl16	r16,0x1478
    2718:	0d 60 02 03 	wh16	r16,0x3
    271c:	10 40 02 10 	ld32	r16,r16
    2720:	0d 44 bd 38 	wl16	r9,0x25f8
    2724:	0d 60 01 23 	wh16	r9,0x3
    2728:	10 40 01 29 	ld32	r9,r9
    272c:	00 00 01 10 	add	r8,r16
    2730:	20 70 03 e2 	movepc	rret,8
    2734:	14 30 f6 37 	br	10 <compare>,#al
    2738:	00 10 00 41 	add	r2,1
    273c:	0d 40 5d 1c 	wl16	r8,0x2fc
    2740:	0d 60 01 03 	wh16	r8,0x3
    2744:	10 40 01 08 	ld32	r8,r8
    2748:	0d 42 8e 1c 	wl16	r16,0x147c
    274c:	0d 60 02 03 	wh16	r16,0x3
    2750:	10 40 02 10 	ld32	r16,r16
    2754:	0d 44 bd 3c 	wl16	r9,0x25fc
    2758:	0d 60 01 23 	wh16	r9,0x3
    275c:	10 40 01 29 	ld32	r9,r9
    2760:	00 00 01 10 	add	r8,r16
    2764:	20 70 03 e2 	movepc	rret,8
    2768:	14 30 f6 2a 	br	10 <compare>,#al
    276c:	00 10 00 41 	add	r2,1
    2770:	0d 40 61 00 	wl16	r8,0x300
    2774:	0d 60 01 03 	wh16	r8,0x3
    2778:	10 40 01 08 	ld32	r8,r8
    277c:	0d 42 92 00 	wl16	r16,0x1480
    2780:	0d 60 02 03 	wh16	r16,0x3
    2784:	10 40 02 10 	ld32	r16,r16
    2788:	0d 44 c1 20 	wl16	r9,0x2600
    278c:	0d 60 01 23 	wh16	r9,0x3
    2790:	10 40 01 29 	ld32	r9,r9
    2794:	00 00 01 10 	add	r8,r16
    2798:	20 70 03 e2 	movepc	rret,8
    279c:	14 30 f6 1d 	br	10 <compare>,#al
    27a0:	00 10 00 41 	add	r2,1
    27a4:	0d 40 61 04 	wl16	r8,0x304
    27a8:	0d 60 01 03 	wh16	r8,0x3
    27ac:	10 40 01 08 	ld32	r8,r8
    27b0:	0d 42 92 04 	wl16	r16,0x1484
    27b4:	0d 60 02 03 	wh16	r16,0x3
    27b8:	10 40 02 10 	ld32	r16,r16
    27bc:	0d 44 c1 24 	wl16	r9,0x2604
    27c0:	0d 60 01 23 	wh16	r9,0x3
    27c4:	10 40 01 29 	ld32	r9,r9
    27c8:	00 00 01 10 	add	r8,r16
    27cc:	20 70 03 e2 	movepc	rret,8
    27d0:	14 30 f6 10 	br	10 <compare>,#al
    27d4:	00 10 00 41 	add	r2,1
    27d8:	0d 40 61 08 	wl16	r8,0x308
    27dc:	0d 60 01 03 	wh16	r8,0x3
    27e0:	10 40 01 08 	ld32	r8,r8
    27e4:	0d 42 92 08 	wl16	r16,0x1488
    27e8:	0d 60 02 03 	wh16	r16,0x3
    27ec:	10 40 02 10 	ld32	r16,r16
    27f0:	0d 44 c1 28 	wl16	r9,0x2608
    27f4:	0d 60 01 23 	wh16	r9,0x3
    27f8:	10 40 01 29 	ld32	r9,r9
    27fc:	00 00 01 10 	add	r8,r16
    2800:	20 70 03 e2 	movepc	rret,8
    2804:	14 30 f6 03 	br	10 <compare>,#al
    2808:	00 10 00 41 	add	r2,1
    280c:	0d 40 61 0c 	wl16	r8,0x30c
    2810:	0d 60 01 03 	wh16	r8,0x3
    2814:	10 40 01 08 	ld32	r8,r8
    2818:	0d 42 92 0c 	wl16	r16,0x148c
    281c:	0d 60 02 03 	wh16	r16,0x3
    2820:	10 40 02 10 	ld32	r16,r16
    2824:	0d 44 c1 2c 	wl16	r9,0x260c
    2828:	0d 60 01 23 	wh16	r9,0x3
    282c:	10 40 01 29 	ld32	r9,r9
    2830:	00 00 01 10 	add	r8,r16
    2834:	20 70 03 e2 	movepc	rret,8
    2838:	14 30 f5 f6 	br	10 <compare>,#al
    283c:	00 10 00 41 	add	r2,1
    2840:	0d 40 61 10 	wl16	r8,0x310
    2844:	0d 60 01 03 	wh16	r8,0x3
    2848:	10 40 01 08 	ld32	r8,r8
    284c:	0d 42 92 10 	wl16	r16,0x1490
    2850:	0d 60 02 03 	wh16	r16,0x3
    2854:	10 40 02 10 	ld32	r16,r16
    2858:	0d 44 c1 30 	wl16	r9,0x2610
    285c:	0d 60 01 23 	wh16	r9,0x3
    2860:	10 40 01 29 	ld32	r9,r9
    2864:	00 00 01 10 	add	r8,r16
    2868:	20 70 03 e2 	movepc	rret,8
    286c:	14 30 f5 e9 	br	10 <compare>,#al
    2870:	00 10 00 41 	add	r2,1
    2874:	0d 40 61 14 	wl16	r8,0x314
    2878:	0d 60 01 03 	wh16	r8,0x3
    287c:	10 40 01 08 	ld32	r8,r8
    2880:	0d 42 92 14 	wl16	r16,0x1494
    2884:	0d 60 02 03 	wh16	r16,0x3
    2888:	10 40 02 10 	ld32	r16,r16
    288c:	0d 44 c1 34 	wl16	r9,0x2614
    2890:	0d 60 01 23 	wh16	r9,0x3
    2894:	10 40 01 29 	ld32	r9,r9
    2898:	00 00 01 10 	add	r8,r16
    289c:	20 70 03 e2 	movepc	rret,8
    28a0:	14 30 f5 dc 	br	10 <compare>,#al
    28a4:	00 10 00 41 	add	r2,1
    28a8:	0d 40 61 18 	wl16	r8,0x318
    28ac:	0d 60 01 03 	wh16	r8,0x3
    28b0:	10 40 01 08 	ld32	r8,r8
    28b4:	0d 42 92 18 	wl16	r16,0x1498
    28b8:	0d 60 02 03 	wh16	r16,0x3
    28bc:	10 40 02 10 	ld32	r16,r16
    28c0:	0d 44 c1 38 	wl16	r9,0x2618
    28c4:	0d 60 01 23 	wh16	r9,0x3
    28c8:	10 40 01 29 	ld32	r9,r9
    28cc:	00 00 01 10 	add	r8,r16
    28d0:	20 70 03 e2 	movepc	rret,8
    28d4:	14 30 f5 cf 	br	10 <compare>,#al
    28d8:	00 10 00 41 	add	r2,1
    28dc:	0d 40 61 1c 	wl16	r8,0x31c
    28e0:	0d 60 01 03 	wh16	r8,0x3
    28e4:	10 40 01 08 	ld32	r8,r8
    28e8:	0d 42 92 1c 	wl16	r16,0x149c
    28ec:	0d 60 02 03 	wh16	r16,0x3
    28f0:	10 40 02 10 	ld32	r16,r16
    28f4:	0d 44 c1 3c 	wl16	r9,0x261c
    28f8:	0d 60 01 23 	wh16	r9,0x3
    28fc:	10 40 01 29 	ld32	r9,r9
    2900:	00 00 01 10 	add	r8,r16
    2904:	20 70 03 e2 	movepc	rret,8
    2908:	14 30 f5 c2 	br	10 <compare>,#al
    290c:	00 10 00 41 	add	r2,1
    2910:	0d 40 65 00 	wl16	r8,0x320
    2914:	0d 60 01 03 	wh16	r8,0x3
    2918:	10 40 01 08 	ld32	r8,r8
    291c:	0d 42 96 00 	wl16	r16,0x14a0
    2920:	0d 60 02 03 	wh16	r16,0x3
    2924:	10 40 02 10 	ld32	r16,r16
    2928:	0d 44 c5 20 	wl16	r9,0x2620
    292c:	0d 60 01 23 	wh16	r9,0x3
    2930:	10 40 01 29 	ld32	r9,r9
    2934:	00 00 01 10 	add	r8,r16
    2938:	20 70 03 e2 	movepc	rret,8
    293c:	14 30 f5 b5 	br	10 <compare>,#al
    2940:	00 10 00 41 	add	r2,1
    2944:	0d 40 65 04 	wl16	r8,0x324
    2948:	0d 60 01 03 	wh16	r8,0x3
    294c:	10 40 01 08 	ld32	r8,r8
    2950:	0d 42 96 04 	wl16	r16,0x14a4
    2954:	0d 60 02 03 	wh16	r16,0x3
    2958:	10 40 02 10 	ld32	r16,r16
    295c:	0d 44 c5 24 	wl16	r9,0x2624
    2960:	0d 60 01 23 	wh16	r9,0x3
    2964:	10 40 01 29 	ld32	r9,r9
    2968:	00 00 01 10 	add	r8,r16
    296c:	20 70 03 e2 	movepc	rret,8
    2970:	14 30 f5 a8 	br	10 <compare>,#al
    2974:	00 10 00 41 	add	r2,1
    2978:	0d 40 65 08 	wl16	r8,0x328
    297c:	0d 60 01 03 	wh16	r8,0x3
    2980:	10 40 01 08 	ld32	r8,r8
    2984:	0d 42 96 08 	wl16	r16,0x14a8
    2988:	0d 60 02 03 	wh16	r16,0x3
    298c:	10 40 02 10 	ld32	r16,r16
    2990:	0d 44 c5 28 	wl16	r9,0x2628
    2994:	0d 60 01 23 	wh16	r9,0x3
    2998:	10 40 01 29 	ld32	r9,r9
    299c:	00 00 01 10 	add	r8,r16
    29a0:	20 70 03 e2 	movepc	rret,8
    29a4:	14 30 f5 9b 	br	10 <compare>,#al
    29a8:	00 10 00 41 	add	r2,1
    29ac:	0d 40 65 0c 	wl16	r8,0x32c
    29b0:	0d 60 01 03 	wh16	r8,0x3
    29b4:	10 40 01 08 	ld32	r8,r8
    29b8:	0d 42 96 0c 	wl16	r16,0x14ac
    29bc:	0d 60 02 03 	wh16	r16,0x3
    29c0:	10 40 02 10 	ld32	r16,r16
    29c4:	0d 44 c5 2c 	wl16	r9,0x262c
    29c8:	0d 60 01 23 	wh16	r9,0x3
    29cc:	10 40 01 29 	ld32	r9,r9
    29d0:	00 00 01 10 	add	r8,r16
    29d4:	20 70 03 e2 	movepc	rret,8
    29d8:	14 30 f5 8e 	br	10 <compare>,#al
    29dc:	00 10 00 41 	add	r2,1
    29e0:	0d 40 65 10 	wl16	r8,0x330
    29e4:	0d 60 01 03 	wh16	r8,0x3
    29e8:	10 40 01 08 	ld32	r8,r8
    29ec:	0d 42 96 10 	wl16	r16,0x14b0
    29f0:	0d 60 02 03 	wh16	r16,0x3
    29f4:	10 40 02 10 	ld32	r16,r16
    29f8:	0d 44 c5 30 	wl16	r9,0x2630
    29fc:	0d 60 01 23 	wh16	r9,0x3
    2a00:	10 40 01 29 	ld32	r9,r9
    2a04:	00 00 01 10 	add	r8,r16
    2a08:	20 70 03 e2 	movepc	rret,8
    2a0c:	14 30 f5 81 	br	10 <compare>,#al
    2a10:	00 10 00 41 	add	r2,1
    2a14:	0d 40 65 14 	wl16	r8,0x334
    2a18:	0d 60 01 03 	wh16	r8,0x3
    2a1c:	10 40 01 08 	ld32	r8,r8
    2a20:	0d 42 96 14 	wl16	r16,0x14b4
    2a24:	0d 60 02 03 	wh16	r16,0x3
    2a28:	10 40 02 10 	ld32	r16,r16
    2a2c:	0d 44 c5 34 	wl16	r9,0x2634
    2a30:	0d 60 01 23 	wh16	r9,0x3
    2a34:	10 40 01 29 	ld32	r9,r9
    2a38:	00 00 01 10 	add	r8,r16
    2a3c:	20 70 03 e2 	movepc	rret,8
    2a40:	14 30 f5 74 	br	10 <compare>,#al
    2a44:	00 10 00 41 	add	r2,1
    2a48:	0d 40 65 18 	wl16	r8,0x338
    2a4c:	0d 60 01 03 	wh16	r8,0x3
    2a50:	10 40 01 08 	ld32	r8,r8
    2a54:	0d 42 96 18 	wl16	r16,0x14b8
    2a58:	0d 60 02 03 	wh16	r16,0x3
    2a5c:	10 40 02 10 	ld32	r16,r16
    2a60:	0d 44 c5 38 	wl16	r9,0x2638
    2a64:	0d 60 01 23 	wh16	r9,0x3
    2a68:	10 40 01 29 	ld32	r9,r9
    2a6c:	00 00 01 10 	add	r8,r16
    2a70:	20 70 03 e2 	movepc	rret,8
    2a74:	14 30 f5 67 	br	10 <compare>,#al
    2a78:	00 10 00 41 	add	r2,1
    2a7c:	0d 40 65 1c 	wl16	r8,0x33c
    2a80:	0d 60 01 03 	wh16	r8,0x3
    2a84:	10 40 01 08 	ld32	r8,r8
    2a88:	0d 42 96 1c 	wl16	r16,0x14bc
    2a8c:	0d 60 02 03 	wh16	r16,0x3
    2a90:	10 40 02 10 	ld32	r16,r16
    2a94:	0d 44 c5 3c 	wl16	r9,0x263c
    2a98:	0d 60 01 23 	wh16	r9,0x3
    2a9c:	10 40 01 29 	ld32	r9,r9
    2aa0:	00 00 01 10 	add	r8,r16
    2aa4:	20 70 03 e2 	movepc	rret,8
    2aa8:	14 30 f5 5a 	br	10 <compare>,#al
    2aac:	00 10 00 41 	add	r2,1
    2ab0:	0d 40 69 00 	wl16	r8,0x340
    2ab4:	0d 60 01 03 	wh16	r8,0x3
    2ab8:	10 40 01 08 	ld32	r8,r8
    2abc:	0d 42 9a 00 	wl16	r16,0x14c0
    2ac0:	0d 60 02 03 	wh16	r16,0x3
    2ac4:	10 40 02 10 	ld32	r16,r16
    2ac8:	0d 44 c9 20 	wl16	r9,0x2640
    2acc:	0d 60 01 23 	wh16	r9,0x3
    2ad0:	10 40 01 29 	ld32	r9,r9
    2ad4:	00 00 01 10 	add	r8,r16
    2ad8:	20 70 03 e2 	movepc	rret,8
    2adc:	14 30 f5 4d 	br	10 <compare>,#al
    2ae0:	00 10 00 41 	add	r2,1
    2ae4:	0d 40 69 04 	wl16	r8,0x344
    2ae8:	0d 60 01 03 	wh16	r8,0x3
    2aec:	10 40 01 08 	ld32	r8,r8
    2af0:	0d 42 9a 04 	wl16	r16,0x14c4
    2af4:	0d 60 02 03 	wh16	r16,0x3
    2af8:	10 40 02 10 	ld32	r16,r16
    2afc:	0d 44 c9 24 	wl16	r9,0x2644
    2b00:	0d 60 01 23 	wh16	r9,0x3
    2b04:	10 40 01 29 	ld32	r9,r9
    2b08:	00 00 01 10 	add	r8,r16
    2b0c:	20 70 03 e2 	movepc	rret,8
    2b10:	14 30 f5 40 	br	10 <compare>,#al
    2b14:	00 10 00 41 	add	r2,1
    2b18:	0d 40 69 08 	wl16	r8,0x348
    2b1c:	0d 60 01 03 	wh16	r8,0x3
    2b20:	10 40 01 08 	ld32	r8,r8
    2b24:	0d 42 9a 08 	wl16	r16,0x14c8
    2b28:	0d 60 02 03 	wh16	r16,0x3
    2b2c:	10 40 02 10 	ld32	r16,r16
    2b30:	0d 44 c9 28 	wl16	r9,0x2648
    2b34:	0d 60 01 23 	wh16	r9,0x3
    2b38:	10 40 01 29 	ld32	r9,r9
    2b3c:	00 00 01 10 	add	r8,r16
    2b40:	20 70 03 e2 	movepc	rret,8
    2b44:	14 30 f5 33 	br	10 <compare>,#al
    2b48:	00 10 00 41 	add	r2,1
    2b4c:	0d 40 69 0c 	wl16	r8,0x34c
    2b50:	0d 60 01 03 	wh16	r8,0x3
    2b54:	10 40 01 08 	ld32	r8,r8
    2b58:	0d 42 9a 0c 	wl16	r16,0x14cc
    2b5c:	0d 60 02 03 	wh16	r16,0x3
    2b60:	10 40 02 10 	ld32	r16,r16
    2b64:	0d 44 c9 2c 	wl16	r9,0x264c
    2b68:	0d 60 01 23 	wh16	r9,0x3
    2b6c:	10 40 01 29 	ld32	r9,r9
    2b70:	00 00 01 10 	add	r8,r16
    2b74:	20 70 03 e2 	movepc	rret,8
    2b78:	14 30 f5 26 	br	10 <compare>,#al
    2b7c:	00 10 00 41 	add	r2,1
    2b80:	0d 40 69 10 	wl16	r8,0x350
    2b84:	0d 60 01 03 	wh16	r8,0x3
    2b88:	10 40 01 08 	ld32	r8,r8
    2b8c:	0d 42 9a 10 	wl16	r16,0x14d0
    2b90:	0d 60 02 03 	wh16	r16,0x3
    2b94:	10 40 02 10 	ld32	r16,r16
    2b98:	0d 44 c9 30 	wl16	r9,0x2650
    2b9c:	0d 60 01 23 	wh16	r9,0x3
    2ba0:	10 40 01 29 	ld32	r9,r9
    2ba4:	00 00 01 10 	add	r8,r16
    2ba8:	20 70 03 e2 	movepc	rret,8
    2bac:	14 30 f5 19 	br	10 <compare>,#al
    2bb0:	00 10 00 41 	add	r2,1
    2bb4:	0d 40 69 14 	wl16	r8,0x354
    2bb8:	0d 60 01 03 	wh16	r8,0x3
    2bbc:	10 40 01 08 	ld32	r8,r8
    2bc0:	0d 42 9a 14 	wl16	r16,0x14d4
    2bc4:	0d 60 02 03 	wh16	r16,0x3
    2bc8:	10 40 02 10 	ld32	r16,r16
    2bcc:	0d 44 c9 34 	wl16	r9,0x2654
    2bd0:	0d 60 01 23 	wh16	r9,0x3
    2bd4:	10 40 01 29 	ld32	r9,r9
    2bd8:	00 00 01 10 	add	r8,r16
    2bdc:	20 70 03 e2 	movepc	rret,8
    2be0:	14 30 f5 0c 	br	10 <compare>,#al
    2be4:	00 10 00 41 	add	r2,1
    2be8:	0d 40 69 18 	wl16	r8,0x358
    2bec:	0d 60 01 03 	wh16	r8,0x3
    2bf0:	10 40 01 08 	ld32	r8,r8
    2bf4:	0d 42 9a 18 	wl16	r16,0x14d8
    2bf8:	0d 60 02 03 	wh16	r16,0x3
    2bfc:	10 40 02 10 	ld32	r16,r16
    2c00:	0d 44 c9 38 	wl16	r9,0x2658
    2c04:	0d 60 01 23 	wh16	r9,0x3
    2c08:	10 40 01 29 	ld32	r9,r9
    2c0c:	00 00 01 10 	add	r8,r16
    2c10:	20 70 03 e2 	movepc	rret,8
    2c14:	14 30 f4 ff 	br	10 <compare>,#al
    2c18:	00 10 00 41 	add	r2,1
    2c1c:	0d 40 69 1c 	wl16	r8,0x35c
    2c20:	0d 60 01 03 	wh16	r8,0x3
    2c24:	10 40 01 08 	ld32	r8,r8
    2c28:	0d 42 9a 1c 	wl16	r16,0x14dc
    2c2c:	0d 60 02 03 	wh16	r16,0x3
    2c30:	10 40 02 10 	ld32	r16,r16
    2c34:	0d 44 c9 3c 	wl16	r9,0x265c
    2c38:	0d 60 01 23 	wh16	r9,0x3
    2c3c:	10 40 01 29 	ld32	r9,r9
    2c40:	00 00 01 10 	add	r8,r16
    2c44:	20 70 03 e2 	movepc	rret,8
    2c48:	14 30 f4 f2 	br	10 <compare>,#al
    2c4c:	00 10 00 41 	add	r2,1
    2c50:	0d 40 6d 00 	wl16	r8,0x360
    2c54:	0d 60 01 03 	wh16	r8,0x3
    2c58:	10 40 01 08 	ld32	r8,r8
    2c5c:	0d 42 9e 00 	wl16	r16,0x14e0
    2c60:	0d 60 02 03 	wh16	r16,0x3
    2c64:	10 40 02 10 	ld32	r16,r16
    2c68:	0d 44 cd 20 	wl16	r9,0x2660
    2c6c:	0d 60 01 23 	wh16	r9,0x3
    2c70:	10 40 01 29 	ld32	r9,r9
    2c74:	00 00 01 10 	add	r8,r16
    2c78:	20 70 03 e2 	movepc	rret,8
    2c7c:	14 30 f4 e5 	br	10 <compare>,#al
    2c80:	00 10 00 41 	add	r2,1
    2c84:	0d 40 6d 04 	wl16	r8,0x364
    2c88:	0d 60 01 03 	wh16	r8,0x3
    2c8c:	10 40 01 08 	ld32	r8,r8
    2c90:	0d 42 9e 04 	wl16	r16,0x14e4
    2c94:	0d 60 02 03 	wh16	r16,0x3
    2c98:	10 40 02 10 	ld32	r16,r16
    2c9c:	0d 44 cd 24 	wl16	r9,0x2664
    2ca0:	0d 60 01 23 	wh16	r9,0x3
    2ca4:	10 40 01 29 	ld32	r9,r9
    2ca8:	00 00 01 10 	add	r8,r16
    2cac:	20 70 03 e2 	movepc	rret,8
    2cb0:	14 30 f4 d8 	br	10 <compare>,#al
    2cb4:	00 10 00 41 	add	r2,1
    2cb8:	0d 40 6d 08 	wl16	r8,0x368
    2cbc:	0d 60 01 03 	wh16	r8,0x3
    2cc0:	10 40 01 08 	ld32	r8,r8
    2cc4:	0d 42 9e 08 	wl16	r16,0x14e8
    2cc8:	0d 60 02 03 	wh16	r16,0x3
    2ccc:	10 40 02 10 	ld32	r16,r16
    2cd0:	0d 44 cd 28 	wl16	r9,0x2668
    2cd4:	0d 60 01 23 	wh16	r9,0x3
    2cd8:	10 40 01 29 	ld32	r9,r9
    2cdc:	00 00 01 10 	add	r8,r16
    2ce0:	20 70 03 e2 	movepc	rret,8
    2ce4:	14 30 f4 cb 	br	10 <compare>,#al
    2ce8:	00 10 00 41 	add	r2,1
    2cec:	0d 40 6d 0c 	wl16	r8,0x36c
    2cf0:	0d 60 01 03 	wh16	r8,0x3
    2cf4:	10 40 01 08 	ld32	r8,r8
    2cf8:	0d 42 9e 0c 	wl16	r16,0x14ec
    2cfc:	0d 60 02 03 	wh16	r16,0x3
    2d00:	10 40 02 10 	ld32	r16,r16
    2d04:	0d 44 cd 2c 	wl16	r9,0x266c
    2d08:	0d 60 01 23 	wh16	r9,0x3
    2d0c:	10 40 01 29 	ld32	r9,r9
    2d10:	00 00 01 10 	add	r8,r16
    2d14:	20 70 03 e2 	movepc	rret,8
    2d18:	14 30 f4 be 	br	10 <compare>,#al
    2d1c:	00 10 00 41 	add	r2,1
    2d20:	0d 40 6d 10 	wl16	r8,0x370
    2d24:	0d 60 01 03 	wh16	r8,0x3
    2d28:	10 40 01 08 	ld32	r8,r8
    2d2c:	0d 42 9e 10 	wl16	r16,0x14f0
    2d30:	0d 60 02 03 	wh16	r16,0x3
    2d34:	10 40 02 10 	ld32	r16,r16
    2d38:	0d 44 cd 30 	wl16	r9,0x2670
    2d3c:	0d 60 01 23 	wh16	r9,0x3
    2d40:	10 40 01 29 	ld32	r9,r9
    2d44:	00 00 01 10 	add	r8,r16
    2d48:	20 70 03 e2 	movepc	rret,8
    2d4c:	14 30 f4 b1 	br	10 <compare>,#al
    2d50:	00 10 00 41 	add	r2,1
    2d54:	0d 40 6d 14 	wl16	r8,0x374
    2d58:	0d 60 01 03 	wh16	r8,0x3
    2d5c:	10 40 01 08 	ld32	r8,r8
    2d60:	0d 42 9e 14 	wl16	r16,0x14f4
    2d64:	0d 60 02 03 	wh16	r16,0x3
    2d68:	10 40 02 10 	ld32	r16,r16
    2d6c:	0d 44 cd 34 	wl16	r9,0x2674
    2d70:	0d 60 01 23 	wh16	r9,0x3
    2d74:	10 40 01 29 	ld32	r9,r9
    2d78:	00 00 01 10 	add	r8,r16
    2d7c:	20 70 03 e2 	movepc	rret,8
    2d80:	14 30 f4 a4 	br	10 <compare>,#al
    2d84:	00 10 00 41 	add	r2,1
    2d88:	0d 40 6d 18 	wl16	r8,0x378
    2d8c:	0d 60 01 03 	wh16	r8,0x3
    2d90:	10 40 01 08 	ld32	r8,r8
    2d94:	0d 42 9e 18 	wl16	r16,0x14f8
    2d98:	0d 60 02 03 	wh16	r16,0x3
    2d9c:	10 40 02 10 	ld32	r16,r16
    2da0:	0d 44 cd 38 	wl16	r9,0x2678
    2da4:	0d 60 01 23 	wh16	r9,0x3
    2da8:	10 40 01 29 	ld32	r9,r9
    2dac:	00 00 01 10 	add	r8,r16
    2db0:	20 70 03 e2 	movepc	rret,8
    2db4:	14 30 f4 97 	br	10 <compare>,#al
    2db8:	00 10 00 41 	add	r2,1
    2dbc:	0d 40 6d 1c 	wl16	r8,0x37c
    2dc0:	0d 60 01 03 	wh16	r8,0x3
    2dc4:	10 40 01 08 	ld32	r8,r8
    2dc8:	0d 42 9e 1c 	wl16	r16,0x14fc
    2dcc:	0d 60 02 03 	wh16	r16,0x3
    2dd0:	10 40 02 10 	ld32	r16,r16
    2dd4:	0d 44 cd 3c 	wl16	r9,0x267c
    2dd8:	0d 60 01 23 	wh16	r9,0x3
    2ddc:	10 40 01 29 	ld32	r9,r9
    2de0:	00 00 01 10 	add	r8,r16
    2de4:	20 70 03 e2 	movepc	rret,8
    2de8:	14 30 f4 8a 	br	10 <compare>,#al
    2dec:	00 10 00 41 	add	r2,1
    2df0:	0d 40 71 00 	wl16	r8,0x380
    2df4:	0d 60 01 03 	wh16	r8,0x3
    2df8:	10 40 01 08 	ld32	r8,r8
    2dfc:	0d 42 a2 00 	wl16	r16,0x1500
    2e00:	0d 60 02 03 	wh16	r16,0x3
    2e04:	10 40 02 10 	ld32	r16,r16
    2e08:	0d 44 d1 20 	wl16	r9,0x2680
    2e0c:	0d 60 01 23 	wh16	r9,0x3
    2e10:	10 40 01 29 	ld32	r9,r9
    2e14:	00 00 01 10 	add	r8,r16
    2e18:	20 70 03 e2 	movepc	rret,8
    2e1c:	14 30 f4 7d 	br	10 <compare>,#al
    2e20:	00 10 00 41 	add	r2,1
    2e24:	0d 40 71 04 	wl16	r8,0x384
    2e28:	0d 60 01 03 	wh16	r8,0x3
    2e2c:	10 40 01 08 	ld32	r8,r8
    2e30:	0d 42 a2 04 	wl16	r16,0x1504
    2e34:	0d 60 02 03 	wh16	r16,0x3
    2e38:	10 40 02 10 	ld32	r16,r16
    2e3c:	0d 44 d1 24 	wl16	r9,0x2684
    2e40:	0d 60 01 23 	wh16	r9,0x3
    2e44:	10 40 01 29 	ld32	r9,r9
    2e48:	00 00 01 10 	add	r8,r16
    2e4c:	20 70 03 e2 	movepc	rret,8
    2e50:	14 30 f4 70 	br	10 <compare>,#al
    2e54:	00 10 00 41 	add	r2,1
    2e58:	0d 40 71 08 	wl16	r8,0x388
    2e5c:	0d 60 01 03 	wh16	r8,0x3
    2e60:	10 40 01 08 	ld32	r8,r8
    2e64:	0d 42 a2 08 	wl16	r16,0x1508
    2e68:	0d 60 02 03 	wh16	r16,0x3
    2e6c:	10 40 02 10 	ld32	r16,r16
    2e70:	0d 44 d1 28 	wl16	r9,0x2688
    2e74:	0d 60 01 23 	wh16	r9,0x3
    2e78:	10 40 01 29 	ld32	r9,r9
    2e7c:	00 00 01 10 	add	r8,r16
    2e80:	20 70 03 e2 	movepc	rret,8
    2e84:	14 30 f4 63 	br	10 <compare>,#al
    2e88:	00 10 00 41 	add	r2,1
    2e8c:	0d 40 71 0c 	wl16	r8,0x38c
    2e90:	0d 60 01 03 	wh16	r8,0x3
    2e94:	10 40 01 08 	ld32	r8,r8
    2e98:	0d 42 a2 0c 	wl16	r16,0x150c
    2e9c:	0d 60 02 03 	wh16	r16,0x3
    2ea0:	10 40 02 10 	ld32	r16,r16
    2ea4:	0d 44 d1 2c 	wl16	r9,0x268c
    2ea8:	0d 60 01 23 	wh16	r9,0x3
    2eac:	10 40 01 29 	ld32	r9,r9
    2eb0:	00 00 01 10 	add	r8,r16
    2eb4:	20 70 03 e2 	movepc	rret,8
    2eb8:	14 30 f4 56 	br	10 <compare>,#al
    2ebc:	00 10 00 41 	add	r2,1
    2ec0:	0d 40 71 10 	wl16	r8,0x390
    2ec4:	0d 60 01 03 	wh16	r8,0x3
    2ec8:	10 40 01 08 	ld32	r8,r8
    2ecc:	0d 42 a2 10 	wl16	r16,0x1510
    2ed0:	0d 60 02 03 	wh16	r16,0x3
    2ed4:	10 40 02 10 	ld32	r16,r16
    2ed8:	0d 44 d1 30 	wl16	r9,0x2690
    2edc:	0d 60 01 23 	wh16	r9,0x3
    2ee0:	10 40 01 29 	ld32	r9,r9
    2ee4:	00 00 01 10 	add	r8,r16
    2ee8:	20 70 03 e2 	movepc	rret,8
    2eec:	14 30 f4 49 	br	10 <compare>,#al
    2ef0:	00 10 00 41 	add	r2,1
    2ef4:	0d 40 71 14 	wl16	r8,0x394
    2ef8:	0d 60 01 03 	wh16	r8,0x3
    2efc:	10 40 01 08 	ld32	r8,r8
    2f00:	0d 42 a2 14 	wl16	r16,0x1514
    2f04:	0d 60 02 03 	wh16	r16,0x3
    2f08:	10 40 02 10 	ld32	r16,r16
    2f0c:	0d 44 d1 34 	wl16	r9,0x2694
    2f10:	0d 60 01 23 	wh16	r9,0x3
    2f14:	10 40 01 29 	ld32	r9,r9
    2f18:	00 00 01 10 	add	r8,r16
    2f1c:	20 70 03 e2 	movepc	rret,8
    2f20:	14 30 f4 3c 	br	10 <compare>,#al
    2f24:	00 10 00 41 	add	r2,1
    2f28:	0d 40 71 18 	wl16	r8,0x398
    2f2c:	0d 60 01 03 	wh16	r8,0x3
    2f30:	10 40 01 08 	ld32	r8,r8
    2f34:	0d 42 a2 18 	wl16	r16,0x1518
    2f38:	0d 60 02 03 	wh16	r16,0x3
    2f3c:	10 40 02 10 	ld32	r16,r16
    2f40:	0d 44 d1 38 	wl16	r9,0x2698
    2f44:	0d 60 01 23 	wh16	r9,0x3
    2f48:	10 40 01 29 	ld32	r9,r9
    2f4c:	00 00 01 10 	add	r8,r16
    2f50:	20 70 03 e2 	movepc	rret,8
    2f54:	14 30 f4 2f 	br	10 <compare>,#al
    2f58:	00 10 00 41 	add	r2,1
    2f5c:	0d 40 71 1c 	wl16	r8,0x39c
    2f60:	0d 60 01 03 	wh16	r8,0x3
    2f64:	10 40 01 08 	ld32	r8,r8
    2f68:	0d 42 a2 1c 	wl16	r16,0x151c
    2f6c:	0d 60 02 03 	wh16	r16,0x3
    2f70:	10 40 02 10 	ld32	r16,r16
    2f74:	0d 44 d1 3c 	wl16	r9,0x269c
    2f78:	0d 60 01 23 	wh16	r9,0x3
    2f7c:	10 40 01 29 	ld32	r9,r9
    2f80:	00 00 01 10 	add	r8,r16
    2f84:	20 70 03 e2 	movepc	rret,8
    2f88:	14 30 f4 22 	br	10 <compare>,#al
    2f8c:	00 10 00 41 	add	r2,1
    2f90:	0d 40 75 00 	wl16	r8,0x3a0
    2f94:	0d 60 01 03 	wh16	r8,0x3
    2f98:	10 40 01 08 	ld32	r8,r8
    2f9c:	0d 42 a6 00 	wl16	r16,0x1520
    2fa0:	0d 60 02 03 	wh16	r16,0x3
    2fa4:	10 40 02 10 	ld32	r16,r16
    2fa8:	0d 44 d5 20 	wl16	r9,0x26a0
    2fac:	0d 60 01 23 	wh16	r9,0x3
    2fb0:	10 40 01 29 	ld32	r9,r9
    2fb4:	00 00 01 10 	add	r8,r16
    2fb8:	20 70 03 e2 	movepc	rret,8
    2fbc:	14 30 f4 15 	br	10 <compare>,#al
    2fc0:	00 10 00 41 	add	r2,1
    2fc4:	0d 40 75 04 	wl16	r8,0x3a4
    2fc8:	0d 60 01 03 	wh16	r8,0x3
    2fcc:	10 40 01 08 	ld32	r8,r8
    2fd0:	0d 42 a6 04 	wl16	r16,0x1524
    2fd4:	0d 60 02 03 	wh16	r16,0x3
    2fd8:	10 40 02 10 	ld32	r16,r16
    2fdc:	0d 44 d5 24 	wl16	r9,0x26a4
    2fe0:	0d 60 01 23 	wh16	r9,0x3
    2fe4:	10 40 01 29 	ld32	r9,r9
    2fe8:	00 00 01 10 	add	r8,r16
    2fec:	20 70 03 e2 	movepc	rret,8
    2ff0:	14 30 f4 08 	br	10 <compare>,#al
    2ff4:	00 10 00 41 	add	r2,1
    2ff8:	0d 40 75 08 	wl16	r8,0x3a8
    2ffc:	0d 60 01 03 	wh16	r8,0x3
    3000:	10 40 01 08 	ld32	r8,r8
    3004:	0d 42 a6 08 	wl16	r16,0x1528
    3008:	0d 60 02 03 	wh16	r16,0x3
    300c:	10 40 02 10 	ld32	r16,r16
    3010:	0d 44 d5 28 	wl16	r9,0x26a8
    3014:	0d 60 01 23 	wh16	r9,0x3
    3018:	10 40 01 29 	ld32	r9,r9
    301c:	00 00 01 10 	add	r8,r16
    3020:	20 70 03 e2 	movepc	rret,8
    3024:	14 30 f3 fb 	br	10 <compare>,#al
    3028:	00 10 00 41 	add	r2,1
    302c:	0d 40 75 0c 	wl16	r8,0x3ac
    3030:	0d 60 01 03 	wh16	r8,0x3
    3034:	10 40 01 08 	ld32	r8,r8
    3038:	0d 42 a6 0c 	wl16	r16,0x152c
    303c:	0d 60 02 03 	wh16	r16,0x3
    3040:	10 40 02 10 	ld32	r16,r16
    3044:	0d 44 d5 2c 	wl16	r9,0x26ac
    3048:	0d 60 01 23 	wh16	r9,0x3
    304c:	10 40 01 29 	ld32	r9,r9
    3050:	00 00 01 10 	add	r8,r16
    3054:	20 70 03 e2 	movepc	rret,8
    3058:	14 30 f3 ee 	br	10 <compare>,#al
    305c:	00 10 00 41 	add	r2,1
    3060:	0d 40 75 10 	wl16	r8,0x3b0
    3064:	0d 60 01 03 	wh16	r8,0x3
    3068:	10 40 01 08 	ld32	r8,r8
    306c:	0d 42 a6 10 	wl16	r16,0x1530
    3070:	0d 60 02 03 	wh16	r16,0x3
    3074:	10 40 02 10 	ld32	r16,r16
    3078:	0d 44 d5 30 	wl16	r9,0x26b0
    307c:	0d 60 01 23 	wh16	r9,0x3
    3080:	10 40 01 29 	ld32	r9,r9
    3084:	00 00 01 10 	add	r8,r16
    3088:	20 70 03 e2 	movepc	rret,8
    308c:	14 30 f3 e1 	br	10 <compare>,#al
    3090:	00 10 00 41 	add	r2,1
    3094:	0d 40 75 14 	wl16	r8,0x3b4
    3098:	0d 60 01 03 	wh16	r8,0x3
    309c:	10 40 01 08 	ld32	r8,r8
    30a0:	0d 42 a6 14 	wl16	r16,0x1534
    30a4:	0d 60 02 03 	wh16	r16,0x3
    30a8:	10 40 02 10 	ld32	r16,r16
    30ac:	0d 44 d5 34 	wl16	r9,0x26b4
    30b0:	0d 60 01 23 	wh16	r9,0x3
    30b4:	10 40 01 29 	ld32	r9,r9
    30b8:	00 00 01 10 	add	r8,r16
    30bc:	20 70 03 e2 	movepc	rret,8
    30c0:	14 30 f3 d4 	br	10 <compare>,#al
    30c4:	00 10 00 41 	add	r2,1
    30c8:	0d 40 75 18 	wl16	r8,0x3b8
    30cc:	0d 60 01 03 	wh16	r8,0x3
    30d0:	10 40 01 08 	ld32	r8,r8
    30d4:	0d 42 a6 18 	wl16	r16,0x1538
    30d8:	0d 60 02 03 	wh16	r16,0x3
    30dc:	10 40 02 10 	ld32	r16,r16
    30e0:	0d 44 d5 38 	wl16	r9,0x26b8
    30e4:	0d 60 01 23 	wh16	r9,0x3
    30e8:	10 40 01 29 	ld32	r9,r9
    30ec:	00 00 01 10 	add	r8,r16
    30f0:	20 70 03 e2 	movepc	rret,8
    30f4:	14 30 f3 c7 	br	10 <compare>,#al
    30f8:	00 10 00 41 	add	r2,1
    30fc:	0d 40 75 1c 	wl16	r8,0x3bc
    3100:	0d 60 01 03 	wh16	r8,0x3
    3104:	10 40 01 08 	ld32	r8,r8
    3108:	0d 42 a6 1c 	wl16	r16,0x153c
    310c:	0d 60 02 03 	wh16	r16,0x3
    3110:	10 40 02 10 	ld32	r16,r16
    3114:	0d 44 d5 3c 	wl16	r9,0x26bc
    3118:	0d 60 01 23 	wh16	r9,0x3
    311c:	10 40 01 29 	ld32	r9,r9
    3120:	00 00 01 10 	add	r8,r16
    3124:	20 70 03 e2 	movepc	rret,8
    3128:	14 30 f3 ba 	br	10 <compare>,#al
    312c:	00 10 00 41 	add	r2,1
    3130:	0d 40 79 00 	wl16	r8,0x3c0
    3134:	0d 60 01 03 	wh16	r8,0x3
    3138:	10 40 01 08 	ld32	r8,r8
    313c:	0d 42 aa 00 	wl16	r16,0x1540
    3140:	0d 60 02 03 	wh16	r16,0x3
    3144:	10 40 02 10 	ld32	r16,r16
    3148:	0d 44 d9 20 	wl16	r9,0x26c0
    314c:	0d 60 01 23 	wh16	r9,0x3
    3150:	10 40 01 29 	ld32	r9,r9
    3154:	00 00 01 10 	add	r8,r16
    3158:	20 70 03 e2 	movepc	rret,8
    315c:	14 30 f3 ad 	br	10 <compare>,#al
    3160:	00 10 00 41 	add	r2,1
    3164:	0d 40 79 04 	wl16	r8,0x3c4
    3168:	0d 60 01 03 	wh16	r8,0x3
    316c:	10 40 01 08 	ld32	r8,r8
    3170:	0d 42 aa 04 	wl16	r16,0x1544
    3174:	0d 60 02 03 	wh16	r16,0x3
    3178:	10 40 02 10 	ld32	r16,r16
    317c:	0d 44 d9 24 	wl16	r9,0x26c4
    3180:	0d 60 01 23 	wh16	r9,0x3
    3184:	10 40 01 29 	ld32	r9,r9
    3188:	00 00 01 10 	add	r8,r16
    318c:	20 70 03 e2 	movepc	rret,8
    3190:	14 30 f3 a0 	br	10 <compare>,#al
    3194:	00 10 00 41 	add	r2,1
    3198:	0d 40 79 08 	wl16	r8,0x3c8
    319c:	0d 60 01 03 	wh16	r8,0x3
    31a0:	10 40 01 08 	ld32	r8,r8
    31a4:	0d 42 aa 08 	wl16	r16,0x1548
    31a8:	0d 60 02 03 	wh16	r16,0x3
    31ac:	10 40 02 10 	ld32	r16,r16
    31b0:	0d 44 d9 28 	wl16	r9,0x26c8
    31b4:	0d 60 01 23 	wh16	r9,0x3
    31b8:	10 40 01 29 	ld32	r9,r9
    31bc:	00 00 01 10 	add	r8,r16
    31c0:	20 70 03 e2 	movepc	rret,8
    31c4:	14 30 f3 93 	br	10 <compare>,#al
    31c8:	00 10 00 41 	add	r2,1
    31cc:	0d 40 79 0c 	wl16	r8,0x3cc
    31d0:	0d 60 01 03 	wh16	r8,0x3
    31d4:	10 40 01 08 	ld32	r8,r8
    31d8:	0d 42 aa 0c 	wl16	r16,0x154c
    31dc:	0d 60 02 03 	wh16	r16,0x3
    31e0:	10 40 02 10 	ld32	r16,r16
    31e4:	0d 44 d9 2c 	wl16	r9,0x26cc
    31e8:	0d 60 01 23 	wh16	r9,0x3
    31ec:	10 40 01 29 	ld32	r9,r9
    31f0:	00 00 01 10 	add	r8,r16
    31f4:	20 70 03 e2 	movepc	rret,8
    31f8:	14 30 f3 86 	br	10 <compare>,#al
    31fc:	00 10 00 41 	add	r2,1
    3200:	0d 40 79 10 	wl16	r8,0x3d0
    3204:	0d 60 01 03 	wh16	r8,0x3
    3208:	10 40 01 08 	ld32	r8,r8
    320c:	0d 42 aa 10 	wl16	r16,0x1550
    3210:	0d 60 02 03 	wh16	r16,0x3
    3214:	10 40 02 10 	ld32	r16,r16
    3218:	0d 44 d9 30 	wl16	r9,0x26d0
    321c:	0d 60 01 23 	wh16	r9,0x3
    3220:	10 40 01 29 	ld32	r9,r9
    3224:	00 00 01 10 	add	r8,r16
    3228:	20 70 03 e2 	movepc	rret,8
    322c:	14 30 f3 79 	br	10 <compare>,#al
    3230:	00 10 00 41 	add	r2,1
    3234:	0d 40 79 14 	wl16	r8,0x3d4
    3238:	0d 60 01 03 	wh16	r8,0x3
    323c:	10 40 01 08 	ld32	r8,r8
    3240:	0d 42 aa 14 	wl16	r16,0x1554
    3244:	0d 60 02 03 	wh16	r16,0x3
    3248:	10 40 02 10 	ld32	r16,r16
    324c:	0d 44 d9 34 	wl16	r9,0x26d4
    3250:	0d 60 01 23 	wh16	r9,0x3
    3254:	10 40 01 29 	ld32	r9,r9
    3258:	00 00 01 10 	add	r8,r16
    325c:	20 70 03 e2 	movepc	rret,8
    3260:	14 30 f3 6c 	br	10 <compare>,#al
    3264:	00 10 00 41 	add	r2,1
    3268:	0d 40 79 18 	wl16	r8,0x3d8
    326c:	0d 60 01 03 	wh16	r8,0x3
    3270:	10 40 01 08 	ld32	r8,r8
    3274:	0d 42 aa 18 	wl16	r16,0x1558
    3278:	0d 60 02 03 	wh16	r16,0x3
    327c:	10 40 02 10 	ld32	r16,r16
    3280:	0d 44 d9 38 	wl16	r9,0x26d8
    3284:	0d 60 01 23 	wh16	r9,0x3
    3288:	10 40 01 29 	ld32	r9,r9
    328c:	00 00 01 10 	add	r8,r16
    3290:	20 70 03 e2 	movepc	rret,8
    3294:	14 30 f3 5f 	br	10 <compare>,#al
    3298:	00 10 00 41 	add	r2,1
    329c:	0d 40 79 1c 	wl16	r8,0x3dc
    32a0:	0d 60 01 03 	wh16	r8,0x3
    32a4:	10 40 01 08 	ld32	r8,r8
    32a8:	0d 42 aa 1c 	wl16	r16,0x155c
    32ac:	0d 60 02 03 	wh16	r16,0x3
    32b0:	10 40 02 10 	ld32	r16,r16
    32b4:	0d 44 d9 3c 	wl16	r9,0x26dc
    32b8:	0d 60 01 23 	wh16	r9,0x3
    32bc:	10 40 01 29 	ld32	r9,r9
    32c0:	00 00 01 10 	add	r8,r16
    32c4:	20 70 03 e2 	movepc	rret,8
    32c8:	14 30 f3 52 	br	10 <compare>,#al
    32cc:	00 10 00 41 	add	r2,1
    32d0:	0d 40 7d 00 	wl16	r8,0x3e0
    32d4:	0d 60 01 03 	wh16	r8,0x3
    32d8:	10 40 01 08 	ld32	r8,r8
    32dc:	0d 42 ae 00 	wl16	r16,0x1560
    32e0:	0d 60 02 03 	wh16	r16,0x3
    32e4:	10 40 02 10 	ld32	r16,r16
    32e8:	0d 44 dd 20 	wl16	r9,0x26e0
    32ec:	0d 60 01 23 	wh16	r9,0x3
    32f0:	10 40 01 29 	ld32	r9,r9
    32f4:	00 00 01 10 	add	r8,r16
    32f8:	20 70 03 e2 	movepc	rret,8
    32fc:	14 30 f3 45 	br	10 <compare>,#al
    3300:	00 10 00 41 	add	r2,1
    3304:	0d 40 7d 04 	wl16	r8,0x3e4
    3308:	0d 60 01 03 	wh16	r8,0x3
    330c:	10 40 01 08 	ld32	r8,r8
    3310:	0d 42 ae 04 	wl16	r16,0x1564
    3314:	0d 60 02 03 	wh16	r16,0x3
    3318:	10 40 02 10 	ld32	r16,r16
    331c:	0d 44 dd 24 	wl16	r9,0x26e4
    3320:	0d 60 01 23 	wh16	r9,0x3
    3324:	10 40 01 29 	ld32	r9,r9
    3328:	00 00 01 10 	add	r8,r16
    332c:	20 70 03 e2 	movepc	rret,8
    3330:	14 30 f3 38 	br	10 <compare>,#al
    3334:	00 10 00 41 	add	r2,1
    3338:	0d 40 7d 08 	wl16	r8,0x3e8
    333c:	0d 60 01 03 	wh16	r8,0x3
    3340:	10 40 01 08 	ld32	r8,r8
    3344:	0d 42 ae 08 	wl16	r16,0x1568
    3348:	0d 60 02 03 	wh16	r16,0x3
    334c:	10 40 02 10 	ld32	r16,r16
    3350:	0d 44 dd 28 	wl16	r9,0x26e8
    3354:	0d 60 01 23 	wh16	r9,0x3
    3358:	10 40 01 29 	ld32	r9,r9
    335c:	00 00 01 10 	add	r8,r16
    3360:	20 70 03 e2 	movepc	rret,8
    3364:	14 30 f3 2b 	br	10 <compare>,#al
    3368:	00 10 00 41 	add	r2,1
    336c:	0d 40 7d 0c 	wl16	r8,0x3ec
    3370:	0d 60 01 03 	wh16	r8,0x3
    3374:	10 40 01 08 	ld32	r8,r8
    3378:	0d 42 ae 0c 	wl16	r16,0x156c
    337c:	0d 60 02 03 	wh16	r16,0x3
    3380:	10 40 02 10 	ld32	r16,r16
    3384:	0d 44 dd 2c 	wl16	r9,0x26ec
    3388:	0d 60 01 23 	wh16	r9,0x3
    338c:	10 40 01 29 	ld32	r9,r9
    3390:	00 00 01 10 	add	r8,r16
    3394:	20 70 03 e2 	movepc	rret,8
    3398:	14 30 f3 1e 	br	10 <compare>,#al
    339c:	00 10 00 41 	add	r2,1
    33a0:	0d 40 7d 10 	wl16	r8,0x3f0
    33a4:	0d 60 01 03 	wh16	r8,0x3
    33a8:	10 40 01 08 	ld32	r8,r8
    33ac:	0d 42 ae 10 	wl16	r16,0x1570
    33b0:	0d 60 02 03 	wh16	r16,0x3
    33b4:	10 40 02 10 	ld32	r16,r16
    33b8:	0d 44 dd 30 	wl16	r9,0x26f0
    33bc:	0d 60 01 23 	wh16	r9,0x3
    33c0:	10 40 01 29 	ld32	r9,r9
    33c4:	00 00 01 10 	add	r8,r16
    33c8:	20 70 03 e2 	movepc	rret,8
    33cc:	14 30 f3 11 	br	10 <compare>,#al
    33d0:	00 10 00 41 	add	r2,1
    33d4:	0d 40 7d 14 	wl16	r8,0x3f4
    33d8:	0d 60 01 03 	wh16	r8,0x3
    33dc:	10 40 01 08 	ld32	r8,r8
    33e0:	0d 42 ae 14 	wl16	r16,0x1574
    33e4:	0d 60 02 03 	wh16	r16,0x3
    33e8:	10 40 02 10 	ld32	r16,r16
    33ec:	0d 44 dd 34 	wl16	r9,0x26f4
    33f0:	0d 60 01 23 	wh16	r9,0x3
    33f4:	10 40 01 29 	ld32	r9,r9
    33f8:	00 00 01 10 	add	r8,r16
    33fc:	20 70 03 e2 	movepc	rret,8
    3400:	14 30 f3 04 	br	10 <compare>,#al
    3404:	00 10 00 41 	add	r2,1
    3408:	0d 40 7d 18 	wl16	r8,0x3f8
    340c:	0d 60 01 03 	wh16	r8,0x3
    3410:	10 40 01 08 	ld32	r8,r8
    3414:	0d 42 ae 18 	wl16	r16,0x1578
    3418:	0d 60 02 03 	wh16	r16,0x3
    341c:	10 40 02 10 	ld32	r16,r16
    3420:	0d 44 dd 38 	wl16	r9,0x26f8
    3424:	0d 60 01 23 	wh16	r9,0x3
    3428:	10 40 01 29 	ld32	r9,r9
    342c:	00 00 01 10 	add	r8,r16
    3430:	20 70 03 e2 	movepc	rret,8
    3434:	14 30 f2 f7 	br	10 <compare>,#al
    3438:	00 10 00 41 	add	r2,1
    343c:	0d 40 7d 1c 	wl16	r8,0x3fc
    3440:	0d 60 01 03 	wh16	r8,0x3
    3444:	10 40 01 08 	ld32	r8,r8
    3448:	0d 42 ae 1c 	wl16	r16,0x157c
    344c:	0d 60 02 03 	wh16	r16,0x3
    3450:	10 40 02 10 	ld32	r16,r16
    3454:	0d 44 dd 3c 	wl16	r9,0x26fc
    3458:	0d 60 01 23 	wh16	r9,0x3
    345c:	10 40 01 29 	ld32	r9,r9
    3460:	00 00 01 10 	add	r8,r16
    3464:	20 70 03 e2 	movepc	rret,8
    3468:	14 30 f2 ea 	br	10 <compare>,#al
    346c:	00 10 00 41 	add	r2,1
    3470:	0d 40 81 00 	wl16	r8,0x400
    3474:	0d 60 01 03 	wh16	r8,0x3
    3478:	10 40 01 08 	ld32	r8,r8
    347c:	0d 42 b2 00 	wl16	r16,0x1580
    3480:	0d 60 02 03 	wh16	r16,0x3
    3484:	10 40 02 10 	ld32	r16,r16
    3488:	0d 44 e1 20 	wl16	r9,0x2700
    348c:	0d 60 01 23 	wh16	r9,0x3
    3490:	10 40 01 29 	ld32	r9,r9
    3494:	00 00 01 10 	add	r8,r16
    3498:	20 70 03 e2 	movepc	rret,8
    349c:	14 30 f2 dd 	br	10 <compare>,#al
    34a0:	00 10 00 41 	add	r2,1
    34a4:	0d 40 81 04 	wl16	r8,0x404
    34a8:	0d 60 01 03 	wh16	r8,0x3
    34ac:	10 40 01 08 	ld32	r8,r8
    34b0:	0d 42 b2 04 	wl16	r16,0x1584
    34b4:	0d 60 02 03 	wh16	r16,0x3
    34b8:	10 40 02 10 	ld32	r16,r16
    34bc:	0d 44 e1 24 	wl16	r9,0x2704
    34c0:	0d 60 01 23 	wh16	r9,0x3
    34c4:	10 40 01 29 	ld32	r9,r9
    34c8:	00 00 01 10 	add	r8,r16
    34cc:	20 70 03 e2 	movepc	rret,8
    34d0:	14 30 f2 d0 	br	10 <compare>,#al
    34d4:	00 10 00 41 	add	r2,1
    34d8:	0d 40 81 08 	wl16	r8,0x408
    34dc:	0d 60 01 03 	wh16	r8,0x3
    34e0:	10 40 01 08 	ld32	r8,r8
    34e4:	0d 42 b2 08 	wl16	r16,0x1588
    34e8:	0d 60 02 03 	wh16	r16,0x3
    34ec:	10 40 02 10 	ld32	r16,r16
    34f0:	0d 44 e1 28 	wl16	r9,0x2708
    34f4:	0d 60 01 23 	wh16	r9,0x3
    34f8:	10 40 01 29 	ld32	r9,r9
    34fc:	00 00 01 10 	add	r8,r16
    3500:	20 70 03 e2 	movepc	rret,8
    3504:	14 30 f2 c3 	br	10 <compare>,#al
    3508:	00 10 00 41 	add	r2,1
    350c:	0d 40 81 0c 	wl16	r8,0x40c
    3510:	0d 60 01 03 	wh16	r8,0x3
    3514:	10 40 01 08 	ld32	r8,r8
    3518:	0d 42 b2 0c 	wl16	r16,0x158c
    351c:	0d 60 02 03 	wh16	r16,0x3
    3520:	10 40 02 10 	ld32	r16,r16
    3524:	0d 44 e1 2c 	wl16	r9,0x270c
    3528:	0d 60 01 23 	wh16	r9,0x3
    352c:	10 40 01 29 	ld32	r9,r9
    3530:	00 00 01 10 	add	r8,r16
    3534:	20 70 03 e2 	movepc	rret,8
    3538:	14 30 f2 b6 	br	10 <compare>,#al
    353c:	00 10 00 41 	add	r2,1
    3540:	0d 40 81 10 	wl16	r8,0x410
    3544:	0d 60 01 03 	wh16	r8,0x3
    3548:	10 40 01 08 	ld32	r8,r8
    354c:	0d 42 b2 10 	wl16	r16,0x1590
    3550:	0d 60 02 03 	wh16	r16,0x3
    3554:	10 40 02 10 	ld32	r16,r16
    3558:	0d 44 e1 30 	wl16	r9,0x2710
    355c:	0d 60 01 23 	wh16	r9,0x3
    3560:	10 40 01 29 	ld32	r9,r9
    3564:	00 00 01 10 	add	r8,r16
    3568:	20 70 03 e2 	movepc	rret,8
    356c:	14 30 f2 a9 	br	10 <compare>,#al
    3570:	00 10 00 41 	add	r2,1
    3574:	0d 40 81 14 	wl16	r8,0x414
    3578:	0d 60 01 03 	wh16	r8,0x3
    357c:	10 40 01 08 	ld32	r8,r8
    3580:	0d 42 b2 14 	wl16	r16,0x1594
    3584:	0d 60 02 03 	wh16	r16,0x3
    3588:	10 40 02 10 	ld32	r16,r16
    358c:	0d 44 e1 34 	wl16	r9,0x2714
    3590:	0d 60 01 23 	wh16	r9,0x3
    3594:	10 40 01 29 	ld32	r9,r9
    3598:	00 00 01 10 	add	r8,r16
    359c:	20 70 03 e2 	movepc	rret,8
    35a0:	14 30 f2 9c 	br	10 <compare>,#al
    35a4:	00 10 00 41 	add	r2,1
    35a8:	0d 40 81 18 	wl16	r8,0x418
    35ac:	0d 60 01 03 	wh16	r8,0x3
    35b0:	10 40 01 08 	ld32	r8,r8
    35b4:	0d 42 b2 18 	wl16	r16,0x1598
    35b8:	0d 60 02 03 	wh16	r16,0x3
    35bc:	10 40 02 10 	ld32	r16,r16
    35c0:	0d 44 e1 38 	wl16	r9,0x2718
    35c4:	0d 60 01 23 	wh16	r9,0x3
    35c8:	10 40 01 29 	ld32	r9,r9
    35cc:	00 00 01 10 	add	r8,r16
    35d0:	20 70 03 e2 	movepc	rret,8
    35d4:	14 30 f2 8f 	br	10 <compare>,#al
    35d8:	00 10 00 41 	add	r2,1
    35dc:	0d 40 81 1c 	wl16	r8,0x41c
    35e0:	0d 60 01 03 	wh16	r8,0x3
    35e4:	10 40 01 08 	ld32	r8,r8
    35e8:	0d 42 b2 1c 	wl16	r16,0x159c
    35ec:	0d 60 02 03 	wh16	r16,0x3
    35f0:	10 40 02 10 	ld32	r16,r16
    35f4:	0d 44 e1 3c 	wl16	r9,0x271c
    35f8:	0d 60 01 23 	wh16	r9,0x3
    35fc:	10 40 01 29 	ld32	r9,r9
    3600:	00 00 01 10 	add	r8,r16
    3604:	20 70 03 e2 	movepc	rret,8
    3608:	14 30 f2 82 	br	10 <compare>,#al
    360c:	00 10 00 41 	add	r2,1
    3610:	0d 40 85 00 	wl16	r8,0x420
    3614:	0d 60 01 03 	wh16	r8,0x3
    3618:	10 40 01 08 	ld32	r8,r8
    361c:	0d 42 b6 00 	wl16	r16,0x15a0
    3620:	0d 60 02 03 	wh16	r16,0x3
    3624:	10 40 02 10 	ld32	r16,r16
    3628:	0d 44 e5 20 	wl16	r9,0x2720
    362c:	0d 60 01 23 	wh16	r9,0x3
    3630:	10 40 01 29 	ld32	r9,r9
    3634:	00 00 01 10 	add	r8,r16
    3638:	20 70 03 e2 	movepc	rret,8
    363c:	14 30 f2 75 	br	10 <compare>,#al
    3640:	00 10 00 41 	add	r2,1
    3644:	0d 40 85 04 	wl16	r8,0x424
    3648:	0d 60 01 03 	wh16	r8,0x3
    364c:	10 40 01 08 	ld32	r8,r8
    3650:	0d 42 b6 04 	wl16	r16,0x15a4
    3654:	0d 60 02 03 	wh16	r16,0x3
    3658:	10 40 02 10 	ld32	r16,r16
    365c:	0d 44 e5 24 	wl16	r9,0x2724
    3660:	0d 60 01 23 	wh16	r9,0x3
    3664:	10 40 01 29 	ld32	r9,r9
    3668:	00 00 01 10 	add	r8,r16
    366c:	20 70 03 e2 	movepc	rret,8
    3670:	14 30 f2 68 	br	10 <compare>,#al
    3674:	00 10 00 41 	add	r2,1
    3678:	0d 40 85 08 	wl16	r8,0x428
    367c:	0d 60 01 03 	wh16	r8,0x3
    3680:	10 40 01 08 	ld32	r8,r8
    3684:	0d 42 b6 08 	wl16	r16,0x15a8
    3688:	0d 60 02 03 	wh16	r16,0x3
    368c:	10 40 02 10 	ld32	r16,r16
    3690:	0d 44 e5 28 	wl16	r9,0x2728
    3694:	0d 60 01 23 	wh16	r9,0x3
    3698:	10 40 01 29 	ld32	r9,r9
    369c:	00 00 01 10 	add	r8,r16
    36a0:	20 70 03 e2 	movepc	rret,8
    36a4:	14 30 f2 5b 	br	10 <compare>,#al
    36a8:	00 10 00 41 	add	r2,1
    36ac:	0d 40 85 0c 	wl16	r8,0x42c
    36b0:	0d 60 01 03 	wh16	r8,0x3
    36b4:	10 40 01 08 	ld32	r8,r8
    36b8:	0d 42 b6 0c 	wl16	r16,0x15ac
    36bc:	0d 60 02 03 	wh16	r16,0x3
    36c0:	10 40 02 10 	ld32	r16,r16
    36c4:	0d 44 e5 2c 	wl16	r9,0x272c
    36c8:	0d 60 01 23 	wh16	r9,0x3
    36cc:	10 40 01 29 	ld32	r9,r9
    36d0:	00 00 01 10 	add	r8,r16
    36d4:	20 70 03 e2 	movepc	rret,8
    36d8:	14 30 f2 4e 	br	10 <compare>,#al
    36dc:	00 10 00 41 	add	r2,1
    36e0:	0d 40 85 10 	wl16	r8,0x430
    36e4:	0d 60 01 03 	wh16	r8,0x3
    36e8:	10 40 01 08 	ld32	r8,r8
    36ec:	0d 42 b6 10 	wl16	r16,0x15b0
    36f0:	0d 60 02 03 	wh16	r16,0x3
    36f4:	10 40 02 10 	ld32	r16,r16
    36f8:	0d 44 e5 30 	wl16	r9,0x2730
    36fc:	0d 60 01 23 	wh16	r9,0x3
    3700:	10 40 01 29 	ld32	r9,r9
    3704:	00 00 01 10 	add	r8,r16
    3708:	20 70 03 e2 	movepc	rret,8
    370c:	14 30 f2 41 	br	10 <compare>,#al
    3710:	00 10 00 41 	add	r2,1
    3714:	0d 40 85 14 	wl16	r8,0x434
    3718:	0d 60 01 03 	wh16	r8,0x3
    371c:	10 40 01 08 	ld32	r8,r8
    3720:	0d 42 b6 14 	wl16	r16,0x15b4
    3724:	0d 60 02 03 	wh16	r16,0x3
    3728:	10 40 02 10 	ld32	r16,r16
    372c:	0d 44 e5 34 	wl16	r9,0x2734
    3730:	0d 60 01 23 	wh16	r9,0x3
    3734:	10 40 01 29 	ld32	r9,r9
    3738:	00 00 01 10 	add	r8,r16
    373c:	20 70 03 e2 	movepc	rret,8
    3740:	14 30 f2 34 	br	10 <compare>,#al
    3744:	00 10 00 41 	add	r2,1
    3748:	0d 40 85 18 	wl16	r8,0x438
    374c:	0d 60 01 03 	wh16	r8,0x3
    3750:	10 40 01 08 	ld32	r8,r8
    3754:	0d 42 b6 18 	wl16	r16,0x15b8
    3758:	0d 60 02 03 	wh16	r16,0x3
    375c:	10 40 02 10 	ld32	r16,r16
    3760:	0d 44 e5 38 	wl16	r9,0x2738
    3764:	0d 60 01 23 	wh16	r9,0x3
    3768:	10 40 01 29 	ld32	r9,r9
    376c:	00 00 01 10 	add	r8,r16
    3770:	20 70 03 e2 	movepc	rret,8
    3774:	14 30 f2 27 	br	10 <compare>,#al
    3778:	00 10 00 41 	add	r2,1
    377c:	0d 40 85 1c 	wl16	r8,0x43c
    3780:	0d 60 01 03 	wh16	r8,0x3
    3784:	10 40 01 08 	ld32	r8,r8
    3788:	0d 42 b6 1c 	wl16	r16,0x15bc
    378c:	0d 60 02 03 	wh16	r16,0x3
    3790:	10 40 02 10 	ld32	r16,r16
    3794:	0d 44 e5 3c 	wl16	r9,0x273c
    3798:	0d 60 01 23 	wh16	r9,0x3
    379c:	10 40 01 29 	ld32	r9,r9
    37a0:	00 00 01 10 	add	r8,r16
    37a4:	20 70 03 e2 	movepc	rret,8
    37a8:	14 30 f2 1a 	br	10 <compare>,#al
    37ac:	00 10 00 41 	add	r2,1
    37b0:	0d 40 89 00 	wl16	r8,0x440
    37b4:	0d 60 01 03 	wh16	r8,0x3
    37b8:	10 40 01 08 	ld32	r8,r8
    37bc:	0d 42 ba 00 	wl16	r16,0x15c0
    37c0:	0d 60 02 03 	wh16	r16,0x3
    37c4:	10 40 02 10 	ld32	r16,r16
    37c8:	0d 44 e9 20 	wl16	r9,0x2740
    37cc:	0d 60 01 23 	wh16	r9,0x3
    37d0:	10 40 01 29 	ld32	r9,r9
    37d4:	00 00 01 10 	add	r8,r16
    37d8:	20 70 03 e2 	movepc	rret,8
    37dc:	14 30 f2 0d 	br	10 <compare>,#al
    37e0:	00 10 00 41 	add	r2,1
    37e4:	0d 40 89 04 	wl16	r8,0x444
    37e8:	0d 60 01 03 	wh16	r8,0x3
    37ec:	10 40 01 08 	ld32	r8,r8
    37f0:	0d 42 ba 04 	wl16	r16,0x15c4
    37f4:	0d 60 02 03 	wh16	r16,0x3
    37f8:	10 40 02 10 	ld32	r16,r16
    37fc:	0d 44 e9 24 	wl16	r9,0x2744
    3800:	0d 60 01 23 	wh16	r9,0x3
    3804:	10 40 01 29 	ld32	r9,r9
    3808:	00 00 01 10 	add	r8,r16
    380c:	20 70 03 e2 	movepc	rret,8
    3810:	14 30 f2 00 	br	10 <compare>,#al
    3814:	00 10 00 41 	add	r2,1
    3818:	0d 40 89 08 	wl16	r8,0x448
    381c:	0d 60 01 03 	wh16	r8,0x3
    3820:	10 40 01 08 	ld32	r8,r8
    3824:	0d 42 ba 08 	wl16	r16,0x15c8
    3828:	0d 60 02 03 	wh16	r16,0x3
    382c:	10 40 02 10 	ld32	r16,r16
    3830:	0d 44 e9 28 	wl16	r9,0x2748
    3834:	0d 60 01 23 	wh16	r9,0x3
    3838:	10 40 01 29 	ld32	r9,r9
    383c:	00 00 01 10 	add	r8,r16
    3840:	20 70 03 e2 	movepc	rret,8
    3844:	14 30 f1 f3 	br	10 <compare>,#al
    3848:	00 10 00 41 	add	r2,1
    384c:	0d 40 89 0c 	wl16	r8,0x44c
    3850:	0d 60 01 03 	wh16	r8,0x3
    3854:	10 40 01 08 	ld32	r8,r8
    3858:	0d 42 ba 0c 	wl16	r16,0x15cc
    385c:	0d 60 02 03 	wh16	r16,0x3
    3860:	10 40 02 10 	ld32	r16,r16
    3864:	0d 44 e9 2c 	wl16	r9,0x274c
    3868:	0d 60 01 23 	wh16	r9,0x3
    386c:	10 40 01 29 	ld32	r9,r9
    3870:	00 00 01 10 	add	r8,r16
    3874:	20 70 03 e2 	movepc	rret,8
    3878:	14 30 f1 e6 	br	10 <compare>,#al
    387c:	00 10 00 41 	add	r2,1
    3880:	0d 40 89 10 	wl16	r8,0x450
    3884:	0d 60 01 03 	wh16	r8,0x3
    3888:	10 40 01 08 	ld32	r8,r8
    388c:	0d 42 ba 10 	wl16	r16,0x15d0
    3890:	0d 60 02 03 	wh16	r16,0x3
    3894:	10 40 02 10 	ld32	r16,r16
    3898:	0d 44 e9 30 	wl16	r9,0x2750
    389c:	0d 60 01 23 	wh16	r9,0x3
    38a0:	10 40 01 29 	ld32	r9,r9
    38a4:	00 00 01 10 	add	r8,r16
    38a8:	20 70 03 e2 	movepc	rret,8
    38ac:	14 30 f1 d9 	br	10 <compare>,#al
    38b0:	00 10 00 41 	add	r2,1
    38b4:	0d 40 89 14 	wl16	r8,0x454
    38b8:	0d 60 01 03 	wh16	r8,0x3
    38bc:	10 40 01 08 	ld32	r8,r8
    38c0:	0d 42 ba 14 	wl16	r16,0x15d4
    38c4:	0d 60 02 03 	wh16	r16,0x3
    38c8:	10 40 02 10 	ld32	r16,r16
    38cc:	0d 44 e9 34 	wl16	r9,0x2754
    38d0:	0d 60 01 23 	wh16	r9,0x3
    38d4:	10 40 01 29 	ld32	r9,r9
    38d8:	00 00 01 10 	add	r8,r16
    38dc:	20 70 03 e2 	movepc	rret,8
    38e0:	14 30 f1 cc 	br	10 <compare>,#al
    38e4:	00 10 00 41 	add	r2,1
    38e8:	0d 40 89 18 	wl16	r8,0x458
    38ec:	0d 60 01 03 	wh16	r8,0x3
    38f0:	10 40 01 08 	ld32	r8,r8
    38f4:	0d 42 ba 18 	wl16	r16,0x15d8
    38f8:	0d 60 02 03 	wh16	r16,0x3
    38fc:	10 40 02 10 	ld32	r16,r16
    3900:	0d 44 e9 38 	wl16	r9,0x2758
    3904:	0d 60 01 23 	wh16	r9,0x3
    3908:	10 40 01 29 	ld32	r9,r9
    390c:	00 00 01 10 	add	r8,r16
    3910:	20 70 03 e2 	movepc	rret,8
    3914:	14 30 f1 bf 	br	10 <compare>,#al
    3918:	00 10 00 41 	add	r2,1
    391c:	0d 40 89 1c 	wl16	r8,0x45c
    3920:	0d 60 01 03 	wh16	r8,0x3
    3924:	10 40 01 08 	ld32	r8,r8
    3928:	0d 42 ba 1c 	wl16	r16,0x15dc
    392c:	0d 60 02 03 	wh16	r16,0x3
    3930:	10 40 02 10 	ld32	r16,r16
    3934:	0d 44 e9 3c 	wl16	r9,0x275c
    3938:	0d 60 01 23 	wh16	r9,0x3
    393c:	10 40 01 29 	ld32	r9,r9
    3940:	00 00 01 10 	add	r8,r16
    3944:	20 70 03 e2 	movepc	rret,8
    3948:	14 30 f1 b2 	br	10 <compare>,#al
    394c:	00 10 00 41 	add	r2,1
    3950:	0d 40 8d 00 	wl16	r8,0x460
    3954:	0d 60 01 03 	wh16	r8,0x3
    3958:	10 40 01 08 	ld32	r8,r8
    395c:	0d 42 be 00 	wl16	r16,0x15e0
    3960:	0d 60 02 03 	wh16	r16,0x3
    3964:	10 40 02 10 	ld32	r16,r16
    3968:	0d 44 ed 20 	wl16	r9,0x2760
    396c:	0d 60 01 23 	wh16	r9,0x3
    3970:	10 40 01 29 	ld32	r9,r9
    3974:	00 00 01 10 	add	r8,r16
    3978:	20 70 03 e2 	movepc	rret,8
    397c:	14 30 f1 a5 	br	10 <compare>,#al
    3980:	00 10 00 41 	add	r2,1
    3984:	0d 40 8d 04 	wl16	r8,0x464
    3988:	0d 60 01 03 	wh16	r8,0x3
    398c:	10 40 01 08 	ld32	r8,r8
    3990:	0d 42 be 04 	wl16	r16,0x15e4
    3994:	0d 60 02 03 	wh16	r16,0x3
    3998:	10 40 02 10 	ld32	r16,r16
    399c:	0d 44 ed 24 	wl16	r9,0x2764
    39a0:	0d 60 01 23 	wh16	r9,0x3
    39a4:	10 40 01 29 	ld32	r9,r9
    39a8:	00 00 01 10 	add	r8,r16
    39ac:	20 70 03 e2 	movepc	rret,8
    39b0:	14 30 f1 98 	br	10 <compare>,#al
    39b4:	00 10 00 41 	add	r2,1
    39b8:	0d 40 8d 08 	wl16	r8,0x468
    39bc:	0d 60 01 03 	wh16	r8,0x3
    39c0:	10 40 01 08 	ld32	r8,r8
    39c4:	0d 42 be 08 	wl16	r16,0x15e8
    39c8:	0d 60 02 03 	wh16	r16,0x3
    39cc:	10 40 02 10 	ld32	r16,r16
    39d0:	0d 44 ed 28 	wl16	r9,0x2768
    39d4:	0d 60 01 23 	wh16	r9,0x3
    39d8:	10 40 01 29 	ld32	r9,r9
    39dc:	00 00 01 10 	add	r8,r16
    39e0:	20 70 03 e2 	movepc	rret,8
    39e4:	14 30 f1 8b 	br	10 <compare>,#al
    39e8:	00 10 00 41 	add	r2,1
    39ec:	0d 40 8d 0c 	wl16	r8,0x46c
    39f0:	0d 60 01 03 	wh16	r8,0x3
    39f4:	10 40 01 08 	ld32	r8,r8
    39f8:	0d 42 be 0c 	wl16	r16,0x15ec
    39fc:	0d 60 02 03 	wh16	r16,0x3
    3a00:	10 40 02 10 	ld32	r16,r16
    3a04:	0d 44 ed 2c 	wl16	r9,0x276c
    3a08:	0d 60 01 23 	wh16	r9,0x3
    3a0c:	10 40 01 29 	ld32	r9,r9
    3a10:	00 00 01 10 	add	r8,r16
    3a14:	20 70 03 e2 	movepc	rret,8
    3a18:	14 30 f1 7e 	br	10 <compare>,#al
    3a1c:	00 10 00 41 	add	r2,1
    3a20:	0d 40 8d 10 	wl16	r8,0x470
    3a24:	0d 60 01 03 	wh16	r8,0x3
    3a28:	10 40 01 08 	ld32	r8,r8
    3a2c:	0d 42 be 10 	wl16	r16,0x15f0
    3a30:	0d 60 02 03 	wh16	r16,0x3
    3a34:	10 40 02 10 	ld32	r16,r16
    3a38:	0d 44 ed 30 	wl16	r9,0x2770
    3a3c:	0d 60 01 23 	wh16	r9,0x3
    3a40:	10 40 01 29 	ld32	r9,r9
    3a44:	00 00 01 10 	add	r8,r16
    3a48:	20 70 03 e2 	movepc	rret,8
    3a4c:	14 30 f1 71 	br	10 <compare>,#al
    3a50:	00 10 00 41 	add	r2,1
    3a54:	0d 40 8d 14 	wl16	r8,0x474
    3a58:	0d 60 01 03 	wh16	r8,0x3
    3a5c:	10 40 01 08 	ld32	r8,r8
    3a60:	0d 42 be 14 	wl16	r16,0x15f4
    3a64:	0d 60 02 03 	wh16	r16,0x3
    3a68:	10 40 02 10 	ld32	r16,r16
    3a6c:	0d 44 ed 34 	wl16	r9,0x2774
    3a70:	0d 60 01 23 	wh16	r9,0x3
    3a74:	10 40 01 29 	ld32	r9,r9
    3a78:	00 00 01 10 	add	r8,r16
    3a7c:	20 70 03 e2 	movepc	rret,8
    3a80:	14 30 f1 64 	br	10 <compare>,#al
    3a84:	00 10 00 41 	add	r2,1
    3a88:	0d 40 8d 18 	wl16	r8,0x478
    3a8c:	0d 60 01 03 	wh16	r8,0x3
    3a90:	10 40 01 08 	ld32	r8,r8
    3a94:	0d 42 be 18 	wl16	r16,0x15f8
    3a98:	0d 60 02 03 	wh16	r16,0x3
    3a9c:	10 40 02 10 	ld32	r16,r16
    3aa0:	0d 44 ed 38 	wl16	r9,0x2778
    3aa4:	0d 60 01 23 	wh16	r9,0x3
    3aa8:	10 40 01 29 	ld32	r9,r9
    3aac:	00 00 01 10 	add	r8,r16
    3ab0:	20 70 03 e2 	movepc	rret,8
    3ab4:	14 30 f1 57 	br	10 <compare>,#al
    3ab8:	00 10 00 41 	add	r2,1
    3abc:	0d 40 8d 1c 	wl16	r8,0x47c
    3ac0:	0d 60 01 03 	wh16	r8,0x3
    3ac4:	10 40 01 08 	ld32	r8,r8
    3ac8:	0d 42 be 1c 	wl16	r16,0x15fc
    3acc:	0d 60 02 03 	wh16	r16,0x3
    3ad0:	10 40 02 10 	ld32	r16,r16
    3ad4:	0d 44 ed 3c 	wl16	r9,0x277c
    3ad8:	0d 60 01 23 	wh16	r9,0x3
    3adc:	10 40 01 29 	ld32	r9,r9
    3ae0:	00 00 01 10 	add	r8,r16
    3ae4:	20 70 03 e2 	movepc	rret,8
    3ae8:	14 30 f1 4a 	br	10 <compare>,#al
    3aec:	00 10 00 41 	add	r2,1
    3af0:	0d 40 91 00 	wl16	r8,0x480
    3af4:	0d 60 01 03 	wh16	r8,0x3
    3af8:	10 40 01 08 	ld32	r8,r8
    3afc:	0d 42 c2 00 	wl16	r16,0x1600
    3b00:	0d 60 02 03 	wh16	r16,0x3
    3b04:	10 40 02 10 	ld32	r16,r16
    3b08:	0d 44 f1 20 	wl16	r9,0x2780
    3b0c:	0d 60 01 23 	wh16	r9,0x3
    3b10:	10 40 01 29 	ld32	r9,r9
    3b14:	00 00 01 10 	add	r8,r16
    3b18:	20 70 03 e2 	movepc	rret,8
    3b1c:	14 30 f1 3d 	br	10 <compare>,#al
    3b20:	00 10 00 41 	add	r2,1
    3b24:	0d 40 91 04 	wl16	r8,0x484
    3b28:	0d 60 01 03 	wh16	r8,0x3
    3b2c:	10 40 01 08 	ld32	r8,r8
    3b30:	0d 42 c2 04 	wl16	r16,0x1604
    3b34:	0d 60 02 03 	wh16	r16,0x3
    3b38:	10 40 02 10 	ld32	r16,r16
    3b3c:	0d 44 f1 24 	wl16	r9,0x2784
    3b40:	0d 60 01 23 	wh16	r9,0x3
    3b44:	10 40 01 29 	ld32	r9,r9
    3b48:	00 00 01 10 	add	r8,r16
    3b4c:	20 70 03 e2 	movepc	rret,8
    3b50:	14 30 f1 30 	br	10 <compare>,#al
    3b54:	00 10 00 41 	add	r2,1
    3b58:	0d 40 91 08 	wl16	r8,0x488
    3b5c:	0d 60 01 03 	wh16	r8,0x3
    3b60:	10 40 01 08 	ld32	r8,r8
    3b64:	0d 42 c2 08 	wl16	r16,0x1608
    3b68:	0d 60 02 03 	wh16	r16,0x3
    3b6c:	10 40 02 10 	ld32	r16,r16
    3b70:	0d 44 f1 28 	wl16	r9,0x2788
    3b74:	0d 60 01 23 	wh16	r9,0x3
    3b78:	10 40 01 29 	ld32	r9,r9
    3b7c:	00 00 01 10 	add	r8,r16
    3b80:	20 70 03 e2 	movepc	rret,8
    3b84:	14 30 f1 23 	br	10 <compare>,#al
    3b88:	00 10 00 41 	add	r2,1
    3b8c:	0d 40 91 0c 	wl16	r8,0x48c
    3b90:	0d 60 01 03 	wh16	r8,0x3
    3b94:	10 40 01 08 	ld32	r8,r8
    3b98:	0d 42 c2 0c 	wl16	r16,0x160c
    3b9c:	0d 60 02 03 	wh16	r16,0x3
    3ba0:	10 40 02 10 	ld32	r16,r16
    3ba4:	0d 44 f1 2c 	wl16	r9,0x278c
    3ba8:	0d 60 01 23 	wh16	r9,0x3
    3bac:	10 40 01 29 	ld32	r9,r9
    3bb0:	00 00 01 10 	add	r8,r16
    3bb4:	20 70 03 e2 	movepc	rret,8
    3bb8:	14 30 f1 16 	br	10 <compare>,#al
    3bbc:	00 10 00 41 	add	r2,1
    3bc0:	0d 40 91 10 	wl16	r8,0x490
    3bc4:	0d 60 01 03 	wh16	r8,0x3
    3bc8:	10 40 01 08 	ld32	r8,r8
    3bcc:	0d 42 c2 10 	wl16	r16,0x1610
    3bd0:	0d 60 02 03 	wh16	r16,0x3
    3bd4:	10 40 02 10 	ld32	r16,r16
    3bd8:	0d 44 f1 30 	wl16	r9,0x2790
    3bdc:	0d 60 01 23 	wh16	r9,0x3
    3be0:	10 40 01 29 	ld32	r9,r9
    3be4:	00 00 01 10 	add	r8,r16
    3be8:	20 70 03 e2 	movepc	rret,8
    3bec:	14 30 f1 09 	br	10 <compare>,#al
    3bf0:	00 10 00 41 	add	r2,1
    3bf4:	0d 40 91 14 	wl16	r8,0x494
    3bf8:	0d 60 01 03 	wh16	r8,0x3
    3bfc:	10 40 01 08 	ld32	r8,r8
    3c00:	0d 42 c2 14 	wl16	r16,0x1614
    3c04:	0d 60 02 03 	wh16	r16,0x3
    3c08:	10 40 02 10 	ld32	r16,r16
    3c0c:	0d 44 f1 34 	wl16	r9,0x2794
    3c10:	0d 60 01 23 	wh16	r9,0x3
    3c14:	10 40 01 29 	ld32	r9,r9
    3c18:	00 00 01 10 	add	r8,r16
    3c1c:	20 70 03 e2 	movepc	rret,8
    3c20:	14 30 f0 fc 	br	10 <compare>,#al
    3c24:	00 10 00 41 	add	r2,1
    3c28:	0d 40 91 18 	wl16	r8,0x498
    3c2c:	0d 60 01 03 	wh16	r8,0x3
    3c30:	10 40 01 08 	ld32	r8,r8
    3c34:	0d 42 c2 18 	wl16	r16,0x1618
    3c38:	0d 60 02 03 	wh16	r16,0x3
    3c3c:	10 40 02 10 	ld32	r16,r16
    3c40:	0d 44 f1 38 	wl16	r9,0x2798
    3c44:	0d 60 01 23 	wh16	r9,0x3
    3c48:	10 40 01 29 	ld32	r9,r9
    3c4c:	00 00 01 10 	add	r8,r16
    3c50:	20 70 03 e2 	movepc	rret,8
    3c54:	14 30 f0 ef 	br	10 <compare>,#al
    3c58:	00 10 00 41 	add	r2,1
    3c5c:	0d 40 91 1c 	wl16	r8,0x49c
    3c60:	0d 60 01 03 	wh16	r8,0x3
    3c64:	10 40 01 08 	ld32	r8,r8
    3c68:	0d 42 c2 1c 	wl16	r16,0x161c
    3c6c:	0d 60 02 03 	wh16	r16,0x3
    3c70:	10 40 02 10 	ld32	r16,r16
    3c74:	0d 44 f1 3c 	wl16	r9,0x279c
    3c78:	0d 60 01 23 	wh16	r9,0x3
    3c7c:	10 40 01 29 	ld32	r9,r9
    3c80:	00 00 01 10 	add	r8,r16
    3c84:	20 70 03 e2 	movepc	rret,8
    3c88:	14 30 f0 e2 	br	10 <compare>,#al
    3c8c:	00 10 00 41 	add	r2,1
    3c90:	0d 40 95 00 	wl16	r8,0x4a0
    3c94:	0d 60 01 03 	wh16	r8,0x3
    3c98:	10 40 01 08 	ld32	r8,r8
    3c9c:	0d 42 c6 00 	wl16	r16,0x1620
    3ca0:	0d 60 02 03 	wh16	r16,0x3
    3ca4:	10 40 02 10 	ld32	r16,r16
    3ca8:	0d 44 f5 20 	wl16	r9,0x27a0
    3cac:	0d 60 01 23 	wh16	r9,0x3
    3cb0:	10 40 01 29 	ld32	r9,r9
    3cb4:	00 00 01 10 	add	r8,r16
    3cb8:	20 70 03 e2 	movepc	rret,8
    3cbc:	14 30 f0 d5 	br	10 <compare>,#al
    3cc0:	00 10 00 41 	add	r2,1
    3cc4:	0d 40 95 04 	wl16	r8,0x4a4
    3cc8:	0d 60 01 03 	wh16	r8,0x3
    3ccc:	10 40 01 08 	ld32	r8,r8
    3cd0:	0d 42 c6 04 	wl16	r16,0x1624
    3cd4:	0d 60 02 03 	wh16	r16,0x3
    3cd8:	10 40 02 10 	ld32	r16,r16
    3cdc:	0d 44 f5 24 	wl16	r9,0x27a4
    3ce0:	0d 60 01 23 	wh16	r9,0x3
    3ce4:	10 40 01 29 	ld32	r9,r9
    3ce8:	00 00 01 10 	add	r8,r16
    3cec:	20 70 03 e2 	movepc	rret,8
    3cf0:	14 30 f0 c8 	br	10 <compare>,#al
    3cf4:	00 10 00 41 	add	r2,1
    3cf8:	0d 40 95 08 	wl16	r8,0x4a8
    3cfc:	0d 60 01 03 	wh16	r8,0x3
    3d00:	10 40 01 08 	ld32	r8,r8
    3d04:	0d 42 c6 08 	wl16	r16,0x1628
    3d08:	0d 60 02 03 	wh16	r16,0x3
    3d0c:	10 40 02 10 	ld32	r16,r16
    3d10:	0d 44 f5 28 	wl16	r9,0x27a8
    3d14:	0d 60 01 23 	wh16	r9,0x3
    3d18:	10 40 01 29 	ld32	r9,r9
    3d1c:	00 00 01 10 	add	r8,r16
    3d20:	20 70 03 e2 	movepc	rret,8
    3d24:	14 30 f0 bb 	br	10 <compare>,#al
    3d28:	00 10 00 41 	add	r2,1
    3d2c:	0d 40 95 0c 	wl16	r8,0x4ac
    3d30:	0d 60 01 03 	wh16	r8,0x3
    3d34:	10 40 01 08 	ld32	r8,r8
    3d38:	0d 42 c6 0c 	wl16	r16,0x162c
    3d3c:	0d 60 02 03 	wh16	r16,0x3
    3d40:	10 40 02 10 	ld32	r16,r16
    3d44:	0d 44 f5 2c 	wl16	r9,0x27ac
    3d48:	0d 60 01 23 	wh16	r9,0x3
    3d4c:	10 40 01 29 	ld32	r9,r9
    3d50:	00 00 01 10 	add	r8,r16
    3d54:	20 70 03 e2 	movepc	rret,8
    3d58:	14 30 f0 ae 	br	10 <compare>,#al
    3d5c:	00 10 00 41 	add	r2,1
    3d60:	0d 40 95 10 	wl16	r8,0x4b0
    3d64:	0d 60 01 03 	wh16	r8,0x3
    3d68:	10 40 01 08 	ld32	r8,r8
    3d6c:	0d 42 c6 10 	wl16	r16,0x1630
    3d70:	0d 60 02 03 	wh16	r16,0x3
    3d74:	10 40 02 10 	ld32	r16,r16
    3d78:	0d 44 f5 30 	wl16	r9,0x27b0
    3d7c:	0d 60 01 23 	wh16	r9,0x3
    3d80:	10 40 01 29 	ld32	r9,r9
    3d84:	00 00 01 10 	add	r8,r16
    3d88:	20 70 03 e2 	movepc	rret,8
    3d8c:	14 30 f0 a1 	br	10 <compare>,#al
    3d90:	00 10 00 41 	add	r2,1
    3d94:	0d 40 95 14 	wl16	r8,0x4b4
    3d98:	0d 60 01 03 	wh16	r8,0x3
    3d9c:	10 40 01 08 	ld32	r8,r8
    3da0:	0d 42 c6 14 	wl16	r16,0x1634
    3da4:	0d 60 02 03 	wh16	r16,0x3
    3da8:	10 40 02 10 	ld32	r16,r16
    3dac:	0d 44 f5 34 	wl16	r9,0x27b4
    3db0:	0d 60 01 23 	wh16	r9,0x3
    3db4:	10 40 01 29 	ld32	r9,r9
    3db8:	00 00 01 10 	add	r8,r16
    3dbc:	20 70 03 e2 	movepc	rret,8
    3dc0:	14 30 f0 94 	br	10 <compare>,#al
    3dc4:	00 10 00 41 	add	r2,1
    3dc8:	0d 40 95 18 	wl16	r8,0x4b8
    3dcc:	0d 60 01 03 	wh16	r8,0x3
    3dd0:	10 40 01 08 	ld32	r8,r8
    3dd4:	0d 42 c6 18 	wl16	r16,0x1638
    3dd8:	0d 60 02 03 	wh16	r16,0x3
    3ddc:	10 40 02 10 	ld32	r16,r16
    3de0:	0d 44 f5 38 	wl16	r9,0x27b8
    3de4:	0d 60 01 23 	wh16	r9,0x3
    3de8:	10 40 01 29 	ld32	r9,r9
    3dec:	00 00 01 10 	add	r8,r16
    3df0:	20 70 03 e2 	movepc	rret,8
    3df4:	14 30 f0 87 	br	10 <compare>,#al
    3df8:	00 10 00 41 	add	r2,1
    3dfc:	0d 40 95 1c 	wl16	r8,0x4bc
    3e00:	0d 60 01 03 	wh16	r8,0x3
    3e04:	10 40 01 08 	ld32	r8,r8
    3e08:	0d 42 c6 1c 	wl16	r16,0x163c
    3e0c:	0d 60 02 03 	wh16	r16,0x3
    3e10:	10 40 02 10 	ld32	r16,r16
    3e14:	0d 44 f5 3c 	wl16	r9,0x27bc
    3e18:	0d 60 01 23 	wh16	r9,0x3
    3e1c:	10 40 01 29 	ld32	r9,r9
    3e20:	00 00 01 10 	add	r8,r16
    3e24:	20 70 03 e2 	movepc	rret,8
    3e28:	14 30 f0 7a 	br	10 <compare>,#al
    3e2c:	00 10 00 41 	add	r2,1
    3e30:	0d 40 99 00 	wl16	r8,0x4c0
    3e34:	0d 60 01 03 	wh16	r8,0x3
    3e38:	10 40 01 08 	ld32	r8,r8
    3e3c:	0d 42 ca 00 	wl16	r16,0x1640
    3e40:	0d 60 02 03 	wh16	r16,0x3
    3e44:	10 40 02 10 	ld32	r16,r16
    3e48:	0d 44 f9 20 	wl16	r9,0x27c0
    3e4c:	0d 60 01 23 	wh16	r9,0x3
    3e50:	10 40 01 29 	ld32	r9,r9
    3e54:	00 00 01 10 	add	r8,r16
    3e58:	20 70 03 e2 	movepc	rret,8
    3e5c:	14 30 f0 6d 	br	10 <compare>,#al
    3e60:	00 10 00 41 	add	r2,1
    3e64:	0d 40 99 04 	wl16	r8,0x4c4
    3e68:	0d 60 01 03 	wh16	r8,0x3
    3e6c:	10 40 01 08 	ld32	r8,r8
    3e70:	0d 42 ca 04 	wl16	r16,0x1644
    3e74:	0d 60 02 03 	wh16	r16,0x3
    3e78:	10 40 02 10 	ld32	r16,r16
    3e7c:	0d 44 f9 24 	wl16	r9,0x27c4
    3e80:	0d 60 01 23 	wh16	r9,0x3
    3e84:	10 40 01 29 	ld32	r9,r9
    3e88:	00 00 01 10 	add	r8,r16
    3e8c:	20 70 03 e2 	movepc	rret,8
    3e90:	14 30 f0 60 	br	10 <compare>,#al
    3e94:	00 10 00 41 	add	r2,1
    3e98:	0d 40 99 08 	wl16	r8,0x4c8
    3e9c:	0d 60 01 03 	wh16	r8,0x3
    3ea0:	10 40 01 08 	ld32	r8,r8
    3ea4:	0d 42 ca 08 	wl16	r16,0x1648
    3ea8:	0d 60 02 03 	wh16	r16,0x3
    3eac:	10 40 02 10 	ld32	r16,r16
    3eb0:	0d 44 f9 28 	wl16	r9,0x27c8
    3eb4:	0d 60 01 23 	wh16	r9,0x3
    3eb8:	10 40 01 29 	ld32	r9,r9
    3ebc:	00 00 01 10 	add	r8,r16
    3ec0:	20 70 03 e2 	movepc	rret,8
    3ec4:	14 30 f0 53 	br	10 <compare>,#al
    3ec8:	00 10 00 41 	add	r2,1
    3ecc:	0d 40 99 0c 	wl16	r8,0x4cc
    3ed0:	0d 60 01 03 	wh16	r8,0x3
    3ed4:	10 40 01 08 	ld32	r8,r8
    3ed8:	0d 42 ca 0c 	wl16	r16,0x164c
    3edc:	0d 60 02 03 	wh16	r16,0x3
    3ee0:	10 40 02 10 	ld32	r16,r16
    3ee4:	0d 44 f9 2c 	wl16	r9,0x27cc
    3ee8:	0d 60 01 23 	wh16	r9,0x3
    3eec:	10 40 01 29 	ld32	r9,r9
    3ef0:	00 00 01 10 	add	r8,r16
    3ef4:	20 70 03 e2 	movepc	rret,8
    3ef8:	14 30 f0 46 	br	10 <compare>,#al
    3efc:	00 10 00 41 	add	r2,1
    3f00:	0d 40 99 10 	wl16	r8,0x4d0
    3f04:	0d 60 01 03 	wh16	r8,0x3
    3f08:	10 40 01 08 	ld32	r8,r8
    3f0c:	0d 42 ca 10 	wl16	r16,0x1650
    3f10:	0d 60 02 03 	wh16	r16,0x3
    3f14:	10 40 02 10 	ld32	r16,r16
    3f18:	0d 44 f9 30 	wl16	r9,0x27d0
    3f1c:	0d 60 01 23 	wh16	r9,0x3
    3f20:	10 40 01 29 	ld32	r9,r9
    3f24:	00 00 01 10 	add	r8,r16
    3f28:	20 70 03 e2 	movepc	rret,8
    3f2c:	14 30 f0 39 	br	10 <compare>,#al
    3f30:	00 10 00 41 	add	r2,1
    3f34:	0d 40 99 14 	wl16	r8,0x4d4
    3f38:	0d 60 01 03 	wh16	r8,0x3
    3f3c:	10 40 01 08 	ld32	r8,r8
    3f40:	0d 42 ca 14 	wl16	r16,0x1654
    3f44:	0d 60 02 03 	wh16	r16,0x3
    3f48:	10 40 02 10 	ld32	r16,r16
    3f4c:	0d 44 f9 34 	wl16	r9,0x27d4
    3f50:	0d 60 01 23 	wh16	r9,0x3
    3f54:	10 40 01 29 	ld32	r9,r9
    3f58:	00 00 01 10 	add	r8,r16
    3f5c:	20 70 03 e2 	movepc	rret,8
    3f60:	14 30 f0 2c 	br	10 <compare>,#al
    3f64:	00 10 00 41 	add	r2,1
    3f68:	0d 40 99 18 	wl16	r8,0x4d8
    3f6c:	0d 60 01 03 	wh16	r8,0x3
    3f70:	10 40 01 08 	ld32	r8,r8
    3f74:	0d 42 ca 18 	wl16	r16,0x1658
    3f78:	0d 60 02 03 	wh16	r16,0x3
    3f7c:	10 40 02 10 	ld32	r16,r16
    3f80:	0d 44 f9 38 	wl16	r9,0x27d8
    3f84:	0d 60 01 23 	wh16	r9,0x3
    3f88:	10 40 01 29 	ld32	r9,r9
    3f8c:	00 00 01 10 	add	r8,r16
    3f90:	20 70 03 e2 	movepc	rret,8
    3f94:	14 30 f0 1f 	br	10 <compare>,#al
    3f98:	00 10 00 41 	add	r2,1
    3f9c:	0d 40 99 1c 	wl16	r8,0x4dc
    3fa0:	0d 60 01 03 	wh16	r8,0x3
    3fa4:	10 40 01 08 	ld32	r8,r8
    3fa8:	0d 42 ca 1c 	wl16	r16,0x165c
    3fac:	0d 60 02 03 	wh16	r16,0x3
    3fb0:	10 40 02 10 	ld32	r16,r16
    3fb4:	0d 44 f9 3c 	wl16	r9,0x27dc
    3fb8:	0d 60 01 23 	wh16	r9,0x3
    3fbc:	10 40 01 29 	ld32	r9,r9
    3fc0:	00 00 01 10 	add	r8,r16
    3fc4:	20 70 03 e2 	movepc	rret,8
    3fc8:	14 30 f0 12 	br	10 <compare>,#al
    3fcc:	00 10 00 41 	add	r2,1
    3fd0:	0d 40 9d 00 	wl16	r8,0x4e0
    3fd4:	0d 60 01 03 	wh16	r8,0x3
    3fd8:	10 40 01 08 	ld32	r8,r8
    3fdc:	0d 42 ce 00 	wl16	r16,0x1660
    3fe0:	0d 60 02 03 	wh16	r16,0x3
    3fe4:	10 40 02 10 	ld32	r16,r16
    3fe8:	0d 44 fd 20 	wl16	r9,0x27e0
    3fec:	0d 60 01 23 	wh16	r9,0x3
    3ff0:	10 40 01 29 	ld32	r9,r9
    3ff4:	00 00 01 10 	add	r8,r16
    3ff8:	20 70 03 e2 	movepc	rret,8
    3ffc:	14 30 f0 05 	br	10 <compare>,#al
    4000:	00 10 00 41 	add	r2,1
    4004:	0d 40 9d 04 	wl16	r8,0x4e4
    4008:	0d 60 01 03 	wh16	r8,0x3
    400c:	10 40 01 08 	ld32	r8,r8
    4010:	0d 42 ce 04 	wl16	r16,0x1664
    4014:	0d 60 02 03 	wh16	r16,0x3
    4018:	10 40 02 10 	ld32	r16,r16
    401c:	0d 44 fd 24 	wl16	r9,0x27e4
    4020:	0d 60 01 23 	wh16	r9,0x3
    4024:	10 40 01 29 	ld32	r9,r9
    4028:	00 00 01 10 	add	r8,r16
    402c:	20 70 03 e2 	movepc	rret,8
    4030:	14 30 ef f8 	br	10 <compare>,#al
    4034:	00 10 00 41 	add	r2,1
    4038:	0d 40 9d 08 	wl16	r8,0x4e8
    403c:	0d 60 01 03 	wh16	r8,0x3
    4040:	10 40 01 08 	ld32	r8,r8
    4044:	0d 42 ce 08 	wl16	r16,0x1668
    4048:	0d 60 02 03 	wh16	r16,0x3
    404c:	10 40 02 10 	ld32	r16,r16
    4050:	0d 44 fd 28 	wl16	r9,0x27e8
    4054:	0d 60 01 23 	wh16	r9,0x3
    4058:	10 40 01 29 	ld32	r9,r9
    405c:	00 00 01 10 	add	r8,r16
    4060:	20 70 03 e2 	movepc	rret,8
    4064:	14 30 ef eb 	br	10 <compare>,#al
    4068:	00 10 00 41 	add	r2,1
    406c:	0d 40 9d 0c 	wl16	r8,0x4ec
    4070:	0d 60 01 03 	wh16	r8,0x3
    4074:	10 40 01 08 	ld32	r8,r8
    4078:	0d 42 ce 0c 	wl16	r16,0x166c
    407c:	0d 60 02 03 	wh16	r16,0x3
    4080:	10 40 02 10 	ld32	r16,r16
    4084:	0d 44 fd 2c 	wl16	r9,0x27ec
    4088:	0d 60 01 23 	wh16	r9,0x3
    408c:	10 40 01 29 	ld32	r9,r9
    4090:	00 00 01 10 	add	r8,r16
    4094:	20 70 03 e2 	movepc	rret,8
    4098:	14 30 ef de 	br	10 <compare>,#al
    409c:	00 10 00 41 	add	r2,1
    40a0:	0d 40 9d 10 	wl16	r8,0x4f0
    40a4:	0d 60 01 03 	wh16	r8,0x3
    40a8:	10 40 01 08 	ld32	r8,r8
    40ac:	0d 42 ce 10 	wl16	r16,0x1670
    40b0:	0d 60 02 03 	wh16	r16,0x3
    40b4:	10 40 02 10 	ld32	r16,r16
    40b8:	0d 44 fd 30 	wl16	r9,0x27f0
    40bc:	0d 60 01 23 	wh16	r9,0x3
    40c0:	10 40 01 29 	ld32	r9,r9
    40c4:	00 00 01 10 	add	r8,r16
    40c8:	20 70 03 e2 	movepc	rret,8
    40cc:	14 30 ef d1 	br	10 <compare>,#al
    40d0:	00 10 00 41 	add	r2,1
    40d4:	0d 40 9d 14 	wl16	r8,0x4f4
    40d8:	0d 60 01 03 	wh16	r8,0x3
    40dc:	10 40 01 08 	ld32	r8,r8
    40e0:	0d 42 ce 14 	wl16	r16,0x1674
    40e4:	0d 60 02 03 	wh16	r16,0x3
    40e8:	10 40 02 10 	ld32	r16,r16
    40ec:	0d 44 fd 34 	wl16	r9,0x27f4
    40f0:	0d 60 01 23 	wh16	r9,0x3
    40f4:	10 40 01 29 	ld32	r9,r9
    40f8:	00 00 01 10 	add	r8,r16
    40fc:	20 70 03 e2 	movepc	rret,8
    4100:	14 30 ef c4 	br	10 <compare>,#al
    4104:	00 10 00 41 	add	r2,1
    4108:	0d 40 9d 18 	wl16	r8,0x4f8
    410c:	0d 60 01 03 	wh16	r8,0x3
    4110:	10 40 01 08 	ld32	r8,r8
    4114:	0d 42 ce 18 	wl16	r16,0x1678
    4118:	0d 60 02 03 	wh16	r16,0x3
    411c:	10 40 02 10 	ld32	r16,r16
    4120:	0d 44 fd 38 	wl16	r9,0x27f8
    4124:	0d 60 01 23 	wh16	r9,0x3
    4128:	10 40 01 29 	ld32	r9,r9
    412c:	00 00 01 10 	add	r8,r16
    4130:	20 70 03 e2 	movepc	rret,8
    4134:	14 30 ef b7 	br	10 <compare>,#al
    4138:	00 10 00 41 	add	r2,1
    413c:	0d 40 9d 1c 	wl16	r8,0x4fc
    4140:	0d 60 01 03 	wh16	r8,0x3
    4144:	10 40 01 08 	ld32	r8,r8
    4148:	0d 42 ce 1c 	wl16	r16,0x167c
    414c:	0d 60 02 03 	wh16	r16,0x3
    4150:	10 40 02 10 	ld32	r16,r16
    4154:	0d 44 fd 3c 	wl16	r9,0x27fc
    4158:	0d 60 01 23 	wh16	r9,0x3
    415c:	10 40 01 29 	ld32	r9,r9
    4160:	00 00 01 10 	add	r8,r16
    4164:	20 70 03 e2 	movepc	rret,8
    4168:	14 30 ef aa 	br	10 <compare>,#al
    416c:	00 10 00 41 	add	r2,1
    4170:	0d 40 a1 00 	wl16	r8,0x500
    4174:	0d 60 01 03 	wh16	r8,0x3
    4178:	10 40 01 08 	ld32	r8,r8
    417c:	0d 42 d2 00 	wl16	r16,0x1680
    4180:	0d 60 02 03 	wh16	r16,0x3
    4184:	10 40 02 10 	ld32	r16,r16
    4188:	0d 45 01 20 	wl16	r9,0x2800
    418c:	0d 60 01 23 	wh16	r9,0x3
    4190:	10 40 01 29 	ld32	r9,r9
    4194:	00 00 01 10 	add	r8,r16
    4198:	20 70 03 e2 	movepc	rret,8
    419c:	14 30 ef 9d 	br	10 <compare>,#al
    41a0:	00 10 00 41 	add	r2,1
    41a4:	0d 40 a1 04 	wl16	r8,0x504
    41a8:	0d 60 01 03 	wh16	r8,0x3
    41ac:	10 40 01 08 	ld32	r8,r8
    41b0:	0d 42 d2 04 	wl16	r16,0x1684
    41b4:	0d 60 02 03 	wh16	r16,0x3
    41b8:	10 40 02 10 	ld32	r16,r16
    41bc:	0d 45 01 24 	wl16	r9,0x2804
    41c0:	0d 60 01 23 	wh16	r9,0x3
    41c4:	10 40 01 29 	ld32	r9,r9
    41c8:	00 00 01 10 	add	r8,r16
    41cc:	20 70 03 e2 	movepc	rret,8
    41d0:	14 30 ef 90 	br	10 <compare>,#al
    41d4:	00 10 00 41 	add	r2,1
    41d8:	0d 40 a1 08 	wl16	r8,0x508
    41dc:	0d 60 01 03 	wh16	r8,0x3
    41e0:	10 40 01 08 	ld32	r8,r8
    41e4:	0d 42 d2 08 	wl16	r16,0x1688
    41e8:	0d 60 02 03 	wh16	r16,0x3
    41ec:	10 40 02 10 	ld32	r16,r16
    41f0:	0d 45 01 28 	wl16	r9,0x2808
    41f4:	0d 60 01 23 	wh16	r9,0x3
    41f8:	10 40 01 29 	ld32	r9,r9
    41fc:	00 00 01 10 	add	r8,r16
    4200:	20 70 03 e2 	movepc	rret,8
    4204:	14 30 ef 83 	br	10 <compare>,#al
    4208:	00 10 00 41 	add	r2,1
    420c:	0d 40 a1 0c 	wl16	r8,0x50c
    4210:	0d 60 01 03 	wh16	r8,0x3
    4214:	10 40 01 08 	ld32	r8,r8
    4218:	0d 42 d2 0c 	wl16	r16,0x168c
    421c:	0d 60 02 03 	wh16	r16,0x3
    4220:	10 40 02 10 	ld32	r16,r16
    4224:	0d 45 01 2c 	wl16	r9,0x280c
    4228:	0d 60 01 23 	wh16	r9,0x3
    422c:	10 40 01 29 	ld32	r9,r9
    4230:	00 00 01 10 	add	r8,r16
    4234:	20 70 03 e2 	movepc	rret,8
    4238:	14 30 ef 76 	br	10 <compare>,#al
    423c:	00 10 00 41 	add	r2,1
    4240:	0d 40 a1 10 	wl16	r8,0x510
    4244:	0d 60 01 03 	wh16	r8,0x3
    4248:	10 40 01 08 	ld32	r8,r8
    424c:	0d 42 d2 10 	wl16	r16,0x1690
    4250:	0d 60 02 03 	wh16	r16,0x3
    4254:	10 40 02 10 	ld32	r16,r16
    4258:	0d 45 01 30 	wl16	r9,0x2810
    425c:	0d 60 01 23 	wh16	r9,0x3
    4260:	10 40 01 29 	ld32	r9,r9
    4264:	00 00 01 10 	add	r8,r16
    4268:	20 70 03 e2 	movepc	rret,8
    426c:	14 30 ef 69 	br	10 <compare>,#al
    4270:	00 10 00 41 	add	r2,1
    4274:	0d 40 a1 14 	wl16	r8,0x514
    4278:	0d 60 01 03 	wh16	r8,0x3
    427c:	10 40 01 08 	ld32	r8,r8
    4280:	0d 42 d2 14 	wl16	r16,0x1694
    4284:	0d 60 02 03 	wh16	r16,0x3
    4288:	10 40 02 10 	ld32	r16,r16
    428c:	0d 45 01 34 	wl16	r9,0x2814
    4290:	0d 60 01 23 	wh16	r9,0x3
    4294:	10 40 01 29 	ld32	r9,r9
    4298:	00 00 01 10 	add	r8,r16
    429c:	20 70 03 e2 	movepc	rret,8
    42a0:	14 30 ef 5c 	br	10 <compare>,#al
    42a4:	00 10 00 41 	add	r2,1
    42a8:	0d 40 a1 18 	wl16	r8,0x518
    42ac:	0d 60 01 03 	wh16	r8,0x3
    42b0:	10 40 01 08 	ld32	r8,r8
    42b4:	0d 42 d2 18 	wl16	r16,0x1698
    42b8:	0d 60 02 03 	wh16	r16,0x3
    42bc:	10 40 02 10 	ld32	r16,r16
    42c0:	0d 45 01 38 	wl16	r9,0x2818
    42c4:	0d 60 01 23 	wh16	r9,0x3
    42c8:	10 40 01 29 	ld32	r9,r9
    42cc:	00 00 01 10 	add	r8,r16
    42d0:	20 70 03 e2 	movepc	rret,8
    42d4:	14 30 ef 4f 	br	10 <compare>,#al
    42d8:	00 10 00 41 	add	r2,1
    42dc:	0d 40 a1 1c 	wl16	r8,0x51c
    42e0:	0d 60 01 03 	wh16	r8,0x3
    42e4:	10 40 01 08 	ld32	r8,r8
    42e8:	0d 42 d2 1c 	wl16	r16,0x169c
    42ec:	0d 60 02 03 	wh16	r16,0x3
    42f0:	10 40 02 10 	ld32	r16,r16
    42f4:	0d 45 01 3c 	wl16	r9,0x281c
    42f8:	0d 60 01 23 	wh16	r9,0x3
    42fc:	10 40 01 29 	ld32	r9,r9
    4300:	00 00 01 10 	add	r8,r16
    4304:	20 70 03 e2 	movepc	rret,8
    4308:	14 30 ef 42 	br	10 <compare>,#al
    430c:	00 10 00 41 	add	r2,1
    4310:	0d 40 a5 00 	wl16	r8,0x520
    4314:	0d 60 01 03 	wh16	r8,0x3
    4318:	10 40 01 08 	ld32	r8,r8
    431c:	0d 42 d6 00 	wl16	r16,0x16a0
    4320:	0d 60 02 03 	wh16	r16,0x3
    4324:	10 40 02 10 	ld32	r16,r16
    4328:	0d 45 05 20 	wl16	r9,0x2820
    432c:	0d 60 01 23 	wh16	r9,0x3
    4330:	10 40 01 29 	ld32	r9,r9
    4334:	00 00 01 10 	add	r8,r16
    4338:	20 70 03 e2 	movepc	rret,8
    433c:	14 30 ef 35 	br	10 <compare>,#al
    4340:	00 10 00 41 	add	r2,1
    4344:	0d 40 a5 04 	wl16	r8,0x524
    4348:	0d 60 01 03 	wh16	r8,0x3
    434c:	10 40 01 08 	ld32	r8,r8
    4350:	0d 42 d6 04 	wl16	r16,0x16a4
    4354:	0d 60 02 03 	wh16	r16,0x3
    4358:	10 40 02 10 	ld32	r16,r16
    435c:	0d 45 05 24 	wl16	r9,0x2824
    4360:	0d 60 01 23 	wh16	r9,0x3
    4364:	10 40 01 29 	ld32	r9,r9
    4368:	00 00 01 10 	add	r8,r16
    436c:	20 70 03 e2 	movepc	rret,8
    4370:	14 30 ef 28 	br	10 <compare>,#al
    4374:	00 10 00 41 	add	r2,1
    4378:	0d 40 a5 08 	wl16	r8,0x528
    437c:	0d 60 01 03 	wh16	r8,0x3
    4380:	10 40 01 08 	ld32	r8,r8
    4384:	0d 42 d6 08 	wl16	r16,0x16a8
    4388:	0d 60 02 03 	wh16	r16,0x3
    438c:	10 40 02 10 	ld32	r16,r16
    4390:	0d 45 05 28 	wl16	r9,0x2828
    4394:	0d 60 01 23 	wh16	r9,0x3
    4398:	10 40 01 29 	ld32	r9,r9
    439c:	00 00 01 10 	add	r8,r16
    43a0:	20 70 03 e2 	movepc	rret,8
    43a4:	14 30 ef 1b 	br	10 <compare>,#al
    43a8:	00 10 00 41 	add	r2,1
    43ac:	0d 40 a5 0c 	wl16	r8,0x52c
    43b0:	0d 60 01 03 	wh16	r8,0x3
    43b4:	10 40 01 08 	ld32	r8,r8
    43b8:	0d 42 d6 0c 	wl16	r16,0x16ac
    43bc:	0d 60 02 03 	wh16	r16,0x3
    43c0:	10 40 02 10 	ld32	r16,r16
    43c4:	0d 45 05 2c 	wl16	r9,0x282c
    43c8:	0d 60 01 23 	wh16	r9,0x3
    43cc:	10 40 01 29 	ld32	r9,r9
    43d0:	00 00 01 10 	add	r8,r16
    43d4:	20 70 03 e2 	movepc	rret,8
    43d8:	14 30 ef 0e 	br	10 <compare>,#al
    43dc:	00 10 00 41 	add	r2,1
    43e0:	0d 40 a5 10 	wl16	r8,0x530
    43e4:	0d 60 01 03 	wh16	r8,0x3
    43e8:	10 40 01 08 	ld32	r8,r8
    43ec:	0d 42 d6 10 	wl16	r16,0x16b0
    43f0:	0d 60 02 03 	wh16	r16,0x3
    43f4:	10 40 02 10 	ld32	r16,r16
    43f8:	0d 45 05 30 	wl16	r9,0x2830
    43fc:	0d 60 01 23 	wh16	r9,0x3
    4400:	10 40 01 29 	ld32	r9,r9
    4404:	00 00 01 10 	add	r8,r16
    4408:	20 70 03 e2 	movepc	rret,8
    440c:	14 30 ef 01 	br	10 <compare>,#al
    4410:	00 10 00 41 	add	r2,1
    4414:	0d 40 a5 14 	wl16	r8,0x534
    4418:	0d 60 01 03 	wh16	r8,0x3
    441c:	10 40 01 08 	ld32	r8,r8
    4420:	0d 42 d6 14 	wl16	r16,0x16b4
    4424:	0d 60 02 03 	wh16	r16,0x3
    4428:	10 40 02 10 	ld32	r16,r16
    442c:	0d 45 05 34 	wl16	r9,0x2834
    4430:	0d 60 01 23 	wh16	r9,0x3
    4434:	10 40 01 29 	ld32	r9,r9
    4438:	00 00 01 10 	add	r8,r16
    443c:	20 70 03 e2 	movepc	rret,8
    4440:	14 30 ee f4 	br	10 <compare>,#al
    4444:	00 10 00 41 	add	r2,1
    4448:	0d 40 a5 18 	wl16	r8,0x538
    444c:	0d 60 01 03 	wh16	r8,0x3
    4450:	10 40 01 08 	ld32	r8,r8
    4454:	0d 42 d6 18 	wl16	r16,0x16b8
    4458:	0d 60 02 03 	wh16	r16,0x3
    445c:	10 40 02 10 	ld32	r16,r16
    4460:	0d 45 05 38 	wl16	r9,0x2838
    4464:	0d 60 01 23 	wh16	r9,0x3
    4468:	10 40 01 29 	ld32	r9,r9
    446c:	00 00 01 10 	add	r8,r16
    4470:	20 70 03 e2 	movepc	rret,8
    4474:	14 30 ee e7 	br	10 <compare>,#al
    4478:	00 10 00 41 	add	r2,1
    447c:	0d 40 a5 1c 	wl16	r8,0x53c
    4480:	0d 60 01 03 	wh16	r8,0x3
    4484:	10 40 01 08 	ld32	r8,r8
    4488:	0d 42 d6 1c 	wl16	r16,0x16bc
    448c:	0d 60 02 03 	wh16	r16,0x3
    4490:	10 40 02 10 	ld32	r16,r16
    4494:	0d 45 05 3c 	wl16	r9,0x283c
    4498:	0d 60 01 23 	wh16	r9,0x3
    449c:	10 40 01 29 	ld32	r9,r9
    44a0:	00 00 01 10 	add	r8,r16
    44a4:	20 70 03 e2 	movepc	rret,8
    44a8:	14 30 ee da 	br	10 <compare>,#al
    44ac:	00 10 00 41 	add	r2,1
    44b0:	0d 40 a9 00 	wl16	r8,0x540
    44b4:	0d 60 01 03 	wh16	r8,0x3
    44b8:	10 40 01 08 	ld32	r8,r8
    44bc:	0d 42 da 00 	wl16	r16,0x16c0
    44c0:	0d 60 02 03 	wh16	r16,0x3
    44c4:	10 40 02 10 	ld32	r16,r16
    44c8:	0d 45 09 20 	wl16	r9,0x2840
    44cc:	0d 60 01 23 	wh16	r9,0x3
    44d0:	10 40 01 29 	ld32	r9,r9
    44d4:	00 00 01 10 	add	r8,r16
    44d8:	20 70 03 e2 	movepc	rret,8
    44dc:	14 30 ee cd 	br	10 <compare>,#al
    44e0:	00 10 00 41 	add	r2,1
    44e4:	0d 40 a9 04 	wl16	r8,0x544
    44e8:	0d 60 01 03 	wh16	r8,0x3
    44ec:	10 40 01 08 	ld32	r8,r8
    44f0:	0d 42 da 04 	wl16	r16,0x16c4
    44f4:	0d 60 02 03 	wh16	r16,0x3
    44f8:	10 40 02 10 	ld32	r16,r16
    44fc:	0d 45 09 24 	wl16	r9,0x2844
    4500:	0d 60 01 23 	wh16	r9,0x3
    4504:	10 40 01 29 	ld32	r9,r9
    4508:	00 00 01 10 	add	r8,r16
    450c:	20 70 03 e2 	movepc	rret,8
    4510:	14 30 ee c0 	br	10 <compare>,#al
    4514:	00 10 00 41 	add	r2,1
    4518:	0d 40 a9 08 	wl16	r8,0x548
    451c:	0d 60 01 03 	wh16	r8,0x3
    4520:	10 40 01 08 	ld32	r8,r8
    4524:	0d 42 da 08 	wl16	r16,0x16c8
    4528:	0d 60 02 03 	wh16	r16,0x3
    452c:	10 40 02 10 	ld32	r16,r16
    4530:	0d 45 09 28 	wl16	r9,0x2848
    4534:	0d 60 01 23 	wh16	r9,0x3
    4538:	10 40 01 29 	ld32	r9,r9
    453c:	00 00 01 10 	add	r8,r16
    4540:	20 70 03 e2 	movepc	rret,8
    4544:	14 30 ee b3 	br	10 <compare>,#al
    4548:	00 10 00 41 	add	r2,1
    454c:	0d 40 a9 0c 	wl16	r8,0x54c
    4550:	0d 60 01 03 	wh16	r8,0x3
    4554:	10 40 01 08 	ld32	r8,r8
    4558:	0d 42 da 0c 	wl16	r16,0x16cc
    455c:	0d 60 02 03 	wh16	r16,0x3
    4560:	10 40 02 10 	ld32	r16,r16
    4564:	0d 45 09 2c 	wl16	r9,0x284c
    4568:	0d 60 01 23 	wh16	r9,0x3
    456c:	10 40 01 29 	ld32	r9,r9
    4570:	00 00 01 10 	add	r8,r16
    4574:	20 70 03 e2 	movepc	rret,8
    4578:	14 30 ee a6 	br	10 <compare>,#al
    457c:	00 10 00 41 	add	r2,1
    4580:	0d 40 a9 10 	wl16	r8,0x550
    4584:	0d 60 01 03 	wh16	r8,0x3
    4588:	10 40 01 08 	ld32	r8,r8
    458c:	0d 42 da 10 	wl16	r16,0x16d0
    4590:	0d 60 02 03 	wh16	r16,0x3
    4594:	10 40 02 10 	ld32	r16,r16
    4598:	0d 45 09 30 	wl16	r9,0x2850
    459c:	0d 60 01 23 	wh16	r9,0x3
    45a0:	10 40 01 29 	ld32	r9,r9
    45a4:	00 00 01 10 	add	r8,r16
    45a8:	20 70 03 e2 	movepc	rret,8
    45ac:	14 30 ee 99 	br	10 <compare>,#al
    45b0:	00 10 00 41 	add	r2,1
    45b4:	0d 40 a9 14 	wl16	r8,0x554
    45b8:	0d 60 01 03 	wh16	r8,0x3
    45bc:	10 40 01 08 	ld32	r8,r8
    45c0:	0d 42 da 14 	wl16	r16,0x16d4
    45c4:	0d 60 02 03 	wh16	r16,0x3
    45c8:	10 40 02 10 	ld32	r16,r16
    45cc:	0d 45 09 34 	wl16	r9,0x2854
    45d0:	0d 60 01 23 	wh16	r9,0x3
    45d4:	10 40 01 29 	ld32	r9,r9
    45d8:	00 00 01 10 	add	r8,r16
    45dc:	20 70 03 e2 	movepc	rret,8
    45e0:	14 30 ee 8c 	br	10 <compare>,#al
    45e4:	00 10 00 41 	add	r2,1
    45e8:	0d 40 a9 18 	wl16	r8,0x558
    45ec:	0d 60 01 03 	wh16	r8,0x3
    45f0:	10 40 01 08 	ld32	r8,r8
    45f4:	0d 42 da 18 	wl16	r16,0x16d8
    45f8:	0d 60 02 03 	wh16	r16,0x3
    45fc:	10 40 02 10 	ld32	r16,r16
    4600:	0d 45 09 38 	wl16	r9,0x2858
    4604:	0d 60 01 23 	wh16	r9,0x3
    4608:	10 40 01 29 	ld32	r9,r9
    460c:	00 00 01 10 	add	r8,r16
    4610:	20 70 03 e2 	movepc	rret,8
    4614:	14 30 ee 7f 	br	10 <compare>,#al
    4618:	00 10 00 41 	add	r2,1
    461c:	0d 40 a9 1c 	wl16	r8,0x55c
    4620:	0d 60 01 03 	wh16	r8,0x3
    4624:	10 40 01 08 	ld32	r8,r8
    4628:	0d 42 da 1c 	wl16	r16,0x16dc
    462c:	0d 60 02 03 	wh16	r16,0x3
    4630:	10 40 02 10 	ld32	r16,r16
    4634:	0d 45 09 3c 	wl16	r9,0x285c
    4638:	0d 60 01 23 	wh16	r9,0x3
    463c:	10 40 01 29 	ld32	r9,r9
    4640:	00 00 01 10 	add	r8,r16
    4644:	20 70 03 e2 	movepc	rret,8
    4648:	14 30 ee 72 	br	10 <compare>,#al
    464c:	00 10 00 41 	add	r2,1
    4650:	0d 40 ad 00 	wl16	r8,0x560
    4654:	0d 60 01 03 	wh16	r8,0x3
    4658:	10 40 01 08 	ld32	r8,r8
    465c:	0d 42 de 00 	wl16	r16,0x16e0
    4660:	0d 60 02 03 	wh16	r16,0x3
    4664:	10 40 02 10 	ld32	r16,r16
    4668:	0d 45 0d 20 	wl16	r9,0x2860
    466c:	0d 60 01 23 	wh16	r9,0x3
    4670:	10 40 01 29 	ld32	r9,r9
    4674:	00 00 01 10 	add	r8,r16
    4678:	20 70 03 e2 	movepc	rret,8
    467c:	14 30 ee 65 	br	10 <compare>,#al
    4680:	00 10 00 41 	add	r2,1
    4684:	0d 40 ad 04 	wl16	r8,0x564
    4688:	0d 60 01 03 	wh16	r8,0x3
    468c:	10 40 01 08 	ld32	r8,r8
    4690:	0d 42 de 04 	wl16	r16,0x16e4
    4694:	0d 60 02 03 	wh16	r16,0x3
    4698:	10 40 02 10 	ld32	r16,r16
    469c:	0d 45 0d 24 	wl16	r9,0x2864
    46a0:	0d 60 01 23 	wh16	r9,0x3
    46a4:	10 40 01 29 	ld32	r9,r9
    46a8:	00 00 01 10 	add	r8,r16
    46ac:	20 70 03 e2 	movepc	rret,8
    46b0:	14 30 ee 58 	br	10 <compare>,#al
    46b4:	00 10 00 41 	add	r2,1
    46b8:	0d 40 ad 08 	wl16	r8,0x568
    46bc:	0d 60 01 03 	wh16	r8,0x3
    46c0:	10 40 01 08 	ld32	r8,r8
    46c4:	0d 42 de 08 	wl16	r16,0x16e8
    46c8:	0d 60 02 03 	wh16	r16,0x3
    46cc:	10 40 02 10 	ld32	r16,r16
    46d0:	0d 45 0d 28 	wl16	r9,0x2868
    46d4:	0d 60 01 23 	wh16	r9,0x3
    46d8:	10 40 01 29 	ld32	r9,r9
    46dc:	00 00 01 10 	add	r8,r16
    46e0:	20 70 03 e2 	movepc	rret,8
    46e4:	14 30 ee 4b 	br	10 <compare>,#al
    46e8:	00 10 00 41 	add	r2,1
    46ec:	0d 40 ad 0c 	wl16	r8,0x56c
    46f0:	0d 60 01 03 	wh16	r8,0x3
    46f4:	10 40 01 08 	ld32	r8,r8
    46f8:	0d 42 de 0c 	wl16	r16,0x16ec
    46fc:	0d 60 02 03 	wh16	r16,0x3
    4700:	10 40 02 10 	ld32	r16,r16
    4704:	0d 45 0d 2c 	wl16	r9,0x286c
    4708:	0d 60 01 23 	wh16	r9,0x3
    470c:	10 40 01 29 	ld32	r9,r9
    4710:	00 00 01 10 	add	r8,r16
    4714:	20 70 03 e2 	movepc	rret,8
    4718:	14 30 ee 3e 	br	10 <compare>,#al
    471c:	00 10 00 41 	add	r2,1
    4720:	0d 40 ad 10 	wl16	r8,0x570
    4724:	0d 60 01 03 	wh16	r8,0x3
    4728:	10 40 01 08 	ld32	r8,r8
    472c:	0d 42 de 10 	wl16	r16,0x16f0
    4730:	0d 60 02 03 	wh16	r16,0x3
    4734:	10 40 02 10 	ld32	r16,r16
    4738:	0d 45 0d 30 	wl16	r9,0x2870
    473c:	0d 60 01 23 	wh16	r9,0x3
    4740:	10 40 01 29 	ld32	r9,r9
    4744:	00 00 01 10 	add	r8,r16
    4748:	20 70 03 e2 	movepc	rret,8
    474c:	14 30 ee 31 	br	10 <compare>,#al
    4750:	00 10 00 41 	add	r2,1
    4754:	0d 40 ad 14 	wl16	r8,0x574
    4758:	0d 60 01 03 	wh16	r8,0x3
    475c:	10 40 01 08 	ld32	r8,r8
    4760:	0d 42 de 14 	wl16	r16,0x16f4
    4764:	0d 60 02 03 	wh16	r16,0x3
    4768:	10 40 02 10 	ld32	r16,r16
    476c:	0d 45 0d 34 	wl16	r9,0x2874
    4770:	0d 60 01 23 	wh16	r9,0x3
    4774:	10 40 01 29 	ld32	r9,r9
    4778:	00 00 01 10 	add	r8,r16
    477c:	20 70 03 e2 	movepc	rret,8
    4780:	14 30 ee 24 	br	10 <compare>,#al
    4784:	00 10 00 41 	add	r2,1
    4788:	0d 40 ad 18 	wl16	r8,0x578
    478c:	0d 60 01 03 	wh16	r8,0x3
    4790:	10 40 01 08 	ld32	r8,r8
    4794:	0d 42 de 18 	wl16	r16,0x16f8
    4798:	0d 60 02 03 	wh16	r16,0x3
    479c:	10 40 02 10 	ld32	r16,r16
    47a0:	0d 45 0d 38 	wl16	r9,0x2878
    47a4:	0d 60 01 23 	wh16	r9,0x3
    47a8:	10 40 01 29 	ld32	r9,r9
    47ac:	00 00 01 10 	add	r8,r16
    47b0:	20 70 03 e2 	movepc	rret,8
    47b4:	14 30 ee 17 	br	10 <compare>,#al
    47b8:	00 10 00 41 	add	r2,1
    47bc:	0d 40 ad 1c 	wl16	r8,0x57c
    47c0:	0d 60 01 03 	wh16	r8,0x3
    47c4:	10 40 01 08 	ld32	r8,r8
    47c8:	0d 42 de 1c 	wl16	r16,0x16fc
    47cc:	0d 60 02 03 	wh16	r16,0x3
    47d0:	10 40 02 10 	ld32	r16,r16
    47d4:	0d 45 0d 3c 	wl16	r9,0x287c
    47d8:	0d 60 01 23 	wh16	r9,0x3
    47dc:	10 40 01 29 	ld32	r9,r9
    47e0:	00 00 01 10 	add	r8,r16
    47e4:	20 70 03 e2 	movepc	rret,8
    47e8:	14 30 ee 0a 	br	10 <compare>,#al
    47ec:	00 10 00 41 	add	r2,1
    47f0:	0d 40 b1 00 	wl16	r8,0x580
    47f4:	0d 60 01 03 	wh16	r8,0x3
    47f8:	10 40 01 08 	ld32	r8,r8
    47fc:	0d 42 e2 00 	wl16	r16,0x1700
    4800:	0d 60 02 03 	wh16	r16,0x3
    4804:	10 40 02 10 	ld32	r16,r16
    4808:	0d 45 11 20 	wl16	r9,0x2880
    480c:	0d 60 01 23 	wh16	r9,0x3
    4810:	10 40 01 29 	ld32	r9,r9
    4814:	00 00 01 10 	add	r8,r16
    4818:	20 70 03 e2 	movepc	rret,8
    481c:	14 30 ed fd 	br	10 <compare>,#al
    4820:	00 10 00 41 	add	r2,1
    4824:	0d 40 b1 04 	wl16	r8,0x584
    4828:	0d 60 01 03 	wh16	r8,0x3
    482c:	10 40 01 08 	ld32	r8,r8
    4830:	0d 42 e2 04 	wl16	r16,0x1704
    4834:	0d 60 02 03 	wh16	r16,0x3
    4838:	10 40 02 10 	ld32	r16,r16
    483c:	0d 45 11 24 	wl16	r9,0x2884
    4840:	0d 60 01 23 	wh16	r9,0x3
    4844:	10 40 01 29 	ld32	r9,r9
    4848:	00 00 01 10 	add	r8,r16
    484c:	20 70 03 e2 	movepc	rret,8
    4850:	14 30 ed f0 	br	10 <compare>,#al
    4854:	00 10 00 41 	add	r2,1
    4858:	0d 40 b1 08 	wl16	r8,0x588
    485c:	0d 60 01 03 	wh16	r8,0x3
    4860:	10 40 01 08 	ld32	r8,r8
    4864:	0d 42 e2 08 	wl16	r16,0x1708
    4868:	0d 60 02 03 	wh16	r16,0x3
    486c:	10 40 02 10 	ld32	r16,r16
    4870:	0d 45 11 28 	wl16	r9,0x2888
    4874:	0d 60 01 23 	wh16	r9,0x3
    4878:	10 40 01 29 	ld32	r9,r9
    487c:	00 00 01 10 	add	r8,r16
    4880:	20 70 03 e2 	movepc	rret,8
    4884:	14 30 ed e3 	br	10 <compare>,#al
    4888:	00 10 00 41 	add	r2,1
    488c:	0d 40 b1 0c 	wl16	r8,0x58c
    4890:	0d 60 01 03 	wh16	r8,0x3
    4894:	10 40 01 08 	ld32	r8,r8
    4898:	0d 42 e2 0c 	wl16	r16,0x170c
    489c:	0d 60 02 03 	wh16	r16,0x3
    48a0:	10 40 02 10 	ld32	r16,r16
    48a4:	0d 45 11 2c 	wl16	r9,0x288c
    48a8:	0d 60 01 23 	wh16	r9,0x3
    48ac:	10 40 01 29 	ld32	r9,r9
    48b0:	00 00 01 10 	add	r8,r16
    48b4:	20 70 03 e2 	movepc	rret,8
    48b8:	14 30 ed d6 	br	10 <compare>,#al
    48bc:	00 10 00 41 	add	r2,1
    48c0:	0d 40 b1 10 	wl16	r8,0x590
    48c4:	0d 60 01 03 	wh16	r8,0x3
    48c8:	10 40 01 08 	ld32	r8,r8
    48cc:	0d 42 e2 10 	wl16	r16,0x1710
    48d0:	0d 60 02 03 	wh16	r16,0x3
    48d4:	10 40 02 10 	ld32	r16,r16
    48d8:	0d 45 11 30 	wl16	r9,0x2890
    48dc:	0d 60 01 23 	wh16	r9,0x3
    48e0:	10 40 01 29 	ld32	r9,r9
    48e4:	00 00 01 10 	add	r8,r16
    48e8:	20 70 03 e2 	movepc	rret,8
    48ec:	14 30 ed c9 	br	10 <compare>,#al
    48f0:	00 10 00 41 	add	r2,1
    48f4:	0d 40 b1 14 	wl16	r8,0x594
    48f8:	0d 60 01 03 	wh16	r8,0x3
    48fc:	10 40 01 08 	ld32	r8,r8
    4900:	0d 42 e2 14 	wl16	r16,0x1714
    4904:	0d 60 02 03 	wh16	r16,0x3
    4908:	10 40 02 10 	ld32	r16,r16
    490c:	0d 45 11 34 	wl16	r9,0x2894
    4910:	0d 60 01 23 	wh16	r9,0x3
    4914:	10 40 01 29 	ld32	r9,r9
    4918:	00 00 01 10 	add	r8,r16
    491c:	20 70 03 e2 	movepc	rret,8
    4920:	14 30 ed bc 	br	10 <compare>,#al
    4924:	00 10 00 41 	add	r2,1
    4928:	0d 40 b1 18 	wl16	r8,0x598
    492c:	0d 60 01 03 	wh16	r8,0x3
    4930:	10 40 01 08 	ld32	r8,r8
    4934:	0d 42 e2 18 	wl16	r16,0x1718
    4938:	0d 60 02 03 	wh16	r16,0x3
    493c:	10 40 02 10 	ld32	r16,r16
    4940:	0d 45 11 38 	wl16	r9,0x2898
    4944:	0d 60 01 23 	wh16	r9,0x3
    4948:	10 40 01 29 	ld32	r9,r9
    494c:	00 00 01 10 	add	r8,r16
    4950:	20 70 03 e2 	movepc	rret,8
    4954:	14 30 ed af 	br	10 <compare>,#al
    4958:	00 10 00 41 	add	r2,1
    495c:	0d 40 b1 1c 	wl16	r8,0x59c
    4960:	0d 60 01 03 	wh16	r8,0x3
    4964:	10 40 01 08 	ld32	r8,r8
    4968:	0d 42 e2 1c 	wl16	r16,0x171c
    496c:	0d 60 02 03 	wh16	r16,0x3
    4970:	10 40 02 10 	ld32	r16,r16
    4974:	0d 45 11 3c 	wl16	r9,0x289c
    4978:	0d 60 01 23 	wh16	r9,0x3
    497c:	10 40 01 29 	ld32	r9,r9
    4980:	00 00 01 10 	add	r8,r16
    4984:	20 70 03 e2 	movepc	rret,8
    4988:	14 30 ed a2 	br	10 <compare>,#al
    498c:	00 10 00 41 	add	r2,1
    4990:	0d 40 b5 00 	wl16	r8,0x5a0
    4994:	0d 60 01 03 	wh16	r8,0x3
    4998:	10 40 01 08 	ld32	r8,r8
    499c:	0d 42 e6 00 	wl16	r16,0x1720
    49a0:	0d 60 02 03 	wh16	r16,0x3
    49a4:	10 40 02 10 	ld32	r16,r16
    49a8:	0d 45 15 20 	wl16	r9,0x28a0
    49ac:	0d 60 01 23 	wh16	r9,0x3
    49b0:	10 40 01 29 	ld32	r9,r9
    49b4:	00 00 01 10 	add	r8,r16
    49b8:	20 70 03 e2 	movepc	rret,8
    49bc:	14 30 ed 95 	br	10 <compare>,#al
    49c0:	00 10 00 41 	add	r2,1
    49c4:	0d 40 b5 04 	wl16	r8,0x5a4
    49c8:	0d 60 01 03 	wh16	r8,0x3
    49cc:	10 40 01 08 	ld32	r8,r8
    49d0:	0d 42 e6 04 	wl16	r16,0x1724
    49d4:	0d 60 02 03 	wh16	r16,0x3
    49d8:	10 40 02 10 	ld32	r16,r16
    49dc:	0d 45 15 24 	wl16	r9,0x28a4
    49e0:	0d 60 01 23 	wh16	r9,0x3
    49e4:	10 40 01 29 	ld32	r9,r9
    49e8:	00 00 01 10 	add	r8,r16
    49ec:	20 70 03 e2 	movepc	rret,8
    49f0:	14 30 ed 88 	br	10 <compare>,#al
    49f4:	00 10 00 41 	add	r2,1
    49f8:	0d 40 b5 08 	wl16	r8,0x5a8
    49fc:	0d 60 01 03 	wh16	r8,0x3
    4a00:	10 40 01 08 	ld32	r8,r8
    4a04:	0d 42 e6 08 	wl16	r16,0x1728
    4a08:	0d 60 02 03 	wh16	r16,0x3
    4a0c:	10 40 02 10 	ld32	r16,r16
    4a10:	0d 45 15 28 	wl16	r9,0x28a8
    4a14:	0d 60 01 23 	wh16	r9,0x3
    4a18:	10 40 01 29 	ld32	r9,r9
    4a1c:	00 00 01 10 	add	r8,r16
    4a20:	20 70 03 e2 	movepc	rret,8
    4a24:	14 30 ed 7b 	br	10 <compare>,#al
    4a28:	00 10 00 41 	add	r2,1
    4a2c:	0d 40 b5 0c 	wl16	r8,0x5ac
    4a30:	0d 60 01 03 	wh16	r8,0x3
    4a34:	10 40 01 08 	ld32	r8,r8
    4a38:	0d 42 e6 0c 	wl16	r16,0x172c
    4a3c:	0d 60 02 03 	wh16	r16,0x3
    4a40:	10 40 02 10 	ld32	r16,r16
    4a44:	0d 45 15 2c 	wl16	r9,0x28ac
    4a48:	0d 60 01 23 	wh16	r9,0x3
    4a4c:	10 40 01 29 	ld32	r9,r9
    4a50:	00 00 01 10 	add	r8,r16
    4a54:	20 70 03 e2 	movepc	rret,8
    4a58:	14 30 ed 6e 	br	10 <compare>,#al
    4a5c:	00 10 00 41 	add	r2,1
    4a60:	0d 40 b5 10 	wl16	r8,0x5b0
    4a64:	0d 60 01 03 	wh16	r8,0x3
    4a68:	10 40 01 08 	ld32	r8,r8
    4a6c:	0d 42 e6 10 	wl16	r16,0x1730
    4a70:	0d 60 02 03 	wh16	r16,0x3
    4a74:	10 40 02 10 	ld32	r16,r16
    4a78:	0d 45 15 30 	wl16	r9,0x28b0
    4a7c:	0d 60 01 23 	wh16	r9,0x3
    4a80:	10 40 01 29 	ld32	r9,r9
    4a84:	00 00 01 10 	add	r8,r16
    4a88:	20 70 03 e2 	movepc	rret,8
    4a8c:	14 30 ed 61 	br	10 <compare>,#al
    4a90:	00 10 00 41 	add	r2,1
    4a94:	0d 40 b5 14 	wl16	r8,0x5b4
    4a98:	0d 60 01 03 	wh16	r8,0x3
    4a9c:	10 40 01 08 	ld32	r8,r8
    4aa0:	0d 42 e6 14 	wl16	r16,0x1734
    4aa4:	0d 60 02 03 	wh16	r16,0x3
    4aa8:	10 40 02 10 	ld32	r16,r16
    4aac:	0d 45 15 34 	wl16	r9,0x28b4
    4ab0:	0d 60 01 23 	wh16	r9,0x3
    4ab4:	10 40 01 29 	ld32	r9,r9
    4ab8:	00 00 01 10 	add	r8,r16
    4abc:	20 70 03 e2 	movepc	rret,8
    4ac0:	14 30 ed 54 	br	10 <compare>,#al
    4ac4:	00 10 00 41 	add	r2,1
    4ac8:	0d 40 b5 18 	wl16	r8,0x5b8
    4acc:	0d 60 01 03 	wh16	r8,0x3
    4ad0:	10 40 01 08 	ld32	r8,r8
    4ad4:	0d 42 e6 18 	wl16	r16,0x1738
    4ad8:	0d 60 02 03 	wh16	r16,0x3
    4adc:	10 40 02 10 	ld32	r16,r16
    4ae0:	0d 45 15 38 	wl16	r9,0x28b8
    4ae4:	0d 60 01 23 	wh16	r9,0x3
    4ae8:	10 40 01 29 	ld32	r9,r9
    4aec:	00 00 01 10 	add	r8,r16
    4af0:	20 70 03 e2 	movepc	rret,8
    4af4:	14 30 ed 47 	br	10 <compare>,#al
    4af8:	00 10 00 41 	add	r2,1
    4afc:	0d 40 b5 1c 	wl16	r8,0x5bc
    4b00:	0d 60 01 03 	wh16	r8,0x3
    4b04:	10 40 01 08 	ld32	r8,r8
    4b08:	0d 42 e6 1c 	wl16	r16,0x173c
    4b0c:	0d 60 02 03 	wh16	r16,0x3
    4b10:	10 40 02 10 	ld32	r16,r16
    4b14:	0d 45 15 3c 	wl16	r9,0x28bc
    4b18:	0d 60 01 23 	wh16	r9,0x3
    4b1c:	10 40 01 29 	ld32	r9,r9
    4b20:	00 00 01 10 	add	r8,r16
    4b24:	20 70 03 e2 	movepc	rret,8
    4b28:	14 30 ed 3a 	br	10 <compare>,#al
    4b2c:	00 10 00 41 	add	r2,1
    4b30:	0d 40 b9 00 	wl16	r8,0x5c0
    4b34:	0d 60 01 03 	wh16	r8,0x3
    4b38:	10 40 01 08 	ld32	r8,r8
    4b3c:	0d 42 ea 00 	wl16	r16,0x1740
    4b40:	0d 60 02 03 	wh16	r16,0x3
    4b44:	10 40 02 10 	ld32	r16,r16
    4b48:	0d 45 19 20 	wl16	r9,0x28c0
    4b4c:	0d 60 01 23 	wh16	r9,0x3
    4b50:	10 40 01 29 	ld32	r9,r9
    4b54:	00 00 01 10 	add	r8,r16
    4b58:	20 70 03 e2 	movepc	rret,8
    4b5c:	14 30 ed 2d 	br	10 <compare>,#al
    4b60:	00 10 00 41 	add	r2,1
    4b64:	0d 40 b9 04 	wl16	r8,0x5c4
    4b68:	0d 60 01 03 	wh16	r8,0x3
    4b6c:	10 40 01 08 	ld32	r8,r8
    4b70:	0d 42 ea 04 	wl16	r16,0x1744
    4b74:	0d 60 02 03 	wh16	r16,0x3
    4b78:	10 40 02 10 	ld32	r16,r16
    4b7c:	0d 45 19 24 	wl16	r9,0x28c4
    4b80:	0d 60 01 23 	wh16	r9,0x3
    4b84:	10 40 01 29 	ld32	r9,r9
    4b88:	00 00 01 10 	add	r8,r16
    4b8c:	20 70 03 e2 	movepc	rret,8
    4b90:	14 30 ed 20 	br	10 <compare>,#al
    4b94:	00 10 00 41 	add	r2,1
    4b98:	0d 40 b9 08 	wl16	r8,0x5c8
    4b9c:	0d 60 01 03 	wh16	r8,0x3
    4ba0:	10 40 01 08 	ld32	r8,r8
    4ba4:	0d 42 ea 08 	wl16	r16,0x1748
    4ba8:	0d 60 02 03 	wh16	r16,0x3
    4bac:	10 40 02 10 	ld32	r16,r16
    4bb0:	0d 45 19 28 	wl16	r9,0x28c8
    4bb4:	0d 60 01 23 	wh16	r9,0x3
    4bb8:	10 40 01 29 	ld32	r9,r9
    4bbc:	00 00 01 10 	add	r8,r16
    4bc0:	20 70 03 e2 	movepc	rret,8
    4bc4:	14 30 ed 13 	br	10 <compare>,#al
    4bc8:	00 10 00 41 	add	r2,1
    4bcc:	0d 40 b9 0c 	wl16	r8,0x5cc
    4bd0:	0d 60 01 03 	wh16	r8,0x3
    4bd4:	10 40 01 08 	ld32	r8,r8
    4bd8:	0d 42 ea 0c 	wl16	r16,0x174c
    4bdc:	0d 60 02 03 	wh16	r16,0x3
    4be0:	10 40 02 10 	ld32	r16,r16
    4be4:	0d 45 19 2c 	wl16	r9,0x28cc
    4be8:	0d 60 01 23 	wh16	r9,0x3
    4bec:	10 40 01 29 	ld32	r9,r9
    4bf0:	00 00 01 10 	add	r8,r16
    4bf4:	20 70 03 e2 	movepc	rret,8
    4bf8:	14 30 ed 06 	br	10 <compare>,#al
    4bfc:	00 10 00 41 	add	r2,1
    4c00:	0d 40 b9 10 	wl16	r8,0x5d0
    4c04:	0d 60 01 03 	wh16	r8,0x3
    4c08:	10 40 01 08 	ld32	r8,r8
    4c0c:	0d 42 ea 10 	wl16	r16,0x1750
    4c10:	0d 60 02 03 	wh16	r16,0x3
    4c14:	10 40 02 10 	ld32	r16,r16
    4c18:	0d 45 19 30 	wl16	r9,0x28d0
    4c1c:	0d 60 01 23 	wh16	r9,0x3
    4c20:	10 40 01 29 	ld32	r9,r9
    4c24:	00 00 01 10 	add	r8,r16
    4c28:	20 70 03 e2 	movepc	rret,8
    4c2c:	14 30 ec f9 	br	10 <compare>,#al
    4c30:	00 10 00 41 	add	r2,1
    4c34:	0d 40 b9 14 	wl16	r8,0x5d4
    4c38:	0d 60 01 03 	wh16	r8,0x3
    4c3c:	10 40 01 08 	ld32	r8,r8
    4c40:	0d 42 ea 14 	wl16	r16,0x1754
    4c44:	0d 60 02 03 	wh16	r16,0x3
    4c48:	10 40 02 10 	ld32	r16,r16
    4c4c:	0d 45 19 34 	wl16	r9,0x28d4
    4c50:	0d 60 01 23 	wh16	r9,0x3
    4c54:	10 40 01 29 	ld32	r9,r9
    4c58:	00 00 01 10 	add	r8,r16
    4c5c:	20 70 03 e2 	movepc	rret,8
    4c60:	14 30 ec ec 	br	10 <compare>,#al
    4c64:	00 10 00 41 	add	r2,1
    4c68:	0d 40 b9 18 	wl16	r8,0x5d8
    4c6c:	0d 60 01 03 	wh16	r8,0x3
    4c70:	10 40 01 08 	ld32	r8,r8
    4c74:	0d 42 ea 18 	wl16	r16,0x1758
    4c78:	0d 60 02 03 	wh16	r16,0x3
    4c7c:	10 40 02 10 	ld32	r16,r16
    4c80:	0d 45 19 38 	wl16	r9,0x28d8
    4c84:	0d 60 01 23 	wh16	r9,0x3
    4c88:	10 40 01 29 	ld32	r9,r9
    4c8c:	00 00 01 10 	add	r8,r16
    4c90:	20 70 03 e2 	movepc	rret,8
    4c94:	14 30 ec df 	br	10 <compare>,#al
    4c98:	00 10 00 41 	add	r2,1
    4c9c:	0d 40 b9 1c 	wl16	r8,0x5dc
    4ca0:	0d 60 01 03 	wh16	r8,0x3
    4ca4:	10 40 01 08 	ld32	r8,r8
    4ca8:	0d 42 ea 1c 	wl16	r16,0x175c
    4cac:	0d 60 02 03 	wh16	r16,0x3
    4cb0:	10 40 02 10 	ld32	r16,r16
    4cb4:	0d 45 19 3c 	wl16	r9,0x28dc
    4cb8:	0d 60 01 23 	wh16	r9,0x3
    4cbc:	10 40 01 29 	ld32	r9,r9
    4cc0:	00 00 01 10 	add	r8,r16
    4cc4:	20 70 03 e2 	movepc	rret,8
    4cc8:	14 30 ec d2 	br	10 <compare>,#al
    4ccc:	00 10 00 41 	add	r2,1
    4cd0:	0d 40 bd 00 	wl16	r8,0x5e0
    4cd4:	0d 60 01 03 	wh16	r8,0x3
    4cd8:	10 40 01 08 	ld32	r8,r8
    4cdc:	0d 42 ee 00 	wl16	r16,0x1760
    4ce0:	0d 60 02 03 	wh16	r16,0x3
    4ce4:	10 40 02 10 	ld32	r16,r16
    4ce8:	0d 45 1d 20 	wl16	r9,0x28e0
    4cec:	0d 60 01 23 	wh16	r9,0x3
    4cf0:	10 40 01 29 	ld32	r9,r9
    4cf4:	00 00 01 10 	add	r8,r16
    4cf8:	20 70 03 e2 	movepc	rret,8
    4cfc:	14 30 ec c5 	br	10 <compare>,#al
    4d00:	00 10 00 41 	add	r2,1
    4d04:	0d 40 bd 04 	wl16	r8,0x5e4
    4d08:	0d 60 01 03 	wh16	r8,0x3
    4d0c:	10 40 01 08 	ld32	r8,r8
    4d10:	0d 42 ee 04 	wl16	r16,0x1764
    4d14:	0d 60 02 03 	wh16	r16,0x3
    4d18:	10 40 02 10 	ld32	r16,r16
    4d1c:	0d 45 1d 24 	wl16	r9,0x28e4
    4d20:	0d 60 01 23 	wh16	r9,0x3
    4d24:	10 40 01 29 	ld32	r9,r9
    4d28:	00 00 01 10 	add	r8,r16
    4d2c:	20 70 03 e2 	movepc	rret,8
    4d30:	14 30 ec b8 	br	10 <compare>,#al
    4d34:	00 10 00 41 	add	r2,1
    4d38:	0d 40 bd 08 	wl16	r8,0x5e8
    4d3c:	0d 60 01 03 	wh16	r8,0x3
    4d40:	10 40 01 08 	ld32	r8,r8
    4d44:	0d 42 ee 08 	wl16	r16,0x1768
    4d48:	0d 60 02 03 	wh16	r16,0x3
    4d4c:	10 40 02 10 	ld32	r16,r16
    4d50:	0d 45 1d 28 	wl16	r9,0x28e8
    4d54:	0d 60 01 23 	wh16	r9,0x3
    4d58:	10 40 01 29 	ld32	r9,r9
    4d5c:	00 00 01 10 	add	r8,r16
    4d60:	20 70 03 e2 	movepc	rret,8
    4d64:	14 30 ec ab 	br	10 <compare>,#al
    4d68:	00 10 00 41 	add	r2,1
    4d6c:	0d 40 bd 0c 	wl16	r8,0x5ec
    4d70:	0d 60 01 03 	wh16	r8,0x3
    4d74:	10 40 01 08 	ld32	r8,r8
    4d78:	0d 42 ee 0c 	wl16	r16,0x176c
    4d7c:	0d 60 02 03 	wh16	r16,0x3
    4d80:	10 40 02 10 	ld32	r16,r16
    4d84:	0d 45 1d 2c 	wl16	r9,0x28ec
    4d88:	0d 60 01 23 	wh16	r9,0x3
    4d8c:	10 40 01 29 	ld32	r9,r9
    4d90:	00 00 01 10 	add	r8,r16
    4d94:	20 70 03 e2 	movepc	rret,8
    4d98:	14 30 ec 9e 	br	10 <compare>,#al
    4d9c:	00 10 00 41 	add	r2,1
    4da0:	0d 40 bd 10 	wl16	r8,0x5f0
    4da4:	0d 60 01 03 	wh16	r8,0x3
    4da8:	10 40 01 08 	ld32	r8,r8
    4dac:	0d 42 ee 10 	wl16	r16,0x1770
    4db0:	0d 60 02 03 	wh16	r16,0x3
    4db4:	10 40 02 10 	ld32	r16,r16
    4db8:	0d 45 1d 30 	wl16	r9,0x28f0
    4dbc:	0d 60 01 23 	wh16	r9,0x3
    4dc0:	10 40 01 29 	ld32	r9,r9
    4dc4:	00 00 01 10 	add	r8,r16
    4dc8:	20 70 03 e2 	movepc	rret,8
    4dcc:	14 30 ec 91 	br	10 <compare>,#al
    4dd0:	00 10 00 41 	add	r2,1
    4dd4:	0d 40 bd 14 	wl16	r8,0x5f4
    4dd8:	0d 60 01 03 	wh16	r8,0x3
    4ddc:	10 40 01 08 	ld32	r8,r8
    4de0:	0d 42 ee 14 	wl16	r16,0x1774
    4de4:	0d 60 02 03 	wh16	r16,0x3
    4de8:	10 40 02 10 	ld32	r16,r16
    4dec:	0d 45 1d 34 	wl16	r9,0x28f4
    4df0:	0d 60 01 23 	wh16	r9,0x3
    4df4:	10 40 01 29 	ld32	r9,r9
    4df8:	00 00 01 10 	add	r8,r16
    4dfc:	20 70 03 e2 	movepc	rret,8
    4e00:	14 30 ec 84 	br	10 <compare>,#al
    4e04:	00 10 00 41 	add	r2,1
    4e08:	0d 40 bd 18 	wl16	r8,0x5f8
    4e0c:	0d 60 01 03 	wh16	r8,0x3
    4e10:	10 40 01 08 	ld32	r8,r8
    4e14:	0d 42 ee 18 	wl16	r16,0x1778
    4e18:	0d 60 02 03 	wh16	r16,0x3
    4e1c:	10 40 02 10 	ld32	r16,r16
    4e20:	0d 45 1d 38 	wl16	r9,0x28f8
    4e24:	0d 60 01 23 	wh16	r9,0x3
    4e28:	10 40 01 29 	ld32	r9,r9
    4e2c:	00 00 01 10 	add	r8,r16
    4e30:	20 70 03 e2 	movepc	rret,8
    4e34:	14 30 ec 77 	br	10 <compare>,#al
    4e38:	00 10 00 41 	add	r2,1
    4e3c:	0d 40 bd 1c 	wl16	r8,0x5fc
    4e40:	0d 60 01 03 	wh16	r8,0x3
    4e44:	10 40 01 08 	ld32	r8,r8
    4e48:	0d 42 ee 1c 	wl16	r16,0x177c
    4e4c:	0d 60 02 03 	wh16	r16,0x3
    4e50:	10 40 02 10 	ld32	r16,r16
    4e54:	0d 45 1d 3c 	wl16	r9,0x28fc
    4e58:	0d 60 01 23 	wh16	r9,0x3
    4e5c:	10 40 01 29 	ld32	r9,r9
    4e60:	00 00 01 10 	add	r8,r16
    4e64:	20 70 03 e2 	movepc	rret,8
    4e68:	14 30 ec 6a 	br	10 <compare>,#al
    4e6c:	00 10 00 41 	add	r2,1
    4e70:	0d 40 c1 00 	wl16	r8,0x600
    4e74:	0d 60 01 03 	wh16	r8,0x3
    4e78:	10 40 01 08 	ld32	r8,r8
    4e7c:	0d 42 f2 00 	wl16	r16,0x1780
    4e80:	0d 60 02 03 	wh16	r16,0x3
    4e84:	10 40 02 10 	ld32	r16,r16
    4e88:	0d 45 21 20 	wl16	r9,0x2900
    4e8c:	0d 60 01 23 	wh16	r9,0x3
    4e90:	10 40 01 29 	ld32	r9,r9
    4e94:	00 00 01 10 	add	r8,r16
    4e98:	20 70 03 e2 	movepc	rret,8
    4e9c:	14 30 ec 5d 	br	10 <compare>,#al
    4ea0:	00 10 00 41 	add	r2,1
    4ea4:	0d 40 c1 04 	wl16	r8,0x604
    4ea8:	0d 60 01 03 	wh16	r8,0x3
    4eac:	10 40 01 08 	ld32	r8,r8
    4eb0:	0d 42 f2 04 	wl16	r16,0x1784
    4eb4:	0d 60 02 03 	wh16	r16,0x3
    4eb8:	10 40 02 10 	ld32	r16,r16
    4ebc:	0d 45 21 24 	wl16	r9,0x2904
    4ec0:	0d 60 01 23 	wh16	r9,0x3
    4ec4:	10 40 01 29 	ld32	r9,r9
    4ec8:	00 00 01 10 	add	r8,r16
    4ecc:	20 70 03 e2 	movepc	rret,8
    4ed0:	14 30 ec 50 	br	10 <compare>,#al
    4ed4:	00 10 00 41 	add	r2,1
    4ed8:	0d 40 c1 08 	wl16	r8,0x608
    4edc:	0d 60 01 03 	wh16	r8,0x3
    4ee0:	10 40 01 08 	ld32	r8,r8
    4ee4:	0d 42 f2 08 	wl16	r16,0x1788
    4ee8:	0d 60 02 03 	wh16	r16,0x3
    4eec:	10 40 02 10 	ld32	r16,r16
    4ef0:	0d 45 21 28 	wl16	r9,0x2908
    4ef4:	0d 60 01 23 	wh16	r9,0x3
    4ef8:	10 40 01 29 	ld32	r9,r9
    4efc:	00 00 01 10 	add	r8,r16
    4f00:	20 70 03 e2 	movepc	rret,8
    4f04:	14 30 ec 43 	br	10 <compare>,#al
    4f08:	00 10 00 41 	add	r2,1
    4f0c:	0d 40 c1 0c 	wl16	r8,0x60c
    4f10:	0d 60 01 03 	wh16	r8,0x3
    4f14:	10 40 01 08 	ld32	r8,r8
    4f18:	0d 42 f2 0c 	wl16	r16,0x178c
    4f1c:	0d 60 02 03 	wh16	r16,0x3
    4f20:	10 40 02 10 	ld32	r16,r16
    4f24:	0d 45 21 2c 	wl16	r9,0x290c
    4f28:	0d 60 01 23 	wh16	r9,0x3
    4f2c:	10 40 01 29 	ld32	r9,r9
    4f30:	00 00 01 10 	add	r8,r16
    4f34:	20 70 03 e2 	movepc	rret,8
    4f38:	14 30 ec 36 	br	10 <compare>,#al
    4f3c:	00 10 00 41 	add	r2,1
    4f40:	0d 40 c1 10 	wl16	r8,0x610
    4f44:	0d 60 01 03 	wh16	r8,0x3
    4f48:	10 40 01 08 	ld32	r8,r8
    4f4c:	0d 42 f2 10 	wl16	r16,0x1790
    4f50:	0d 60 02 03 	wh16	r16,0x3
    4f54:	10 40 02 10 	ld32	r16,r16
    4f58:	0d 45 21 30 	wl16	r9,0x2910
    4f5c:	0d 60 01 23 	wh16	r9,0x3
    4f60:	10 40 01 29 	ld32	r9,r9
    4f64:	00 00 01 10 	add	r8,r16
    4f68:	20 70 03 e2 	movepc	rret,8
    4f6c:	14 30 ec 29 	br	10 <compare>,#al
    4f70:	00 10 00 41 	add	r2,1
    4f74:	0d 40 c1 14 	wl16	r8,0x614
    4f78:	0d 60 01 03 	wh16	r8,0x3
    4f7c:	10 40 01 08 	ld32	r8,r8
    4f80:	0d 42 f2 14 	wl16	r16,0x1794
    4f84:	0d 60 02 03 	wh16	r16,0x3
    4f88:	10 40 02 10 	ld32	r16,r16
    4f8c:	0d 45 21 34 	wl16	r9,0x2914
    4f90:	0d 60 01 23 	wh16	r9,0x3
    4f94:	10 40 01 29 	ld32	r9,r9
    4f98:	00 00 01 10 	add	r8,r16
    4f9c:	20 70 03 e2 	movepc	rret,8
    4fa0:	14 30 ec 1c 	br	10 <compare>,#al
    4fa4:	00 10 00 41 	add	r2,1
    4fa8:	0d 40 c1 18 	wl16	r8,0x618
    4fac:	0d 60 01 03 	wh16	r8,0x3
    4fb0:	10 40 01 08 	ld32	r8,r8
    4fb4:	0d 42 f2 18 	wl16	r16,0x1798
    4fb8:	0d 60 02 03 	wh16	r16,0x3
    4fbc:	10 40 02 10 	ld32	r16,r16
    4fc0:	0d 45 21 38 	wl16	r9,0x2918
    4fc4:	0d 60 01 23 	wh16	r9,0x3
    4fc8:	10 40 01 29 	ld32	r9,r9
    4fcc:	00 00 01 10 	add	r8,r16
    4fd0:	20 70 03 e2 	movepc	rret,8
    4fd4:	14 30 ec 0f 	br	10 <compare>,#al
    4fd8:	00 10 00 41 	add	r2,1
    4fdc:	0d 40 c1 1c 	wl16	r8,0x61c
    4fe0:	0d 60 01 03 	wh16	r8,0x3
    4fe4:	10 40 01 08 	ld32	r8,r8
    4fe8:	0d 42 f2 1c 	wl16	r16,0x179c
    4fec:	0d 60 02 03 	wh16	r16,0x3
    4ff0:	10 40 02 10 	ld32	r16,r16
    4ff4:	0d 45 21 3c 	wl16	r9,0x291c
    4ff8:	0d 60 01 23 	wh16	r9,0x3
    4ffc:	10 40 01 29 	ld32	r9,r9
    5000:	00 00 01 10 	add	r8,r16
    5004:	20 70 03 e2 	movepc	rret,8
    5008:	14 30 ec 02 	br	10 <compare>,#al
    500c:	00 10 00 41 	add	r2,1
    5010:	0d 40 c5 00 	wl16	r8,0x620
    5014:	0d 60 01 03 	wh16	r8,0x3
    5018:	10 40 01 08 	ld32	r8,r8
    501c:	0d 42 f6 00 	wl16	r16,0x17a0
    5020:	0d 60 02 03 	wh16	r16,0x3
    5024:	10 40 02 10 	ld32	r16,r16
    5028:	0d 45 25 20 	wl16	r9,0x2920
    502c:	0d 60 01 23 	wh16	r9,0x3
    5030:	10 40 01 29 	ld32	r9,r9
    5034:	00 00 01 10 	add	r8,r16
    5038:	20 70 03 e2 	movepc	rret,8
    503c:	14 30 eb f5 	br	10 <compare>,#al
    5040:	00 10 00 41 	add	r2,1
    5044:	0d 40 c5 04 	wl16	r8,0x624
    5048:	0d 60 01 03 	wh16	r8,0x3
    504c:	10 40 01 08 	ld32	r8,r8
    5050:	0d 42 f6 04 	wl16	r16,0x17a4
    5054:	0d 60 02 03 	wh16	r16,0x3
    5058:	10 40 02 10 	ld32	r16,r16
    505c:	0d 45 25 24 	wl16	r9,0x2924
    5060:	0d 60 01 23 	wh16	r9,0x3
    5064:	10 40 01 29 	ld32	r9,r9
    5068:	00 00 01 10 	add	r8,r16
    506c:	20 70 03 e2 	movepc	rret,8
    5070:	14 30 eb e8 	br	10 <compare>,#al
    5074:	00 10 00 41 	add	r2,1
    5078:	0d 40 c5 08 	wl16	r8,0x628
    507c:	0d 60 01 03 	wh16	r8,0x3
    5080:	10 40 01 08 	ld32	r8,r8
    5084:	0d 42 f6 08 	wl16	r16,0x17a8
    5088:	0d 60 02 03 	wh16	r16,0x3
    508c:	10 40 02 10 	ld32	r16,r16
    5090:	0d 45 25 28 	wl16	r9,0x2928
    5094:	0d 60 01 23 	wh16	r9,0x3
    5098:	10 40 01 29 	ld32	r9,r9
    509c:	00 00 01 10 	add	r8,r16
    50a0:	20 70 03 e2 	movepc	rret,8
    50a4:	14 30 eb db 	br	10 <compare>,#al
    50a8:	00 10 00 41 	add	r2,1
    50ac:	0d 40 c5 0c 	wl16	r8,0x62c
    50b0:	0d 60 01 03 	wh16	r8,0x3
    50b4:	10 40 01 08 	ld32	r8,r8
    50b8:	0d 42 f6 0c 	wl16	r16,0x17ac
    50bc:	0d 60 02 03 	wh16	r16,0x3
    50c0:	10 40 02 10 	ld32	r16,r16
    50c4:	0d 45 25 2c 	wl16	r9,0x292c
    50c8:	0d 60 01 23 	wh16	r9,0x3
    50cc:	10 40 01 29 	ld32	r9,r9
    50d0:	00 00 01 10 	add	r8,r16
    50d4:	20 70 03 e2 	movepc	rret,8
    50d8:	14 30 eb ce 	br	10 <compare>,#al
    50dc:	00 10 00 41 	add	r2,1
    50e0:	0d 40 c5 10 	wl16	r8,0x630
    50e4:	0d 60 01 03 	wh16	r8,0x3
    50e8:	10 40 01 08 	ld32	r8,r8
    50ec:	0d 42 f6 10 	wl16	r16,0x17b0
    50f0:	0d 60 02 03 	wh16	r16,0x3
    50f4:	10 40 02 10 	ld32	r16,r16
    50f8:	0d 45 25 30 	wl16	r9,0x2930
    50fc:	0d 60 01 23 	wh16	r9,0x3
    5100:	10 40 01 29 	ld32	r9,r9
    5104:	00 00 01 10 	add	r8,r16
    5108:	20 70 03 e2 	movepc	rret,8
    510c:	14 30 eb c1 	br	10 <compare>,#al
    5110:	00 10 00 41 	add	r2,1
    5114:	0d 40 c5 14 	wl16	r8,0x634
    5118:	0d 60 01 03 	wh16	r8,0x3
    511c:	10 40 01 08 	ld32	r8,r8
    5120:	0d 42 f6 14 	wl16	r16,0x17b4
    5124:	0d 60 02 03 	wh16	r16,0x3
    5128:	10 40 02 10 	ld32	r16,r16
    512c:	0d 45 25 34 	wl16	r9,0x2934
    5130:	0d 60 01 23 	wh16	r9,0x3
    5134:	10 40 01 29 	ld32	r9,r9
    5138:	00 00 01 10 	add	r8,r16
    513c:	20 70 03 e2 	movepc	rret,8
    5140:	14 30 eb b4 	br	10 <compare>,#al
    5144:	00 10 00 41 	add	r2,1
    5148:	0d 40 c5 18 	wl16	r8,0x638
    514c:	0d 60 01 03 	wh16	r8,0x3
    5150:	10 40 01 08 	ld32	r8,r8
    5154:	0d 42 f6 18 	wl16	r16,0x17b8
    5158:	0d 60 02 03 	wh16	r16,0x3
    515c:	10 40 02 10 	ld32	r16,r16
    5160:	0d 45 25 38 	wl16	r9,0x2938
    5164:	0d 60 01 23 	wh16	r9,0x3
    5168:	10 40 01 29 	ld32	r9,r9
    516c:	00 00 01 10 	add	r8,r16
    5170:	20 70 03 e2 	movepc	rret,8
    5174:	14 30 eb a7 	br	10 <compare>,#al
    5178:	00 10 00 41 	add	r2,1
    517c:	0d 40 c5 1c 	wl16	r8,0x63c
    5180:	0d 60 01 03 	wh16	r8,0x3
    5184:	10 40 01 08 	ld32	r8,r8
    5188:	0d 42 f6 1c 	wl16	r16,0x17bc
    518c:	0d 60 02 03 	wh16	r16,0x3
    5190:	10 40 02 10 	ld32	r16,r16
    5194:	0d 45 25 3c 	wl16	r9,0x293c
    5198:	0d 60 01 23 	wh16	r9,0x3
    519c:	10 40 01 29 	ld32	r9,r9
    51a0:	00 00 01 10 	add	r8,r16
    51a4:	20 70 03 e2 	movepc	rret,8
    51a8:	14 30 eb 9a 	br	10 <compare>,#al
    51ac:	00 10 00 41 	add	r2,1
    51b0:	0d 40 c9 00 	wl16	r8,0x640
    51b4:	0d 60 01 03 	wh16	r8,0x3
    51b8:	10 40 01 08 	ld32	r8,r8
    51bc:	0d 42 fa 00 	wl16	r16,0x17c0
    51c0:	0d 60 02 03 	wh16	r16,0x3
    51c4:	10 40 02 10 	ld32	r16,r16
    51c8:	0d 45 29 20 	wl16	r9,0x2940
    51cc:	0d 60 01 23 	wh16	r9,0x3
    51d0:	10 40 01 29 	ld32	r9,r9
    51d4:	00 00 01 10 	add	r8,r16
    51d8:	20 70 03 e2 	movepc	rret,8
    51dc:	14 30 eb 8d 	br	10 <compare>,#al
    51e0:	00 10 00 41 	add	r2,1
    51e4:	0d 40 c9 04 	wl16	r8,0x644
    51e8:	0d 60 01 03 	wh16	r8,0x3
    51ec:	10 40 01 08 	ld32	r8,r8
    51f0:	0d 42 fa 04 	wl16	r16,0x17c4
    51f4:	0d 60 02 03 	wh16	r16,0x3
    51f8:	10 40 02 10 	ld32	r16,r16
    51fc:	0d 45 29 24 	wl16	r9,0x2944
    5200:	0d 60 01 23 	wh16	r9,0x3
    5204:	10 40 01 29 	ld32	r9,r9
    5208:	00 00 01 10 	add	r8,r16
    520c:	20 70 03 e2 	movepc	rret,8
    5210:	14 30 eb 80 	br	10 <compare>,#al
    5214:	00 10 00 41 	add	r2,1
    5218:	0d 40 c9 08 	wl16	r8,0x648
    521c:	0d 60 01 03 	wh16	r8,0x3
    5220:	10 40 01 08 	ld32	r8,r8
    5224:	0d 42 fa 08 	wl16	r16,0x17c8
    5228:	0d 60 02 03 	wh16	r16,0x3
    522c:	10 40 02 10 	ld32	r16,r16
    5230:	0d 45 29 28 	wl16	r9,0x2948
    5234:	0d 60 01 23 	wh16	r9,0x3
    5238:	10 40 01 29 	ld32	r9,r9
    523c:	00 00 01 10 	add	r8,r16
    5240:	20 70 03 e2 	movepc	rret,8
    5244:	14 30 eb 73 	br	10 <compare>,#al
    5248:	00 10 00 41 	add	r2,1
    524c:	0d 40 c9 0c 	wl16	r8,0x64c
    5250:	0d 60 01 03 	wh16	r8,0x3
    5254:	10 40 01 08 	ld32	r8,r8
    5258:	0d 42 fa 0c 	wl16	r16,0x17cc
    525c:	0d 60 02 03 	wh16	r16,0x3
    5260:	10 40 02 10 	ld32	r16,r16
    5264:	0d 45 29 2c 	wl16	r9,0x294c
    5268:	0d 60 01 23 	wh16	r9,0x3
    526c:	10 40 01 29 	ld32	r9,r9
    5270:	00 00 01 10 	add	r8,r16
    5274:	20 70 03 e2 	movepc	rret,8
    5278:	14 30 eb 66 	br	10 <compare>,#al
    527c:	00 10 00 41 	add	r2,1
    5280:	0d 40 c9 10 	wl16	r8,0x650
    5284:	0d 60 01 03 	wh16	r8,0x3
    5288:	10 40 01 08 	ld32	r8,r8
    528c:	0d 42 fa 10 	wl16	r16,0x17d0
    5290:	0d 60 02 03 	wh16	r16,0x3
    5294:	10 40 02 10 	ld32	r16,r16
    5298:	0d 45 29 30 	wl16	r9,0x2950
    529c:	0d 60 01 23 	wh16	r9,0x3
    52a0:	10 40 01 29 	ld32	r9,r9
    52a4:	00 00 01 10 	add	r8,r16
    52a8:	20 70 03 e2 	movepc	rret,8
    52ac:	14 30 eb 59 	br	10 <compare>,#al
    52b0:	00 10 00 41 	add	r2,1
    52b4:	0d 40 c9 14 	wl16	r8,0x654
    52b8:	0d 60 01 03 	wh16	r8,0x3
    52bc:	10 40 01 08 	ld32	r8,r8
    52c0:	0d 42 fa 14 	wl16	r16,0x17d4
    52c4:	0d 60 02 03 	wh16	r16,0x3
    52c8:	10 40 02 10 	ld32	r16,r16
    52cc:	0d 45 29 34 	wl16	r9,0x2954
    52d0:	0d 60 01 23 	wh16	r9,0x3
    52d4:	10 40 01 29 	ld32	r9,r9
    52d8:	00 00 01 10 	add	r8,r16
    52dc:	20 70 03 e2 	movepc	rret,8
    52e0:	14 30 eb 4c 	br	10 <compare>,#al
    52e4:	00 10 00 41 	add	r2,1
    52e8:	0d 40 c9 18 	wl16	r8,0x658
    52ec:	0d 60 01 03 	wh16	r8,0x3
    52f0:	10 40 01 08 	ld32	r8,r8
    52f4:	0d 42 fa 18 	wl16	r16,0x17d8
    52f8:	0d 60 02 03 	wh16	r16,0x3
    52fc:	10 40 02 10 	ld32	r16,r16
    5300:	0d 45 29 38 	wl16	r9,0x2958
    5304:	0d 60 01 23 	wh16	r9,0x3
    5308:	10 40 01 29 	ld32	r9,r9
    530c:	00 00 01 10 	add	r8,r16
    5310:	20 70 03 e2 	movepc	rret,8
    5314:	14 30 eb 3f 	br	10 <compare>,#al
    5318:	00 10 00 41 	add	r2,1
    531c:	0d 40 c9 1c 	wl16	r8,0x65c
    5320:	0d 60 01 03 	wh16	r8,0x3
    5324:	10 40 01 08 	ld32	r8,r8
    5328:	0d 42 fa 1c 	wl16	r16,0x17dc
    532c:	0d 60 02 03 	wh16	r16,0x3
    5330:	10 40 02 10 	ld32	r16,r16
    5334:	0d 45 29 3c 	wl16	r9,0x295c
    5338:	0d 60 01 23 	wh16	r9,0x3
    533c:	10 40 01 29 	ld32	r9,r9
    5340:	00 00 01 10 	add	r8,r16
    5344:	20 70 03 e2 	movepc	rret,8
    5348:	14 30 eb 32 	br	10 <compare>,#al
    534c:	00 10 00 41 	add	r2,1
    5350:	0d 40 cd 00 	wl16	r8,0x660
    5354:	0d 60 01 03 	wh16	r8,0x3
    5358:	10 40 01 08 	ld32	r8,r8
    535c:	0d 42 fe 00 	wl16	r16,0x17e0
    5360:	0d 60 02 03 	wh16	r16,0x3
    5364:	10 40 02 10 	ld32	r16,r16
    5368:	0d 45 2d 20 	wl16	r9,0x2960
    536c:	0d 60 01 23 	wh16	r9,0x3
    5370:	10 40 01 29 	ld32	r9,r9
    5374:	00 00 01 10 	add	r8,r16
    5378:	20 70 03 e2 	movepc	rret,8
    537c:	14 30 eb 25 	br	10 <compare>,#al
    5380:	00 10 00 41 	add	r2,1
    5384:	0d 40 cd 04 	wl16	r8,0x664
    5388:	0d 60 01 03 	wh16	r8,0x3
    538c:	10 40 01 08 	ld32	r8,r8
    5390:	0d 42 fe 04 	wl16	r16,0x17e4
    5394:	0d 60 02 03 	wh16	r16,0x3
    5398:	10 40 02 10 	ld32	r16,r16
    539c:	0d 45 2d 24 	wl16	r9,0x2964
    53a0:	0d 60 01 23 	wh16	r9,0x3
    53a4:	10 40 01 29 	ld32	r9,r9
    53a8:	00 00 01 10 	add	r8,r16
    53ac:	20 70 03 e2 	movepc	rret,8
    53b0:	14 30 eb 18 	br	10 <compare>,#al
    53b4:	00 10 00 41 	add	r2,1
    53b8:	0d 40 cd 08 	wl16	r8,0x668
    53bc:	0d 60 01 03 	wh16	r8,0x3
    53c0:	10 40 01 08 	ld32	r8,r8
    53c4:	0d 42 fe 08 	wl16	r16,0x17e8
    53c8:	0d 60 02 03 	wh16	r16,0x3
    53cc:	10 40 02 10 	ld32	r16,r16
    53d0:	0d 45 2d 28 	wl16	r9,0x2968
    53d4:	0d 60 01 23 	wh16	r9,0x3
    53d8:	10 40 01 29 	ld32	r9,r9
    53dc:	00 00 01 10 	add	r8,r16
    53e0:	20 70 03 e2 	movepc	rret,8
    53e4:	14 30 eb 0b 	br	10 <compare>,#al
    53e8:	00 10 00 41 	add	r2,1
    53ec:	0d 40 cd 0c 	wl16	r8,0x66c
    53f0:	0d 60 01 03 	wh16	r8,0x3
    53f4:	10 40 01 08 	ld32	r8,r8
    53f8:	0d 42 fe 0c 	wl16	r16,0x17ec
    53fc:	0d 60 02 03 	wh16	r16,0x3
    5400:	10 40 02 10 	ld32	r16,r16
    5404:	0d 45 2d 2c 	wl16	r9,0x296c
    5408:	0d 60 01 23 	wh16	r9,0x3
    540c:	10 40 01 29 	ld32	r9,r9
    5410:	00 00 01 10 	add	r8,r16
    5414:	20 70 03 e2 	movepc	rret,8
    5418:	14 30 ea fe 	br	10 <compare>,#al
    541c:	00 10 00 41 	add	r2,1
    5420:	0d 40 cd 10 	wl16	r8,0x670
    5424:	0d 60 01 03 	wh16	r8,0x3
    5428:	10 40 01 08 	ld32	r8,r8
    542c:	0d 42 fe 10 	wl16	r16,0x17f0
    5430:	0d 60 02 03 	wh16	r16,0x3
    5434:	10 40 02 10 	ld32	r16,r16
    5438:	0d 45 2d 30 	wl16	r9,0x2970
    543c:	0d 60 01 23 	wh16	r9,0x3
    5440:	10 40 01 29 	ld32	r9,r9
    5444:	00 00 01 10 	add	r8,r16
    5448:	20 70 03 e2 	movepc	rret,8
    544c:	14 30 ea f1 	br	10 <compare>,#al
    5450:	00 10 00 41 	add	r2,1
    5454:	0d 40 cd 14 	wl16	r8,0x674
    5458:	0d 60 01 03 	wh16	r8,0x3
    545c:	10 40 01 08 	ld32	r8,r8
    5460:	0d 42 fe 14 	wl16	r16,0x17f4
    5464:	0d 60 02 03 	wh16	r16,0x3
    5468:	10 40 02 10 	ld32	r16,r16
    546c:	0d 45 2d 34 	wl16	r9,0x2974
    5470:	0d 60 01 23 	wh16	r9,0x3
    5474:	10 40 01 29 	ld32	r9,r9
    5478:	00 00 01 10 	add	r8,r16
    547c:	20 70 03 e2 	movepc	rret,8
    5480:	14 30 ea e4 	br	10 <compare>,#al
    5484:	00 10 00 41 	add	r2,1
    5488:	0d 40 cd 18 	wl16	r8,0x678
    548c:	0d 60 01 03 	wh16	r8,0x3
    5490:	10 40 01 08 	ld32	r8,r8
    5494:	0d 42 fe 18 	wl16	r16,0x17f8
    5498:	0d 60 02 03 	wh16	r16,0x3
    549c:	10 40 02 10 	ld32	r16,r16
    54a0:	0d 45 2d 38 	wl16	r9,0x2978
    54a4:	0d 60 01 23 	wh16	r9,0x3
    54a8:	10 40 01 29 	ld32	r9,r9
    54ac:	00 00 01 10 	add	r8,r16
    54b0:	20 70 03 e2 	movepc	rret,8
    54b4:	14 30 ea d7 	br	10 <compare>,#al
    54b8:	00 10 00 41 	add	r2,1
    54bc:	0d 40 cd 1c 	wl16	r8,0x67c
    54c0:	0d 60 01 03 	wh16	r8,0x3
    54c4:	10 40 01 08 	ld32	r8,r8
    54c8:	0d 42 fe 1c 	wl16	r16,0x17fc
    54cc:	0d 60 02 03 	wh16	r16,0x3
    54d0:	10 40 02 10 	ld32	r16,r16
    54d4:	0d 45 2d 3c 	wl16	r9,0x297c
    54d8:	0d 60 01 23 	wh16	r9,0x3
    54dc:	10 40 01 29 	ld32	r9,r9
    54e0:	00 00 01 10 	add	r8,r16
    54e4:	20 70 03 e2 	movepc	rret,8
    54e8:	14 30 ea ca 	br	10 <compare>,#al
    54ec:	00 10 00 41 	add	r2,1
    54f0:	0d 40 d1 00 	wl16	r8,0x680
    54f4:	0d 60 01 03 	wh16	r8,0x3
    54f8:	10 40 01 08 	ld32	r8,r8
    54fc:	0d 43 02 00 	wl16	r16,0x1800
    5500:	0d 60 02 03 	wh16	r16,0x3
    5504:	10 40 02 10 	ld32	r16,r16
    5508:	0d 45 31 20 	wl16	r9,0x2980
    550c:	0d 60 01 23 	wh16	r9,0x3
    5510:	10 40 01 29 	ld32	r9,r9
    5514:	00 00 01 10 	add	r8,r16
    5518:	20 70 03 e2 	movepc	rret,8
    551c:	14 30 ea bd 	br	10 <compare>,#al
    5520:	00 10 00 41 	add	r2,1
    5524:	0d 40 d1 04 	wl16	r8,0x684
    5528:	0d 60 01 03 	wh16	r8,0x3
    552c:	10 40 01 08 	ld32	r8,r8
    5530:	0d 43 02 04 	wl16	r16,0x1804
    5534:	0d 60 02 03 	wh16	r16,0x3
    5538:	10 40 02 10 	ld32	r16,r16
    553c:	0d 45 31 24 	wl16	r9,0x2984
    5540:	0d 60 01 23 	wh16	r9,0x3
    5544:	10 40 01 29 	ld32	r9,r9
    5548:	00 00 01 10 	add	r8,r16
    554c:	20 70 03 e2 	movepc	rret,8
    5550:	14 30 ea b0 	br	10 <compare>,#al
    5554:	00 10 00 41 	add	r2,1
    5558:	0d 40 d1 08 	wl16	r8,0x688
    555c:	0d 60 01 03 	wh16	r8,0x3
    5560:	10 40 01 08 	ld32	r8,r8
    5564:	0d 43 02 08 	wl16	r16,0x1808
    5568:	0d 60 02 03 	wh16	r16,0x3
    556c:	10 40 02 10 	ld32	r16,r16
    5570:	0d 45 31 28 	wl16	r9,0x2988
    5574:	0d 60 01 23 	wh16	r9,0x3
    5578:	10 40 01 29 	ld32	r9,r9
    557c:	00 00 01 10 	add	r8,r16
    5580:	20 70 03 e2 	movepc	rret,8
    5584:	14 30 ea a3 	br	10 <compare>,#al
    5588:	00 10 00 41 	add	r2,1
    558c:	0d 40 d1 0c 	wl16	r8,0x68c
    5590:	0d 60 01 03 	wh16	r8,0x3
    5594:	10 40 01 08 	ld32	r8,r8
    5598:	0d 43 02 0c 	wl16	r16,0x180c
    559c:	0d 60 02 03 	wh16	r16,0x3
    55a0:	10 40 02 10 	ld32	r16,r16
    55a4:	0d 45 31 2c 	wl16	r9,0x298c
    55a8:	0d 60 01 23 	wh16	r9,0x3
    55ac:	10 40 01 29 	ld32	r9,r9
    55b0:	00 00 01 10 	add	r8,r16
    55b4:	20 70 03 e2 	movepc	rret,8
    55b8:	14 30 ea 96 	br	10 <compare>,#al
    55bc:	00 10 00 41 	add	r2,1
    55c0:	0d 40 d1 10 	wl16	r8,0x690
    55c4:	0d 60 01 03 	wh16	r8,0x3
    55c8:	10 40 01 08 	ld32	r8,r8
    55cc:	0d 43 02 10 	wl16	r16,0x1810
    55d0:	0d 60 02 03 	wh16	r16,0x3
    55d4:	10 40 02 10 	ld32	r16,r16
    55d8:	0d 45 31 30 	wl16	r9,0x2990
    55dc:	0d 60 01 23 	wh16	r9,0x3
    55e0:	10 40 01 29 	ld32	r9,r9
    55e4:	00 00 01 10 	add	r8,r16
    55e8:	20 70 03 e2 	movepc	rret,8
    55ec:	14 30 ea 89 	br	10 <compare>,#al
    55f0:	00 10 00 41 	add	r2,1
    55f4:	0d 40 d1 14 	wl16	r8,0x694
    55f8:	0d 60 01 03 	wh16	r8,0x3
    55fc:	10 40 01 08 	ld32	r8,r8
    5600:	0d 43 02 14 	wl16	r16,0x1814
    5604:	0d 60 02 03 	wh16	r16,0x3
    5608:	10 40 02 10 	ld32	r16,r16
    560c:	0d 45 31 34 	wl16	r9,0x2994
    5610:	0d 60 01 23 	wh16	r9,0x3
    5614:	10 40 01 29 	ld32	r9,r9
    5618:	00 00 01 10 	add	r8,r16
    561c:	20 70 03 e2 	movepc	rret,8
    5620:	14 30 ea 7c 	br	10 <compare>,#al
    5624:	00 10 00 41 	add	r2,1
    5628:	0d 40 d1 18 	wl16	r8,0x698
    562c:	0d 60 01 03 	wh16	r8,0x3
    5630:	10 40 01 08 	ld32	r8,r8
    5634:	0d 43 02 18 	wl16	r16,0x1818
    5638:	0d 60 02 03 	wh16	r16,0x3
    563c:	10 40 02 10 	ld32	r16,r16
    5640:	0d 45 31 38 	wl16	r9,0x2998
    5644:	0d 60 01 23 	wh16	r9,0x3
    5648:	10 40 01 29 	ld32	r9,r9
    564c:	00 00 01 10 	add	r8,r16
    5650:	20 70 03 e2 	movepc	rret,8
    5654:	14 30 ea 6f 	br	10 <compare>,#al
    5658:	00 10 00 41 	add	r2,1
    565c:	0d 40 d1 1c 	wl16	r8,0x69c
    5660:	0d 60 01 03 	wh16	r8,0x3
    5664:	10 40 01 08 	ld32	r8,r8
    5668:	0d 43 02 1c 	wl16	r16,0x181c
    566c:	0d 60 02 03 	wh16	r16,0x3
    5670:	10 40 02 10 	ld32	r16,r16
    5674:	0d 45 31 3c 	wl16	r9,0x299c
    5678:	0d 60 01 23 	wh16	r9,0x3
    567c:	10 40 01 29 	ld32	r9,r9
    5680:	00 00 01 10 	add	r8,r16
    5684:	20 70 03 e2 	movepc	rret,8
    5688:	14 30 ea 62 	br	10 <compare>,#al
    568c:	00 10 00 41 	add	r2,1
    5690:	0d 40 d5 00 	wl16	r8,0x6a0
    5694:	0d 60 01 03 	wh16	r8,0x3
    5698:	10 40 01 08 	ld32	r8,r8
    569c:	0d 43 06 00 	wl16	r16,0x1820
    56a0:	0d 60 02 03 	wh16	r16,0x3
    56a4:	10 40 02 10 	ld32	r16,r16
    56a8:	0d 45 35 20 	wl16	r9,0x29a0
    56ac:	0d 60 01 23 	wh16	r9,0x3
    56b0:	10 40 01 29 	ld32	r9,r9
    56b4:	00 00 01 10 	add	r8,r16
    56b8:	20 70 03 e2 	movepc	rret,8
    56bc:	14 30 ea 55 	br	10 <compare>,#al
    56c0:	00 10 00 41 	add	r2,1
    56c4:	0d 40 d5 04 	wl16	r8,0x6a4
    56c8:	0d 60 01 03 	wh16	r8,0x3
    56cc:	10 40 01 08 	ld32	r8,r8
    56d0:	0d 43 06 04 	wl16	r16,0x1824
    56d4:	0d 60 02 03 	wh16	r16,0x3
    56d8:	10 40 02 10 	ld32	r16,r16
    56dc:	0d 45 35 24 	wl16	r9,0x29a4
    56e0:	0d 60 01 23 	wh16	r9,0x3
    56e4:	10 40 01 29 	ld32	r9,r9
    56e8:	00 00 01 10 	add	r8,r16
    56ec:	20 70 03 e2 	movepc	rret,8
    56f0:	14 30 ea 48 	br	10 <compare>,#al
    56f4:	00 10 00 41 	add	r2,1
    56f8:	0d 40 d5 08 	wl16	r8,0x6a8
    56fc:	0d 60 01 03 	wh16	r8,0x3
    5700:	10 40 01 08 	ld32	r8,r8
    5704:	0d 43 06 08 	wl16	r16,0x1828
    5708:	0d 60 02 03 	wh16	r16,0x3
    570c:	10 40 02 10 	ld32	r16,r16
    5710:	0d 45 35 28 	wl16	r9,0x29a8
    5714:	0d 60 01 23 	wh16	r9,0x3
    5718:	10 40 01 29 	ld32	r9,r9
    571c:	00 00 01 10 	add	r8,r16
    5720:	20 70 03 e2 	movepc	rret,8
    5724:	14 30 ea 3b 	br	10 <compare>,#al
    5728:	00 10 00 41 	add	r2,1
    572c:	0d 40 d5 0c 	wl16	r8,0x6ac
    5730:	0d 60 01 03 	wh16	r8,0x3
    5734:	10 40 01 08 	ld32	r8,r8
    5738:	0d 43 06 0c 	wl16	r16,0x182c
    573c:	0d 60 02 03 	wh16	r16,0x3
    5740:	10 40 02 10 	ld32	r16,r16
    5744:	0d 45 35 2c 	wl16	r9,0x29ac
    5748:	0d 60 01 23 	wh16	r9,0x3
    574c:	10 40 01 29 	ld32	r9,r9
    5750:	00 00 01 10 	add	r8,r16
    5754:	20 70 03 e2 	movepc	rret,8
    5758:	14 30 ea 2e 	br	10 <compare>,#al
    575c:	00 10 00 41 	add	r2,1
    5760:	0d 40 d5 10 	wl16	r8,0x6b0
    5764:	0d 60 01 03 	wh16	r8,0x3
    5768:	10 40 01 08 	ld32	r8,r8
    576c:	0d 43 06 10 	wl16	r16,0x1830
    5770:	0d 60 02 03 	wh16	r16,0x3
    5774:	10 40 02 10 	ld32	r16,r16
    5778:	0d 45 35 30 	wl16	r9,0x29b0
    577c:	0d 60 01 23 	wh16	r9,0x3
    5780:	10 40 01 29 	ld32	r9,r9
    5784:	00 00 01 10 	add	r8,r16
    5788:	20 70 03 e2 	movepc	rret,8
    578c:	14 30 ea 21 	br	10 <compare>,#al
    5790:	00 10 00 41 	add	r2,1
    5794:	0d 40 d5 14 	wl16	r8,0x6b4
    5798:	0d 60 01 03 	wh16	r8,0x3
    579c:	10 40 01 08 	ld32	r8,r8
    57a0:	0d 43 06 14 	wl16	r16,0x1834
    57a4:	0d 60 02 03 	wh16	r16,0x3
    57a8:	10 40 02 10 	ld32	r16,r16
    57ac:	0d 45 35 34 	wl16	r9,0x29b4
    57b0:	0d 60 01 23 	wh16	r9,0x3
    57b4:	10 40 01 29 	ld32	r9,r9
    57b8:	00 00 01 10 	add	r8,r16
    57bc:	20 70 03 e2 	movepc	rret,8
    57c0:	14 30 ea 14 	br	10 <compare>,#al
    57c4:	00 10 00 41 	add	r2,1
    57c8:	0d 40 d5 18 	wl16	r8,0x6b8
    57cc:	0d 60 01 03 	wh16	r8,0x3
    57d0:	10 40 01 08 	ld32	r8,r8
    57d4:	0d 43 06 18 	wl16	r16,0x1838
    57d8:	0d 60 02 03 	wh16	r16,0x3
    57dc:	10 40 02 10 	ld32	r16,r16
    57e0:	0d 45 35 38 	wl16	r9,0x29b8
    57e4:	0d 60 01 23 	wh16	r9,0x3
    57e8:	10 40 01 29 	ld32	r9,r9
    57ec:	00 00 01 10 	add	r8,r16
    57f0:	20 70 03 e2 	movepc	rret,8
    57f4:	14 30 ea 07 	br	10 <compare>,#al
    57f8:	00 10 00 41 	add	r2,1
    57fc:	0d 40 d5 1c 	wl16	r8,0x6bc
    5800:	0d 60 01 03 	wh16	r8,0x3
    5804:	10 40 01 08 	ld32	r8,r8
    5808:	0d 43 06 1c 	wl16	r16,0x183c
    580c:	0d 60 02 03 	wh16	r16,0x3
    5810:	10 40 02 10 	ld32	r16,r16
    5814:	0d 45 35 3c 	wl16	r9,0x29bc
    5818:	0d 60 01 23 	wh16	r9,0x3
    581c:	10 40 01 29 	ld32	r9,r9
    5820:	00 00 01 10 	add	r8,r16
    5824:	20 70 03 e2 	movepc	rret,8
    5828:	14 30 e9 fa 	br	10 <compare>,#al
    582c:	00 10 00 41 	add	r2,1
    5830:	0d 40 d9 00 	wl16	r8,0x6c0
    5834:	0d 60 01 03 	wh16	r8,0x3
    5838:	10 40 01 08 	ld32	r8,r8
    583c:	0d 43 0a 00 	wl16	r16,0x1840
    5840:	0d 60 02 03 	wh16	r16,0x3
    5844:	10 40 02 10 	ld32	r16,r16
    5848:	0d 45 39 20 	wl16	r9,0x29c0
    584c:	0d 60 01 23 	wh16	r9,0x3
    5850:	10 40 01 29 	ld32	r9,r9
    5854:	00 00 01 10 	add	r8,r16
    5858:	20 70 03 e2 	movepc	rret,8
    585c:	14 30 e9 ed 	br	10 <compare>,#al
    5860:	00 10 00 41 	add	r2,1
    5864:	0d 40 d9 04 	wl16	r8,0x6c4
    5868:	0d 60 01 03 	wh16	r8,0x3
    586c:	10 40 01 08 	ld32	r8,r8
    5870:	0d 43 0a 04 	wl16	r16,0x1844
    5874:	0d 60 02 03 	wh16	r16,0x3
    5878:	10 40 02 10 	ld32	r16,r16
    587c:	0d 45 39 24 	wl16	r9,0x29c4
    5880:	0d 60 01 23 	wh16	r9,0x3
    5884:	10 40 01 29 	ld32	r9,r9
    5888:	00 00 01 10 	add	r8,r16
    588c:	20 70 03 e2 	movepc	rret,8
    5890:	14 30 e9 e0 	br	10 <compare>,#al
    5894:	00 10 00 41 	add	r2,1
    5898:	0d 40 d9 08 	wl16	r8,0x6c8
    589c:	0d 60 01 03 	wh16	r8,0x3
    58a0:	10 40 01 08 	ld32	r8,r8
    58a4:	0d 43 0a 08 	wl16	r16,0x1848
    58a8:	0d 60 02 03 	wh16	r16,0x3
    58ac:	10 40 02 10 	ld32	r16,r16
    58b0:	0d 45 39 28 	wl16	r9,0x29c8
    58b4:	0d 60 01 23 	wh16	r9,0x3
    58b8:	10 40 01 29 	ld32	r9,r9
    58bc:	00 00 01 10 	add	r8,r16
    58c0:	20 70 03 e2 	movepc	rret,8
    58c4:	14 30 e9 d3 	br	10 <compare>,#al
    58c8:	00 10 00 41 	add	r2,1
    58cc:	0d 40 d9 0c 	wl16	r8,0x6cc
    58d0:	0d 60 01 03 	wh16	r8,0x3
    58d4:	10 40 01 08 	ld32	r8,r8
    58d8:	0d 43 0a 0c 	wl16	r16,0x184c
    58dc:	0d 60 02 03 	wh16	r16,0x3
    58e0:	10 40 02 10 	ld32	r16,r16
    58e4:	0d 45 39 2c 	wl16	r9,0x29cc
    58e8:	0d 60 01 23 	wh16	r9,0x3
    58ec:	10 40 01 29 	ld32	r9,r9
    58f0:	00 00 01 10 	add	r8,r16
    58f4:	20 70 03 e2 	movepc	rret,8
    58f8:	14 30 e9 c6 	br	10 <compare>,#al
    58fc:	00 10 00 41 	add	r2,1
    5900:	0d 40 d9 10 	wl16	r8,0x6d0
    5904:	0d 60 01 03 	wh16	r8,0x3
    5908:	10 40 01 08 	ld32	r8,r8
    590c:	0d 43 0a 10 	wl16	r16,0x1850
    5910:	0d 60 02 03 	wh16	r16,0x3
    5914:	10 40 02 10 	ld32	r16,r16
    5918:	0d 45 39 30 	wl16	r9,0x29d0
    591c:	0d 60 01 23 	wh16	r9,0x3
    5920:	10 40 01 29 	ld32	r9,r9
    5924:	00 00 01 10 	add	r8,r16
    5928:	20 70 03 e2 	movepc	rret,8
    592c:	14 30 e9 b9 	br	10 <compare>,#al
    5930:	00 10 00 41 	add	r2,1
    5934:	0d 40 d9 14 	wl16	r8,0x6d4
    5938:	0d 60 01 03 	wh16	r8,0x3
    593c:	10 40 01 08 	ld32	r8,r8
    5940:	0d 43 0a 14 	wl16	r16,0x1854
    5944:	0d 60 02 03 	wh16	r16,0x3
    5948:	10 40 02 10 	ld32	r16,r16
    594c:	0d 45 39 34 	wl16	r9,0x29d4
    5950:	0d 60 01 23 	wh16	r9,0x3
    5954:	10 40 01 29 	ld32	r9,r9
    5958:	00 00 01 10 	add	r8,r16
    595c:	20 70 03 e2 	movepc	rret,8
    5960:	14 30 e9 ac 	br	10 <compare>,#al
    5964:	00 10 00 41 	add	r2,1
    5968:	0d 40 d9 18 	wl16	r8,0x6d8
    596c:	0d 60 01 03 	wh16	r8,0x3
    5970:	10 40 01 08 	ld32	r8,r8
    5974:	0d 43 0a 18 	wl16	r16,0x1858
    5978:	0d 60 02 03 	wh16	r16,0x3
    597c:	10 40 02 10 	ld32	r16,r16
    5980:	0d 45 39 38 	wl16	r9,0x29d8
    5984:	0d 60 01 23 	wh16	r9,0x3
    5988:	10 40 01 29 	ld32	r9,r9
    598c:	00 00 01 10 	add	r8,r16
    5990:	20 70 03 e2 	movepc	rret,8
    5994:	14 30 e9 9f 	br	10 <compare>,#al
    5998:	00 10 00 41 	add	r2,1
    599c:	0d 40 d9 1c 	wl16	r8,0x6dc
    59a0:	0d 60 01 03 	wh16	r8,0x3
    59a4:	10 40 01 08 	ld32	r8,r8
    59a8:	0d 43 0a 1c 	wl16	r16,0x185c
    59ac:	0d 60 02 03 	wh16	r16,0x3
    59b0:	10 40 02 10 	ld32	r16,r16
    59b4:	0d 45 39 3c 	wl16	r9,0x29dc
    59b8:	0d 60 01 23 	wh16	r9,0x3
    59bc:	10 40 01 29 	ld32	r9,r9
    59c0:	00 00 01 10 	add	r8,r16
    59c4:	20 70 03 e2 	movepc	rret,8
    59c8:	14 30 e9 92 	br	10 <compare>,#al
    59cc:	00 10 00 41 	add	r2,1
    59d0:	0d 40 dd 00 	wl16	r8,0x6e0
    59d4:	0d 60 01 03 	wh16	r8,0x3
    59d8:	10 40 01 08 	ld32	r8,r8
    59dc:	0d 43 0e 00 	wl16	r16,0x1860
    59e0:	0d 60 02 03 	wh16	r16,0x3
    59e4:	10 40 02 10 	ld32	r16,r16
    59e8:	0d 45 3d 20 	wl16	r9,0x29e0
    59ec:	0d 60 01 23 	wh16	r9,0x3
    59f0:	10 40 01 29 	ld32	r9,r9
    59f4:	00 00 01 10 	add	r8,r16
    59f8:	20 70 03 e2 	movepc	rret,8
    59fc:	14 30 e9 85 	br	10 <compare>,#al
    5a00:	00 10 00 41 	add	r2,1
    5a04:	0d 40 dd 04 	wl16	r8,0x6e4
    5a08:	0d 60 01 03 	wh16	r8,0x3
    5a0c:	10 40 01 08 	ld32	r8,r8
    5a10:	0d 43 0e 04 	wl16	r16,0x1864
    5a14:	0d 60 02 03 	wh16	r16,0x3
    5a18:	10 40 02 10 	ld32	r16,r16
    5a1c:	0d 45 3d 24 	wl16	r9,0x29e4
    5a20:	0d 60 01 23 	wh16	r9,0x3
    5a24:	10 40 01 29 	ld32	r9,r9
    5a28:	00 00 01 10 	add	r8,r16
    5a2c:	20 70 03 e2 	movepc	rret,8
    5a30:	14 30 e9 78 	br	10 <compare>,#al
    5a34:	00 10 00 41 	add	r2,1
    5a38:	0d 40 dd 08 	wl16	r8,0x6e8
    5a3c:	0d 60 01 03 	wh16	r8,0x3
    5a40:	10 40 01 08 	ld32	r8,r8
    5a44:	0d 43 0e 08 	wl16	r16,0x1868
    5a48:	0d 60 02 03 	wh16	r16,0x3
    5a4c:	10 40 02 10 	ld32	r16,r16
    5a50:	0d 45 3d 28 	wl16	r9,0x29e8
    5a54:	0d 60 01 23 	wh16	r9,0x3
    5a58:	10 40 01 29 	ld32	r9,r9
    5a5c:	00 00 01 10 	add	r8,r16
    5a60:	20 70 03 e2 	movepc	rret,8
    5a64:	14 30 e9 6b 	br	10 <compare>,#al
    5a68:	00 10 00 41 	add	r2,1
    5a6c:	0d 40 dd 0c 	wl16	r8,0x6ec
    5a70:	0d 60 01 03 	wh16	r8,0x3
    5a74:	10 40 01 08 	ld32	r8,r8
    5a78:	0d 43 0e 0c 	wl16	r16,0x186c
    5a7c:	0d 60 02 03 	wh16	r16,0x3
    5a80:	10 40 02 10 	ld32	r16,r16
    5a84:	0d 45 3d 2c 	wl16	r9,0x29ec
    5a88:	0d 60 01 23 	wh16	r9,0x3
    5a8c:	10 40 01 29 	ld32	r9,r9
    5a90:	00 00 01 10 	add	r8,r16
    5a94:	20 70 03 e2 	movepc	rret,8
    5a98:	14 30 e9 5e 	br	10 <compare>,#al
    5a9c:	00 10 00 41 	add	r2,1
    5aa0:	0d 40 dd 10 	wl16	r8,0x6f0
    5aa4:	0d 60 01 03 	wh16	r8,0x3
    5aa8:	10 40 01 08 	ld32	r8,r8
    5aac:	0d 43 0e 10 	wl16	r16,0x1870
    5ab0:	0d 60 02 03 	wh16	r16,0x3
    5ab4:	10 40 02 10 	ld32	r16,r16
    5ab8:	0d 45 3d 30 	wl16	r9,0x29f0
    5abc:	0d 60 01 23 	wh16	r9,0x3
    5ac0:	10 40 01 29 	ld32	r9,r9
    5ac4:	00 00 01 10 	add	r8,r16
    5ac8:	20 70 03 e2 	movepc	rret,8
    5acc:	14 30 e9 51 	br	10 <compare>,#al
    5ad0:	00 10 00 41 	add	r2,1
    5ad4:	0d 40 dd 14 	wl16	r8,0x6f4
    5ad8:	0d 60 01 03 	wh16	r8,0x3
    5adc:	10 40 01 08 	ld32	r8,r8
    5ae0:	0d 43 0e 14 	wl16	r16,0x1874
    5ae4:	0d 60 02 03 	wh16	r16,0x3
    5ae8:	10 40 02 10 	ld32	r16,r16
    5aec:	0d 45 3d 34 	wl16	r9,0x29f4
    5af0:	0d 60 01 23 	wh16	r9,0x3
    5af4:	10 40 01 29 	ld32	r9,r9
    5af8:	00 00 01 10 	add	r8,r16
    5afc:	20 70 03 e2 	movepc	rret,8
    5b00:	14 30 e9 44 	br	10 <compare>,#al
    5b04:	00 10 00 41 	add	r2,1
    5b08:	0d 40 dd 18 	wl16	r8,0x6f8
    5b0c:	0d 60 01 03 	wh16	r8,0x3
    5b10:	10 40 01 08 	ld32	r8,r8
    5b14:	0d 43 0e 18 	wl16	r16,0x1878
    5b18:	0d 60 02 03 	wh16	r16,0x3
    5b1c:	10 40 02 10 	ld32	r16,r16
    5b20:	0d 45 3d 38 	wl16	r9,0x29f8
    5b24:	0d 60 01 23 	wh16	r9,0x3
    5b28:	10 40 01 29 	ld32	r9,r9
    5b2c:	00 00 01 10 	add	r8,r16
    5b30:	20 70 03 e2 	movepc	rret,8
    5b34:	14 30 e9 37 	br	10 <compare>,#al
    5b38:	00 10 00 41 	add	r2,1
    5b3c:	0d 40 dd 1c 	wl16	r8,0x6fc
    5b40:	0d 60 01 03 	wh16	r8,0x3
    5b44:	10 40 01 08 	ld32	r8,r8
    5b48:	0d 43 0e 1c 	wl16	r16,0x187c
    5b4c:	0d 60 02 03 	wh16	r16,0x3
    5b50:	10 40 02 10 	ld32	r16,r16
    5b54:	0d 45 3d 3c 	wl16	r9,0x29fc
    5b58:	0d 60 01 23 	wh16	r9,0x3
    5b5c:	10 40 01 29 	ld32	r9,r9
    5b60:	00 00 01 10 	add	r8,r16
    5b64:	20 70 03 e2 	movepc	rret,8
    5b68:	14 30 e9 2a 	br	10 <compare>,#al
    5b6c:	00 10 00 41 	add	r2,1
    5b70:	0d 40 e1 00 	wl16	r8,0x700
    5b74:	0d 60 01 03 	wh16	r8,0x3
    5b78:	10 40 01 08 	ld32	r8,r8
    5b7c:	0d 43 12 00 	wl16	r16,0x1880
    5b80:	0d 60 02 03 	wh16	r16,0x3
    5b84:	10 40 02 10 	ld32	r16,r16
    5b88:	0d 45 41 20 	wl16	r9,0x2a00
    5b8c:	0d 60 01 23 	wh16	r9,0x3
    5b90:	10 40 01 29 	ld32	r9,r9
    5b94:	00 00 01 10 	add	r8,r16
    5b98:	20 70 03 e2 	movepc	rret,8
    5b9c:	14 30 e9 1d 	br	10 <compare>,#al
    5ba0:	00 10 00 41 	add	r2,1
    5ba4:	0d 40 e1 04 	wl16	r8,0x704
    5ba8:	0d 60 01 03 	wh16	r8,0x3
    5bac:	10 40 01 08 	ld32	r8,r8
    5bb0:	0d 43 12 04 	wl16	r16,0x1884
    5bb4:	0d 60 02 03 	wh16	r16,0x3
    5bb8:	10 40 02 10 	ld32	r16,r16
    5bbc:	0d 45 41 24 	wl16	r9,0x2a04
    5bc0:	0d 60 01 23 	wh16	r9,0x3
    5bc4:	10 40 01 29 	ld32	r9,r9
    5bc8:	00 00 01 10 	add	r8,r16
    5bcc:	20 70 03 e2 	movepc	rret,8
    5bd0:	14 30 e9 10 	br	10 <compare>,#al
    5bd4:	00 10 00 41 	add	r2,1
    5bd8:	0d 40 e1 08 	wl16	r8,0x708
    5bdc:	0d 60 01 03 	wh16	r8,0x3
    5be0:	10 40 01 08 	ld32	r8,r8
    5be4:	0d 43 12 08 	wl16	r16,0x1888
    5be8:	0d 60 02 03 	wh16	r16,0x3
    5bec:	10 40 02 10 	ld32	r16,r16
    5bf0:	0d 45 41 28 	wl16	r9,0x2a08
    5bf4:	0d 60 01 23 	wh16	r9,0x3
    5bf8:	10 40 01 29 	ld32	r9,r9
    5bfc:	00 00 01 10 	add	r8,r16
    5c00:	20 70 03 e2 	movepc	rret,8
    5c04:	14 30 e9 03 	br	10 <compare>,#al
    5c08:	00 10 00 41 	add	r2,1
    5c0c:	0d 40 e1 0c 	wl16	r8,0x70c
    5c10:	0d 60 01 03 	wh16	r8,0x3
    5c14:	10 40 01 08 	ld32	r8,r8
    5c18:	0d 43 12 0c 	wl16	r16,0x188c
    5c1c:	0d 60 02 03 	wh16	r16,0x3
    5c20:	10 40 02 10 	ld32	r16,r16
    5c24:	0d 45 41 2c 	wl16	r9,0x2a0c
    5c28:	0d 60 01 23 	wh16	r9,0x3
    5c2c:	10 40 01 29 	ld32	r9,r9
    5c30:	00 00 01 10 	add	r8,r16
    5c34:	20 70 03 e2 	movepc	rret,8
    5c38:	14 30 e8 f6 	br	10 <compare>,#al
    5c3c:	00 10 00 41 	add	r2,1
    5c40:	0d 40 e1 10 	wl16	r8,0x710
    5c44:	0d 60 01 03 	wh16	r8,0x3
    5c48:	10 40 01 08 	ld32	r8,r8
    5c4c:	0d 43 12 10 	wl16	r16,0x1890
    5c50:	0d 60 02 03 	wh16	r16,0x3
    5c54:	10 40 02 10 	ld32	r16,r16
    5c58:	0d 45 41 30 	wl16	r9,0x2a10
    5c5c:	0d 60 01 23 	wh16	r9,0x3
    5c60:	10 40 01 29 	ld32	r9,r9
    5c64:	00 00 01 10 	add	r8,r16
    5c68:	20 70 03 e2 	movepc	rret,8
    5c6c:	14 30 e8 e9 	br	10 <compare>,#al
    5c70:	00 10 00 41 	add	r2,1
    5c74:	0d 40 e1 14 	wl16	r8,0x714
    5c78:	0d 60 01 03 	wh16	r8,0x3
    5c7c:	10 40 01 08 	ld32	r8,r8
    5c80:	0d 43 12 14 	wl16	r16,0x1894
    5c84:	0d 60 02 03 	wh16	r16,0x3
    5c88:	10 40 02 10 	ld32	r16,r16
    5c8c:	0d 45 41 34 	wl16	r9,0x2a14
    5c90:	0d 60 01 23 	wh16	r9,0x3
    5c94:	10 40 01 29 	ld32	r9,r9
    5c98:	00 00 01 10 	add	r8,r16
    5c9c:	20 70 03 e2 	movepc	rret,8
    5ca0:	14 30 e8 dc 	br	10 <compare>,#al
    5ca4:	00 10 00 41 	add	r2,1
    5ca8:	0d 40 e1 18 	wl16	r8,0x718
    5cac:	0d 60 01 03 	wh16	r8,0x3
    5cb0:	10 40 01 08 	ld32	r8,r8
    5cb4:	0d 43 12 18 	wl16	r16,0x1898
    5cb8:	0d 60 02 03 	wh16	r16,0x3
    5cbc:	10 40 02 10 	ld32	r16,r16
    5cc0:	0d 45 41 38 	wl16	r9,0x2a18
    5cc4:	0d 60 01 23 	wh16	r9,0x3
    5cc8:	10 40 01 29 	ld32	r9,r9
    5ccc:	00 00 01 10 	add	r8,r16
    5cd0:	20 70 03 e2 	movepc	rret,8
    5cd4:	14 30 e8 cf 	br	10 <compare>,#al
    5cd8:	00 10 00 41 	add	r2,1
    5cdc:	0d 40 e1 1c 	wl16	r8,0x71c
    5ce0:	0d 60 01 03 	wh16	r8,0x3
    5ce4:	10 40 01 08 	ld32	r8,r8
    5ce8:	0d 43 12 1c 	wl16	r16,0x189c
    5cec:	0d 60 02 03 	wh16	r16,0x3
    5cf0:	10 40 02 10 	ld32	r16,r16
    5cf4:	0d 45 41 3c 	wl16	r9,0x2a1c
    5cf8:	0d 60 01 23 	wh16	r9,0x3
    5cfc:	10 40 01 29 	ld32	r9,r9
    5d00:	00 00 01 10 	add	r8,r16
    5d04:	20 70 03 e2 	movepc	rret,8
    5d08:	14 30 e8 c2 	br	10 <compare>,#al
    5d0c:	00 10 00 41 	add	r2,1
    5d10:	0d 40 e5 00 	wl16	r8,0x720
    5d14:	0d 60 01 03 	wh16	r8,0x3
    5d18:	10 40 01 08 	ld32	r8,r8
    5d1c:	0d 43 16 00 	wl16	r16,0x18a0
    5d20:	0d 60 02 03 	wh16	r16,0x3
    5d24:	10 40 02 10 	ld32	r16,r16
    5d28:	0d 45 45 20 	wl16	r9,0x2a20
    5d2c:	0d 60 01 23 	wh16	r9,0x3
    5d30:	10 40 01 29 	ld32	r9,r9
    5d34:	00 00 01 10 	add	r8,r16
    5d38:	20 70 03 e2 	movepc	rret,8
    5d3c:	14 30 e8 b5 	br	10 <compare>,#al
    5d40:	00 10 00 41 	add	r2,1
    5d44:	0d 40 e5 04 	wl16	r8,0x724
    5d48:	0d 60 01 03 	wh16	r8,0x3
    5d4c:	10 40 01 08 	ld32	r8,r8
    5d50:	0d 43 16 04 	wl16	r16,0x18a4
    5d54:	0d 60 02 03 	wh16	r16,0x3
    5d58:	10 40 02 10 	ld32	r16,r16
    5d5c:	0d 45 45 24 	wl16	r9,0x2a24
    5d60:	0d 60 01 23 	wh16	r9,0x3
    5d64:	10 40 01 29 	ld32	r9,r9
    5d68:	00 00 01 10 	add	r8,r16
    5d6c:	20 70 03 e2 	movepc	rret,8
    5d70:	14 30 e8 a8 	br	10 <compare>,#al
    5d74:	00 10 00 41 	add	r2,1
    5d78:	0d 40 e5 08 	wl16	r8,0x728
    5d7c:	0d 60 01 03 	wh16	r8,0x3
    5d80:	10 40 01 08 	ld32	r8,r8
    5d84:	0d 43 16 08 	wl16	r16,0x18a8
    5d88:	0d 60 02 03 	wh16	r16,0x3
    5d8c:	10 40 02 10 	ld32	r16,r16
    5d90:	0d 45 45 28 	wl16	r9,0x2a28
    5d94:	0d 60 01 23 	wh16	r9,0x3
    5d98:	10 40 01 29 	ld32	r9,r9
    5d9c:	00 00 01 10 	add	r8,r16
    5da0:	20 70 03 e2 	movepc	rret,8
    5da4:	14 30 e8 9b 	br	10 <compare>,#al
    5da8:	00 10 00 41 	add	r2,1
    5dac:	0d 40 e5 0c 	wl16	r8,0x72c
    5db0:	0d 60 01 03 	wh16	r8,0x3
    5db4:	10 40 01 08 	ld32	r8,r8
    5db8:	0d 43 16 0c 	wl16	r16,0x18ac
    5dbc:	0d 60 02 03 	wh16	r16,0x3
    5dc0:	10 40 02 10 	ld32	r16,r16
    5dc4:	0d 45 45 2c 	wl16	r9,0x2a2c
    5dc8:	0d 60 01 23 	wh16	r9,0x3
    5dcc:	10 40 01 29 	ld32	r9,r9
    5dd0:	00 00 01 10 	add	r8,r16
    5dd4:	20 70 03 e2 	movepc	rret,8
    5dd8:	14 30 e8 8e 	br	10 <compare>,#al
    5ddc:	00 10 00 41 	add	r2,1
    5de0:	0d 40 e5 10 	wl16	r8,0x730
    5de4:	0d 60 01 03 	wh16	r8,0x3
    5de8:	10 40 01 08 	ld32	r8,r8
    5dec:	0d 43 16 10 	wl16	r16,0x18b0
    5df0:	0d 60 02 03 	wh16	r16,0x3
    5df4:	10 40 02 10 	ld32	r16,r16
    5df8:	0d 45 45 30 	wl16	r9,0x2a30
    5dfc:	0d 60 01 23 	wh16	r9,0x3
    5e00:	10 40 01 29 	ld32	r9,r9
    5e04:	00 00 01 10 	add	r8,r16
    5e08:	20 70 03 e2 	movepc	rret,8
    5e0c:	14 30 e8 81 	br	10 <compare>,#al
    5e10:	00 10 00 41 	add	r2,1
    5e14:	0d 40 e5 14 	wl16	r8,0x734
    5e18:	0d 60 01 03 	wh16	r8,0x3
    5e1c:	10 40 01 08 	ld32	r8,r8
    5e20:	0d 43 16 14 	wl16	r16,0x18b4
    5e24:	0d 60 02 03 	wh16	r16,0x3
    5e28:	10 40 02 10 	ld32	r16,r16
    5e2c:	0d 45 45 34 	wl16	r9,0x2a34
    5e30:	0d 60 01 23 	wh16	r9,0x3
    5e34:	10 40 01 29 	ld32	r9,r9
    5e38:	00 00 01 10 	add	r8,r16
    5e3c:	20 70 03 e2 	movepc	rret,8
    5e40:	14 30 e8 74 	br	10 <compare>,#al
    5e44:	00 10 00 41 	add	r2,1
    5e48:	0d 40 e5 18 	wl16	r8,0x738
    5e4c:	0d 60 01 03 	wh16	r8,0x3
    5e50:	10 40 01 08 	ld32	r8,r8
    5e54:	0d 43 16 18 	wl16	r16,0x18b8
    5e58:	0d 60 02 03 	wh16	r16,0x3
    5e5c:	10 40 02 10 	ld32	r16,r16
    5e60:	0d 45 45 38 	wl16	r9,0x2a38
    5e64:	0d 60 01 23 	wh16	r9,0x3
    5e68:	10 40 01 29 	ld32	r9,r9
    5e6c:	00 00 01 10 	add	r8,r16
    5e70:	20 70 03 e2 	movepc	rret,8
    5e74:	14 30 e8 67 	br	10 <compare>,#al
    5e78:	00 10 00 41 	add	r2,1
    5e7c:	0d 40 e5 1c 	wl16	r8,0x73c
    5e80:	0d 60 01 03 	wh16	r8,0x3
    5e84:	10 40 01 08 	ld32	r8,r8
    5e88:	0d 43 16 1c 	wl16	r16,0x18bc
    5e8c:	0d 60 02 03 	wh16	r16,0x3
    5e90:	10 40 02 10 	ld32	r16,r16
    5e94:	0d 45 45 3c 	wl16	r9,0x2a3c
    5e98:	0d 60 01 23 	wh16	r9,0x3
    5e9c:	10 40 01 29 	ld32	r9,r9
    5ea0:	00 00 01 10 	add	r8,r16
    5ea4:	20 70 03 e2 	movepc	rret,8
    5ea8:	14 30 e8 5a 	br	10 <compare>,#al
    5eac:	00 10 00 41 	add	r2,1
    5eb0:	0d 40 e9 00 	wl16	r8,0x740
    5eb4:	0d 60 01 03 	wh16	r8,0x3
    5eb8:	10 40 01 08 	ld32	r8,r8
    5ebc:	0d 43 1a 00 	wl16	r16,0x18c0
    5ec0:	0d 60 02 03 	wh16	r16,0x3
    5ec4:	10 40 02 10 	ld32	r16,r16
    5ec8:	0d 45 49 20 	wl16	r9,0x2a40
    5ecc:	0d 60 01 23 	wh16	r9,0x3
    5ed0:	10 40 01 29 	ld32	r9,r9
    5ed4:	00 00 01 10 	add	r8,r16
    5ed8:	20 70 03 e2 	movepc	rret,8
    5edc:	14 30 e8 4d 	br	10 <compare>,#al
    5ee0:	00 10 00 41 	add	r2,1
    5ee4:	0d 40 e9 04 	wl16	r8,0x744
    5ee8:	0d 60 01 03 	wh16	r8,0x3
    5eec:	10 40 01 08 	ld32	r8,r8
    5ef0:	0d 43 1a 04 	wl16	r16,0x18c4
    5ef4:	0d 60 02 03 	wh16	r16,0x3
    5ef8:	10 40 02 10 	ld32	r16,r16
    5efc:	0d 45 49 24 	wl16	r9,0x2a44
    5f00:	0d 60 01 23 	wh16	r9,0x3
    5f04:	10 40 01 29 	ld32	r9,r9
    5f08:	00 00 01 10 	add	r8,r16
    5f0c:	20 70 03 e2 	movepc	rret,8
    5f10:	14 30 e8 40 	br	10 <compare>,#al
    5f14:	00 10 00 41 	add	r2,1
    5f18:	0d 40 e9 08 	wl16	r8,0x748
    5f1c:	0d 60 01 03 	wh16	r8,0x3
    5f20:	10 40 01 08 	ld32	r8,r8
    5f24:	0d 43 1a 08 	wl16	r16,0x18c8
    5f28:	0d 60 02 03 	wh16	r16,0x3
    5f2c:	10 40 02 10 	ld32	r16,r16
    5f30:	0d 45 49 28 	wl16	r9,0x2a48
    5f34:	0d 60 01 23 	wh16	r9,0x3
    5f38:	10 40 01 29 	ld32	r9,r9
    5f3c:	00 00 01 10 	add	r8,r16
    5f40:	20 70 03 e2 	movepc	rret,8
    5f44:	14 30 e8 33 	br	10 <compare>,#al
    5f48:	00 10 00 41 	add	r2,1
    5f4c:	0d 40 e9 0c 	wl16	r8,0x74c
    5f50:	0d 60 01 03 	wh16	r8,0x3
    5f54:	10 40 01 08 	ld32	r8,r8
    5f58:	0d 43 1a 0c 	wl16	r16,0x18cc
    5f5c:	0d 60 02 03 	wh16	r16,0x3
    5f60:	10 40 02 10 	ld32	r16,r16
    5f64:	0d 45 49 2c 	wl16	r9,0x2a4c
    5f68:	0d 60 01 23 	wh16	r9,0x3
    5f6c:	10 40 01 29 	ld32	r9,r9
    5f70:	00 00 01 10 	add	r8,r16
    5f74:	20 70 03 e2 	movepc	rret,8
    5f78:	14 30 e8 26 	br	10 <compare>,#al
    5f7c:	00 10 00 41 	add	r2,1
    5f80:	0d 40 e9 10 	wl16	r8,0x750
    5f84:	0d 60 01 03 	wh16	r8,0x3
    5f88:	10 40 01 08 	ld32	r8,r8
    5f8c:	0d 43 1a 10 	wl16	r16,0x18d0
    5f90:	0d 60 02 03 	wh16	r16,0x3
    5f94:	10 40 02 10 	ld32	r16,r16
    5f98:	0d 45 49 30 	wl16	r9,0x2a50
    5f9c:	0d 60 01 23 	wh16	r9,0x3
    5fa0:	10 40 01 29 	ld32	r9,r9
    5fa4:	00 00 01 10 	add	r8,r16
    5fa8:	20 70 03 e2 	movepc	rret,8
    5fac:	14 30 e8 19 	br	10 <compare>,#al
    5fb0:	00 10 00 41 	add	r2,1
    5fb4:	0d 40 e9 14 	wl16	r8,0x754
    5fb8:	0d 60 01 03 	wh16	r8,0x3
    5fbc:	10 40 01 08 	ld32	r8,r8
    5fc0:	0d 43 1a 14 	wl16	r16,0x18d4
    5fc4:	0d 60 02 03 	wh16	r16,0x3
    5fc8:	10 40 02 10 	ld32	r16,r16
    5fcc:	0d 45 49 34 	wl16	r9,0x2a54
    5fd0:	0d 60 01 23 	wh16	r9,0x3
    5fd4:	10 40 01 29 	ld32	r9,r9
    5fd8:	00 00 01 10 	add	r8,r16
    5fdc:	20 70 03 e2 	movepc	rret,8
    5fe0:	14 30 e8 0c 	br	10 <compare>,#al
    5fe4:	00 10 00 41 	add	r2,1
    5fe8:	0d 40 e9 18 	wl16	r8,0x758
    5fec:	0d 60 01 03 	wh16	r8,0x3
    5ff0:	10 40 01 08 	ld32	r8,r8
    5ff4:	0d 43 1a 18 	wl16	r16,0x18d8
    5ff8:	0d 60 02 03 	wh16	r16,0x3
    5ffc:	10 40 02 10 	ld32	r16,r16
    6000:	0d 45 49 38 	wl16	r9,0x2a58
    6004:	0d 60 01 23 	wh16	r9,0x3
    6008:	10 40 01 29 	ld32	r9,r9
    600c:	00 00 01 10 	add	r8,r16
    6010:	20 70 03 e2 	movepc	rret,8
    6014:	14 30 e7 ff 	br	10 <compare>,#al
    6018:	00 10 00 41 	add	r2,1
    601c:	0d 40 e9 1c 	wl16	r8,0x75c
    6020:	0d 60 01 03 	wh16	r8,0x3
    6024:	10 40 01 08 	ld32	r8,r8
    6028:	0d 43 1a 1c 	wl16	r16,0x18dc
    602c:	0d 60 02 03 	wh16	r16,0x3
    6030:	10 40 02 10 	ld32	r16,r16
    6034:	0d 45 49 3c 	wl16	r9,0x2a5c
    6038:	0d 60 01 23 	wh16	r9,0x3
    603c:	10 40 01 29 	ld32	r9,r9
    6040:	00 00 01 10 	add	r8,r16
    6044:	20 70 03 e2 	movepc	rret,8
    6048:	14 30 e7 f2 	br	10 <compare>,#al
    604c:	00 10 00 41 	add	r2,1
    6050:	0d 40 ed 00 	wl16	r8,0x760
    6054:	0d 60 01 03 	wh16	r8,0x3
    6058:	10 40 01 08 	ld32	r8,r8
    605c:	0d 43 1e 00 	wl16	r16,0x18e0
    6060:	0d 60 02 03 	wh16	r16,0x3
    6064:	10 40 02 10 	ld32	r16,r16
    6068:	0d 45 4d 20 	wl16	r9,0x2a60
    606c:	0d 60 01 23 	wh16	r9,0x3
    6070:	10 40 01 29 	ld32	r9,r9
    6074:	00 00 01 10 	add	r8,r16
    6078:	20 70 03 e2 	movepc	rret,8
    607c:	14 30 e7 e5 	br	10 <compare>,#al
    6080:	00 10 00 41 	add	r2,1
    6084:	0d 40 ed 04 	wl16	r8,0x764
    6088:	0d 60 01 03 	wh16	r8,0x3
    608c:	10 40 01 08 	ld32	r8,r8
    6090:	0d 43 1e 04 	wl16	r16,0x18e4
    6094:	0d 60 02 03 	wh16	r16,0x3
    6098:	10 40 02 10 	ld32	r16,r16
    609c:	0d 45 4d 24 	wl16	r9,0x2a64
    60a0:	0d 60 01 23 	wh16	r9,0x3
    60a4:	10 40 01 29 	ld32	r9,r9
    60a8:	00 00 01 10 	add	r8,r16
    60ac:	20 70 03 e2 	movepc	rret,8
    60b0:	14 30 e7 d8 	br	10 <compare>,#al
    60b4:	00 10 00 41 	add	r2,1
    60b8:	0d 40 ed 08 	wl16	r8,0x768
    60bc:	0d 60 01 03 	wh16	r8,0x3
    60c0:	10 40 01 08 	ld32	r8,r8
    60c4:	0d 43 1e 08 	wl16	r16,0x18e8
    60c8:	0d 60 02 03 	wh16	r16,0x3
    60cc:	10 40 02 10 	ld32	r16,r16
    60d0:	0d 45 4d 28 	wl16	r9,0x2a68
    60d4:	0d 60 01 23 	wh16	r9,0x3
    60d8:	10 40 01 29 	ld32	r9,r9
    60dc:	00 00 01 10 	add	r8,r16
    60e0:	20 70 03 e2 	movepc	rret,8
    60e4:	14 30 e7 cb 	br	10 <compare>,#al
    60e8:	00 10 00 41 	add	r2,1
    60ec:	0d 40 ed 0c 	wl16	r8,0x76c
    60f0:	0d 60 01 03 	wh16	r8,0x3
    60f4:	10 40 01 08 	ld32	r8,r8
    60f8:	0d 43 1e 0c 	wl16	r16,0x18ec
    60fc:	0d 60 02 03 	wh16	r16,0x3
    6100:	10 40 02 10 	ld32	r16,r16
    6104:	0d 45 4d 2c 	wl16	r9,0x2a6c
    6108:	0d 60 01 23 	wh16	r9,0x3
    610c:	10 40 01 29 	ld32	r9,r9
    6110:	00 00 01 10 	add	r8,r16
    6114:	20 70 03 e2 	movepc	rret,8
    6118:	14 30 e7 be 	br	10 <compare>,#al
    611c:	00 10 00 41 	add	r2,1
    6120:	0d 40 ed 10 	wl16	r8,0x770
    6124:	0d 60 01 03 	wh16	r8,0x3
    6128:	10 40 01 08 	ld32	r8,r8
    612c:	0d 43 1e 10 	wl16	r16,0x18f0
    6130:	0d 60 02 03 	wh16	r16,0x3
    6134:	10 40 02 10 	ld32	r16,r16
    6138:	0d 45 4d 30 	wl16	r9,0x2a70
    613c:	0d 60 01 23 	wh16	r9,0x3
    6140:	10 40 01 29 	ld32	r9,r9
    6144:	00 00 01 10 	add	r8,r16
    6148:	20 70 03 e2 	movepc	rret,8
    614c:	14 30 e7 b1 	br	10 <compare>,#al
    6150:	00 10 00 41 	add	r2,1
    6154:	0d 40 ed 14 	wl16	r8,0x774
    6158:	0d 60 01 03 	wh16	r8,0x3
    615c:	10 40 01 08 	ld32	r8,r8
    6160:	0d 43 1e 14 	wl16	r16,0x18f4
    6164:	0d 60 02 03 	wh16	r16,0x3
    6168:	10 40 02 10 	ld32	r16,r16
    616c:	0d 45 4d 34 	wl16	r9,0x2a74
    6170:	0d 60 01 23 	wh16	r9,0x3
    6174:	10 40 01 29 	ld32	r9,r9
    6178:	00 00 01 10 	add	r8,r16
    617c:	20 70 03 e2 	movepc	rret,8
    6180:	14 30 e7 a4 	br	10 <compare>,#al
    6184:	00 10 00 41 	add	r2,1
    6188:	0d 40 ed 18 	wl16	r8,0x778
    618c:	0d 60 01 03 	wh16	r8,0x3
    6190:	10 40 01 08 	ld32	r8,r8
    6194:	0d 43 1e 18 	wl16	r16,0x18f8
    6198:	0d 60 02 03 	wh16	r16,0x3
    619c:	10 40 02 10 	ld32	r16,r16
    61a0:	0d 45 4d 38 	wl16	r9,0x2a78
    61a4:	0d 60 01 23 	wh16	r9,0x3
    61a8:	10 40 01 29 	ld32	r9,r9
    61ac:	00 00 01 10 	add	r8,r16
    61b0:	20 70 03 e2 	movepc	rret,8
    61b4:	14 30 e7 97 	br	10 <compare>,#al
    61b8:	00 10 00 41 	add	r2,1
    61bc:	0d 40 ed 1c 	wl16	r8,0x77c
    61c0:	0d 60 01 03 	wh16	r8,0x3
    61c4:	10 40 01 08 	ld32	r8,r8
    61c8:	0d 43 1e 1c 	wl16	r16,0x18fc
    61cc:	0d 60 02 03 	wh16	r16,0x3
    61d0:	10 40 02 10 	ld32	r16,r16
    61d4:	0d 45 4d 3c 	wl16	r9,0x2a7c
    61d8:	0d 60 01 23 	wh16	r9,0x3
    61dc:	10 40 01 29 	ld32	r9,r9
    61e0:	00 00 01 10 	add	r8,r16
    61e4:	20 70 03 e2 	movepc	rret,8
    61e8:	14 30 e7 8a 	br	10 <compare>,#al
    61ec:	00 10 00 41 	add	r2,1
    61f0:	0d 40 f1 00 	wl16	r8,0x780
    61f4:	0d 60 01 03 	wh16	r8,0x3
    61f8:	10 40 01 08 	ld32	r8,r8
    61fc:	0d 43 22 00 	wl16	r16,0x1900
    6200:	0d 60 02 03 	wh16	r16,0x3
    6204:	10 40 02 10 	ld32	r16,r16
    6208:	0d 45 51 20 	wl16	r9,0x2a80
    620c:	0d 60 01 23 	wh16	r9,0x3
    6210:	10 40 01 29 	ld32	r9,r9
    6214:	00 00 01 10 	add	r8,r16
    6218:	20 70 03 e2 	movepc	rret,8
    621c:	14 30 e7 7d 	br	10 <compare>,#al
    6220:	00 10 00 41 	add	r2,1
    6224:	0d 40 f1 04 	wl16	r8,0x784
    6228:	0d 60 01 03 	wh16	r8,0x3
    622c:	10 40 01 08 	ld32	r8,r8
    6230:	0d 43 22 04 	wl16	r16,0x1904
    6234:	0d 60 02 03 	wh16	r16,0x3
    6238:	10 40 02 10 	ld32	r16,r16
    623c:	0d 45 51 24 	wl16	r9,0x2a84
    6240:	0d 60 01 23 	wh16	r9,0x3
    6244:	10 40 01 29 	ld32	r9,r9
    6248:	00 00 01 10 	add	r8,r16
    624c:	20 70 03 e2 	movepc	rret,8
    6250:	14 30 e7 70 	br	10 <compare>,#al
    6254:	00 10 00 41 	add	r2,1
    6258:	0d 40 f1 08 	wl16	r8,0x788
    625c:	0d 60 01 03 	wh16	r8,0x3
    6260:	10 40 01 08 	ld32	r8,r8
    6264:	0d 43 22 08 	wl16	r16,0x1908
    6268:	0d 60 02 03 	wh16	r16,0x3
    626c:	10 40 02 10 	ld32	r16,r16
    6270:	0d 45 51 28 	wl16	r9,0x2a88
    6274:	0d 60 01 23 	wh16	r9,0x3
    6278:	10 40 01 29 	ld32	r9,r9
    627c:	00 00 01 10 	add	r8,r16
    6280:	20 70 03 e2 	movepc	rret,8
    6284:	14 30 e7 63 	br	10 <compare>,#al
    6288:	00 10 00 41 	add	r2,1
    628c:	0d 40 f1 0c 	wl16	r8,0x78c
    6290:	0d 60 01 03 	wh16	r8,0x3
    6294:	10 40 01 08 	ld32	r8,r8
    6298:	0d 43 22 0c 	wl16	r16,0x190c
    629c:	0d 60 02 03 	wh16	r16,0x3
    62a0:	10 40 02 10 	ld32	r16,r16
    62a4:	0d 45 51 2c 	wl16	r9,0x2a8c
    62a8:	0d 60 01 23 	wh16	r9,0x3
    62ac:	10 40 01 29 	ld32	r9,r9
    62b0:	00 00 01 10 	add	r8,r16
    62b4:	20 70 03 e2 	movepc	rret,8
    62b8:	14 30 e7 56 	br	10 <compare>,#al
    62bc:	00 10 00 41 	add	r2,1
    62c0:	0d 40 f1 10 	wl16	r8,0x790
    62c4:	0d 60 01 03 	wh16	r8,0x3
    62c8:	10 40 01 08 	ld32	r8,r8
    62cc:	0d 43 22 10 	wl16	r16,0x1910
    62d0:	0d 60 02 03 	wh16	r16,0x3
    62d4:	10 40 02 10 	ld32	r16,r16
    62d8:	0d 45 51 30 	wl16	r9,0x2a90
    62dc:	0d 60 01 23 	wh16	r9,0x3
    62e0:	10 40 01 29 	ld32	r9,r9
    62e4:	00 00 01 10 	add	r8,r16
    62e8:	20 70 03 e2 	movepc	rret,8
    62ec:	14 30 e7 49 	br	10 <compare>,#al
    62f0:	00 10 00 41 	add	r2,1
    62f4:	0d 40 f1 14 	wl16	r8,0x794
    62f8:	0d 60 01 03 	wh16	r8,0x3
    62fc:	10 40 01 08 	ld32	r8,r8
    6300:	0d 43 22 14 	wl16	r16,0x1914
    6304:	0d 60 02 03 	wh16	r16,0x3
    6308:	10 40 02 10 	ld32	r16,r16
    630c:	0d 45 51 34 	wl16	r9,0x2a94
    6310:	0d 60 01 23 	wh16	r9,0x3
    6314:	10 40 01 29 	ld32	r9,r9
    6318:	00 00 01 10 	add	r8,r16
    631c:	20 70 03 e2 	movepc	rret,8
    6320:	14 30 e7 3c 	br	10 <compare>,#al
    6324:	00 10 00 41 	add	r2,1
    6328:	0d 40 f1 18 	wl16	r8,0x798
    632c:	0d 60 01 03 	wh16	r8,0x3
    6330:	10 40 01 08 	ld32	r8,r8
    6334:	0d 43 22 18 	wl16	r16,0x1918
    6338:	0d 60 02 03 	wh16	r16,0x3
    633c:	10 40 02 10 	ld32	r16,r16
    6340:	0d 45 51 38 	wl16	r9,0x2a98
    6344:	0d 60 01 23 	wh16	r9,0x3
    6348:	10 40 01 29 	ld32	r9,r9
    634c:	00 00 01 10 	add	r8,r16
    6350:	20 70 03 e2 	movepc	rret,8
    6354:	14 30 e7 2f 	br	10 <compare>,#al
    6358:	00 10 00 41 	add	r2,1
    635c:	0d 40 f1 1c 	wl16	r8,0x79c
    6360:	0d 60 01 03 	wh16	r8,0x3
    6364:	10 40 01 08 	ld32	r8,r8
    6368:	0d 43 22 1c 	wl16	r16,0x191c
    636c:	0d 60 02 03 	wh16	r16,0x3
    6370:	10 40 02 10 	ld32	r16,r16
    6374:	0d 45 51 3c 	wl16	r9,0x2a9c
    6378:	0d 60 01 23 	wh16	r9,0x3
    637c:	10 40 01 29 	ld32	r9,r9
    6380:	00 00 01 10 	add	r8,r16
    6384:	20 70 03 e2 	movepc	rret,8
    6388:	14 30 e7 22 	br	10 <compare>,#al
    638c:	00 10 00 41 	add	r2,1
    6390:	0d 40 f5 00 	wl16	r8,0x7a0
    6394:	0d 60 01 03 	wh16	r8,0x3
    6398:	10 40 01 08 	ld32	r8,r8
    639c:	0d 43 26 00 	wl16	r16,0x1920
    63a0:	0d 60 02 03 	wh16	r16,0x3
    63a4:	10 40 02 10 	ld32	r16,r16
    63a8:	0d 45 55 20 	wl16	r9,0x2aa0
    63ac:	0d 60 01 23 	wh16	r9,0x3
    63b0:	10 40 01 29 	ld32	r9,r9
    63b4:	00 00 01 10 	add	r8,r16
    63b8:	20 70 03 e2 	movepc	rret,8
    63bc:	14 30 e7 15 	br	10 <compare>,#al
    63c0:	00 10 00 41 	add	r2,1
    63c4:	0d 40 f5 04 	wl16	r8,0x7a4
    63c8:	0d 60 01 03 	wh16	r8,0x3
    63cc:	10 40 01 08 	ld32	r8,r8
    63d0:	0d 43 26 04 	wl16	r16,0x1924
    63d4:	0d 60 02 03 	wh16	r16,0x3
    63d8:	10 40 02 10 	ld32	r16,r16
    63dc:	0d 45 55 24 	wl16	r9,0x2aa4
    63e0:	0d 60 01 23 	wh16	r9,0x3
    63e4:	10 40 01 29 	ld32	r9,r9
    63e8:	00 00 01 10 	add	r8,r16
    63ec:	20 70 03 e2 	movepc	rret,8
    63f0:	14 30 e7 08 	br	10 <compare>,#al
    63f4:	00 10 00 41 	add	r2,1
    63f8:	0d 40 f5 08 	wl16	r8,0x7a8
    63fc:	0d 60 01 03 	wh16	r8,0x3
    6400:	10 40 01 08 	ld32	r8,r8
    6404:	0d 43 26 08 	wl16	r16,0x1928
    6408:	0d 60 02 03 	wh16	r16,0x3
    640c:	10 40 02 10 	ld32	r16,r16
    6410:	0d 45 55 28 	wl16	r9,0x2aa8
    6414:	0d 60 01 23 	wh16	r9,0x3
    6418:	10 40 01 29 	ld32	r9,r9
    641c:	00 00 01 10 	add	r8,r16
    6420:	20 70 03 e2 	movepc	rret,8
    6424:	14 30 e6 fb 	br	10 <compare>,#al
    6428:	00 10 00 41 	add	r2,1
    642c:	0d 40 f5 0c 	wl16	r8,0x7ac
    6430:	0d 60 01 03 	wh16	r8,0x3
    6434:	10 40 01 08 	ld32	r8,r8
    6438:	0d 43 26 0c 	wl16	r16,0x192c
    643c:	0d 60 02 03 	wh16	r16,0x3
    6440:	10 40 02 10 	ld32	r16,r16
    6444:	0d 45 55 2c 	wl16	r9,0x2aac
    6448:	0d 60 01 23 	wh16	r9,0x3
    644c:	10 40 01 29 	ld32	r9,r9
    6450:	00 00 01 10 	add	r8,r16
    6454:	20 70 03 e2 	movepc	rret,8
    6458:	14 30 e6 ee 	br	10 <compare>,#al
    645c:	00 10 00 41 	add	r2,1
    6460:	0d 40 f5 10 	wl16	r8,0x7b0
    6464:	0d 60 01 03 	wh16	r8,0x3
    6468:	10 40 01 08 	ld32	r8,r8
    646c:	0d 43 26 10 	wl16	r16,0x1930
    6470:	0d 60 02 03 	wh16	r16,0x3
    6474:	10 40 02 10 	ld32	r16,r16
    6478:	0d 45 55 30 	wl16	r9,0x2ab0
    647c:	0d 60 01 23 	wh16	r9,0x3
    6480:	10 40 01 29 	ld32	r9,r9
    6484:	00 00 01 10 	add	r8,r16
    6488:	20 70 03 e2 	movepc	rret,8
    648c:	14 30 e6 e1 	br	10 <compare>,#al
    6490:	00 10 00 41 	add	r2,1
    6494:	0d 40 f5 14 	wl16	r8,0x7b4
    6498:	0d 60 01 03 	wh16	r8,0x3
    649c:	10 40 01 08 	ld32	r8,r8
    64a0:	0d 43 26 14 	wl16	r16,0x1934
    64a4:	0d 60 02 03 	wh16	r16,0x3
    64a8:	10 40 02 10 	ld32	r16,r16
    64ac:	0d 45 55 34 	wl16	r9,0x2ab4
    64b0:	0d 60 01 23 	wh16	r9,0x3
    64b4:	10 40 01 29 	ld32	r9,r9
    64b8:	00 00 01 10 	add	r8,r16
    64bc:	20 70 03 e2 	movepc	rret,8
    64c0:	14 30 e6 d4 	br	10 <compare>,#al
    64c4:	00 10 00 41 	add	r2,1
    64c8:	0d 40 f5 18 	wl16	r8,0x7b8
    64cc:	0d 60 01 03 	wh16	r8,0x3
    64d0:	10 40 01 08 	ld32	r8,r8
    64d4:	0d 43 26 18 	wl16	r16,0x1938
    64d8:	0d 60 02 03 	wh16	r16,0x3
    64dc:	10 40 02 10 	ld32	r16,r16
    64e0:	0d 45 55 38 	wl16	r9,0x2ab8
    64e4:	0d 60 01 23 	wh16	r9,0x3
    64e8:	10 40 01 29 	ld32	r9,r9
    64ec:	00 00 01 10 	add	r8,r16
    64f0:	20 70 03 e2 	movepc	rret,8
    64f4:	14 30 e6 c7 	br	10 <compare>,#al
    64f8:	00 10 00 41 	add	r2,1
    64fc:	0d 40 f5 1c 	wl16	r8,0x7bc
    6500:	0d 60 01 03 	wh16	r8,0x3
    6504:	10 40 01 08 	ld32	r8,r8
    6508:	0d 43 26 1c 	wl16	r16,0x193c
    650c:	0d 60 02 03 	wh16	r16,0x3
    6510:	10 40 02 10 	ld32	r16,r16
    6514:	0d 45 55 3c 	wl16	r9,0x2abc
    6518:	0d 60 01 23 	wh16	r9,0x3
    651c:	10 40 01 29 	ld32	r9,r9
    6520:	00 00 01 10 	add	r8,r16
    6524:	20 70 03 e2 	movepc	rret,8
    6528:	14 30 e6 ba 	br	10 <compare>,#al
    652c:	00 10 00 41 	add	r2,1
    6530:	0d 40 f9 00 	wl16	r8,0x7c0
    6534:	0d 60 01 03 	wh16	r8,0x3
    6538:	10 40 01 08 	ld32	r8,r8
    653c:	0d 43 2a 00 	wl16	r16,0x1940
    6540:	0d 60 02 03 	wh16	r16,0x3
    6544:	10 40 02 10 	ld32	r16,r16
    6548:	0d 45 59 20 	wl16	r9,0x2ac0
    654c:	0d 60 01 23 	wh16	r9,0x3
    6550:	10 40 01 29 	ld32	r9,r9
    6554:	00 00 01 10 	add	r8,r16
    6558:	20 70 03 e2 	movepc	rret,8
    655c:	14 30 e6 ad 	br	10 <compare>,#al
    6560:	00 10 00 41 	add	r2,1
    6564:	0d 40 f9 04 	wl16	r8,0x7c4
    6568:	0d 60 01 03 	wh16	r8,0x3
    656c:	10 40 01 08 	ld32	r8,r8
    6570:	0d 43 2a 04 	wl16	r16,0x1944
    6574:	0d 60 02 03 	wh16	r16,0x3
    6578:	10 40 02 10 	ld32	r16,r16
    657c:	0d 45 59 24 	wl16	r9,0x2ac4
    6580:	0d 60 01 23 	wh16	r9,0x3
    6584:	10 40 01 29 	ld32	r9,r9
    6588:	00 00 01 10 	add	r8,r16
    658c:	20 70 03 e2 	movepc	rret,8
    6590:	14 30 e6 a0 	br	10 <compare>,#al
    6594:	00 10 00 41 	add	r2,1
    6598:	0d 40 f9 08 	wl16	r8,0x7c8
    659c:	0d 60 01 03 	wh16	r8,0x3
    65a0:	10 40 01 08 	ld32	r8,r8
    65a4:	0d 43 2a 08 	wl16	r16,0x1948
    65a8:	0d 60 02 03 	wh16	r16,0x3
    65ac:	10 40 02 10 	ld32	r16,r16
    65b0:	0d 45 59 28 	wl16	r9,0x2ac8
    65b4:	0d 60 01 23 	wh16	r9,0x3
    65b8:	10 40 01 29 	ld32	r9,r9
    65bc:	00 00 01 10 	add	r8,r16
    65c0:	20 70 03 e2 	movepc	rret,8
    65c4:	14 30 e6 93 	br	10 <compare>,#al
    65c8:	00 10 00 41 	add	r2,1
    65cc:	0d 40 f9 0c 	wl16	r8,0x7cc
    65d0:	0d 60 01 03 	wh16	r8,0x3
    65d4:	10 40 01 08 	ld32	r8,r8
    65d8:	0d 43 2a 0c 	wl16	r16,0x194c
    65dc:	0d 60 02 03 	wh16	r16,0x3
    65e0:	10 40 02 10 	ld32	r16,r16
    65e4:	0d 45 59 2c 	wl16	r9,0x2acc
    65e8:	0d 60 01 23 	wh16	r9,0x3
    65ec:	10 40 01 29 	ld32	r9,r9
    65f0:	00 00 01 10 	add	r8,r16
    65f4:	20 70 03 e2 	movepc	rret,8
    65f8:	14 30 e6 86 	br	10 <compare>,#al
    65fc:	00 10 00 41 	add	r2,1
    6600:	0d 40 f9 10 	wl16	r8,0x7d0
    6604:	0d 60 01 03 	wh16	r8,0x3
    6608:	10 40 01 08 	ld32	r8,r8
    660c:	0d 43 2a 10 	wl16	r16,0x1950
    6610:	0d 60 02 03 	wh16	r16,0x3
    6614:	10 40 02 10 	ld32	r16,r16
    6618:	0d 45 59 30 	wl16	r9,0x2ad0
    661c:	0d 60 01 23 	wh16	r9,0x3
    6620:	10 40 01 29 	ld32	r9,r9
    6624:	00 00 01 10 	add	r8,r16
    6628:	20 70 03 e2 	movepc	rret,8
    662c:	14 30 e6 79 	br	10 <compare>,#al
    6630:	00 10 00 41 	add	r2,1
    6634:	0d 40 f9 14 	wl16	r8,0x7d4
    6638:	0d 60 01 03 	wh16	r8,0x3
    663c:	10 40 01 08 	ld32	r8,r8
    6640:	0d 43 2a 14 	wl16	r16,0x1954
    6644:	0d 60 02 03 	wh16	r16,0x3
    6648:	10 40 02 10 	ld32	r16,r16
    664c:	0d 45 59 34 	wl16	r9,0x2ad4
    6650:	0d 60 01 23 	wh16	r9,0x3
    6654:	10 40 01 29 	ld32	r9,r9
    6658:	00 00 01 10 	add	r8,r16
    665c:	20 70 03 e2 	movepc	rret,8
    6660:	14 30 e6 6c 	br	10 <compare>,#al
    6664:	00 10 00 41 	add	r2,1
    6668:	0d 40 f9 18 	wl16	r8,0x7d8
    666c:	0d 60 01 03 	wh16	r8,0x3
    6670:	10 40 01 08 	ld32	r8,r8
    6674:	0d 43 2a 18 	wl16	r16,0x1958
    6678:	0d 60 02 03 	wh16	r16,0x3
    667c:	10 40 02 10 	ld32	r16,r16
    6680:	0d 45 59 38 	wl16	r9,0x2ad8
    6684:	0d 60 01 23 	wh16	r9,0x3
    6688:	10 40 01 29 	ld32	r9,r9
    668c:	00 00 01 10 	add	r8,r16
    6690:	20 70 03 e2 	movepc	rret,8
    6694:	14 30 e6 5f 	br	10 <compare>,#al
    6698:	00 10 00 41 	add	r2,1
    669c:	0d 40 f9 1c 	wl16	r8,0x7dc
    66a0:	0d 60 01 03 	wh16	r8,0x3
    66a4:	10 40 01 08 	ld32	r8,r8
    66a8:	0d 43 2a 1c 	wl16	r16,0x195c
    66ac:	0d 60 02 03 	wh16	r16,0x3
    66b0:	10 40 02 10 	ld32	r16,r16
    66b4:	0d 45 59 3c 	wl16	r9,0x2adc
    66b8:	0d 60 01 23 	wh16	r9,0x3
    66bc:	10 40 01 29 	ld32	r9,r9
    66c0:	00 00 01 10 	add	r8,r16
    66c4:	20 70 03 e2 	movepc	rret,8
    66c8:	14 30 e6 52 	br	10 <compare>,#al
    66cc:	00 10 00 41 	add	r2,1
    66d0:	0d 40 fd 00 	wl16	r8,0x7e0
    66d4:	0d 60 01 03 	wh16	r8,0x3
    66d8:	10 40 01 08 	ld32	r8,r8
    66dc:	0d 43 2e 00 	wl16	r16,0x1960
    66e0:	0d 60 02 03 	wh16	r16,0x3
    66e4:	10 40 02 10 	ld32	r16,r16
    66e8:	0d 45 5d 20 	wl16	r9,0x2ae0
    66ec:	0d 60 01 23 	wh16	r9,0x3
    66f0:	10 40 01 29 	ld32	r9,r9
    66f4:	00 00 01 10 	add	r8,r16
    66f8:	20 70 03 e2 	movepc	rret,8
    66fc:	14 30 e6 45 	br	10 <compare>,#al
    6700:	00 10 00 41 	add	r2,1
    6704:	0d 40 fd 04 	wl16	r8,0x7e4
    6708:	0d 60 01 03 	wh16	r8,0x3
    670c:	10 40 01 08 	ld32	r8,r8
    6710:	0d 43 2e 04 	wl16	r16,0x1964
    6714:	0d 60 02 03 	wh16	r16,0x3
    6718:	10 40 02 10 	ld32	r16,r16
    671c:	0d 45 5d 24 	wl16	r9,0x2ae4
    6720:	0d 60 01 23 	wh16	r9,0x3
    6724:	10 40 01 29 	ld32	r9,r9
    6728:	00 00 01 10 	add	r8,r16
    672c:	20 70 03 e2 	movepc	rret,8
    6730:	14 30 e6 38 	br	10 <compare>,#al
    6734:	00 10 00 41 	add	r2,1
    6738:	0d 40 fd 08 	wl16	r8,0x7e8
    673c:	0d 60 01 03 	wh16	r8,0x3
    6740:	10 40 01 08 	ld32	r8,r8
    6744:	0d 43 2e 08 	wl16	r16,0x1968
    6748:	0d 60 02 03 	wh16	r16,0x3
    674c:	10 40 02 10 	ld32	r16,r16
    6750:	0d 45 5d 28 	wl16	r9,0x2ae8
    6754:	0d 60 01 23 	wh16	r9,0x3
    6758:	10 40 01 29 	ld32	r9,r9
    675c:	00 00 01 10 	add	r8,r16
    6760:	20 70 03 e2 	movepc	rret,8
    6764:	14 30 e6 2b 	br	10 <compare>,#al
    6768:	00 10 00 41 	add	r2,1
    676c:	0d 40 fd 0c 	wl16	r8,0x7ec
    6770:	0d 60 01 03 	wh16	r8,0x3
    6774:	10 40 01 08 	ld32	r8,r8
    6778:	0d 43 2e 0c 	wl16	r16,0x196c
    677c:	0d 60 02 03 	wh16	r16,0x3
    6780:	10 40 02 10 	ld32	r16,r16
    6784:	0d 45 5d 2c 	wl16	r9,0x2aec
    6788:	0d 60 01 23 	wh16	r9,0x3
    678c:	10 40 01 29 	ld32	r9,r9
    6790:	00 00 01 10 	add	r8,r16
    6794:	20 70 03 e2 	movepc	rret,8
    6798:	14 30 e6 1e 	br	10 <compare>,#al
    679c:	00 10 00 41 	add	r2,1
    67a0:	0d 40 fd 10 	wl16	r8,0x7f0
    67a4:	0d 60 01 03 	wh16	r8,0x3
    67a8:	10 40 01 08 	ld32	r8,r8
    67ac:	0d 43 2e 10 	wl16	r16,0x1970
    67b0:	0d 60 02 03 	wh16	r16,0x3
    67b4:	10 40 02 10 	ld32	r16,r16
    67b8:	0d 45 5d 30 	wl16	r9,0x2af0
    67bc:	0d 60 01 23 	wh16	r9,0x3
    67c0:	10 40 01 29 	ld32	r9,r9
    67c4:	00 00 01 10 	add	r8,r16
    67c8:	20 70 03 e2 	movepc	rret,8
    67cc:	14 30 e6 11 	br	10 <compare>,#al
    67d0:	00 10 00 41 	add	r2,1
    67d4:	0d 40 fd 14 	wl16	r8,0x7f4
    67d8:	0d 60 01 03 	wh16	r8,0x3
    67dc:	10 40 01 08 	ld32	r8,r8
    67e0:	0d 43 2e 14 	wl16	r16,0x1974
    67e4:	0d 60 02 03 	wh16	r16,0x3
    67e8:	10 40 02 10 	ld32	r16,r16
    67ec:	0d 45 5d 34 	wl16	r9,0x2af4
    67f0:	0d 60 01 23 	wh16	r9,0x3
    67f4:	10 40 01 29 	ld32	r9,r9
    67f8:	00 00 01 10 	add	r8,r16
    67fc:	20 70 03 e2 	movepc	rret,8
    6800:	14 30 e6 04 	br	10 <compare>,#al
    6804:	00 10 00 41 	add	r2,1
    6808:	0d 40 fd 18 	wl16	r8,0x7f8
    680c:	0d 60 01 03 	wh16	r8,0x3
    6810:	10 40 01 08 	ld32	r8,r8
    6814:	0d 43 2e 18 	wl16	r16,0x1978
    6818:	0d 60 02 03 	wh16	r16,0x3
    681c:	10 40 02 10 	ld32	r16,r16
    6820:	0d 45 5d 38 	wl16	r9,0x2af8
    6824:	0d 60 01 23 	wh16	r9,0x3
    6828:	10 40 01 29 	ld32	r9,r9
    682c:	00 00 01 10 	add	r8,r16
    6830:	20 70 03 e2 	movepc	rret,8
    6834:	14 30 e5 f7 	br	10 <compare>,#al
    6838:	00 10 00 41 	add	r2,1
    683c:	0d 40 fd 1c 	wl16	r8,0x7fc
    6840:	0d 60 01 03 	wh16	r8,0x3
    6844:	10 40 01 08 	ld32	r8,r8
    6848:	0d 43 2e 1c 	wl16	r16,0x197c
    684c:	0d 60 02 03 	wh16	r16,0x3
    6850:	10 40 02 10 	ld32	r16,r16
    6854:	0d 45 5d 3c 	wl16	r9,0x2afc
    6858:	0d 60 01 23 	wh16	r9,0x3
    685c:	10 40 01 29 	ld32	r9,r9
    6860:	00 00 01 10 	add	r8,r16
    6864:	20 70 03 e2 	movepc	rret,8
    6868:	14 30 e5 ea 	br	10 <compare>,#al
    686c:	00 10 00 41 	add	r2,1
    6870:	0d 41 01 00 	wl16	r8,0x800
    6874:	0d 60 01 03 	wh16	r8,0x3
    6878:	10 40 01 08 	ld32	r8,r8
    687c:	0d 43 32 00 	wl16	r16,0x1980
    6880:	0d 60 02 03 	wh16	r16,0x3
    6884:	10 40 02 10 	ld32	r16,r16
    6888:	0d 45 61 20 	wl16	r9,0x2b00
    688c:	0d 60 01 23 	wh16	r9,0x3
    6890:	10 40 01 29 	ld32	r9,r9
    6894:	00 00 01 10 	add	r8,r16
    6898:	20 70 03 e2 	movepc	rret,8
    689c:	14 30 e5 dd 	br	10 <compare>,#al
    68a0:	00 10 00 41 	add	r2,1
    68a4:	0d 41 01 04 	wl16	r8,0x804
    68a8:	0d 60 01 03 	wh16	r8,0x3
    68ac:	10 40 01 08 	ld32	r8,r8
    68b0:	0d 43 32 04 	wl16	r16,0x1984
    68b4:	0d 60 02 03 	wh16	r16,0x3
    68b8:	10 40 02 10 	ld32	r16,r16
    68bc:	0d 45 61 24 	wl16	r9,0x2b04
    68c0:	0d 60 01 23 	wh16	r9,0x3
    68c4:	10 40 01 29 	ld32	r9,r9
    68c8:	00 00 01 10 	add	r8,r16
    68cc:	20 70 03 e2 	movepc	rret,8
    68d0:	14 30 e5 d0 	br	10 <compare>,#al
    68d4:	00 10 00 41 	add	r2,1
    68d8:	0d 41 01 08 	wl16	r8,0x808
    68dc:	0d 60 01 03 	wh16	r8,0x3
    68e0:	10 40 01 08 	ld32	r8,r8
    68e4:	0d 43 32 08 	wl16	r16,0x1988
    68e8:	0d 60 02 03 	wh16	r16,0x3
    68ec:	10 40 02 10 	ld32	r16,r16
    68f0:	0d 45 61 28 	wl16	r9,0x2b08
    68f4:	0d 60 01 23 	wh16	r9,0x3
    68f8:	10 40 01 29 	ld32	r9,r9
    68fc:	00 00 01 10 	add	r8,r16
    6900:	20 70 03 e2 	movepc	rret,8
    6904:	14 30 e5 c3 	br	10 <compare>,#al
    6908:	00 10 00 41 	add	r2,1
    690c:	0d 41 01 0c 	wl16	r8,0x80c
    6910:	0d 60 01 03 	wh16	r8,0x3
    6914:	10 40 01 08 	ld32	r8,r8
    6918:	0d 43 32 0c 	wl16	r16,0x198c
    691c:	0d 60 02 03 	wh16	r16,0x3
    6920:	10 40 02 10 	ld32	r16,r16
    6924:	0d 45 61 2c 	wl16	r9,0x2b0c
    6928:	0d 60 01 23 	wh16	r9,0x3
    692c:	10 40 01 29 	ld32	r9,r9
    6930:	00 00 01 10 	add	r8,r16
    6934:	20 70 03 e2 	movepc	rret,8
    6938:	14 30 e5 b6 	br	10 <compare>,#al
    693c:	00 10 00 41 	add	r2,1
    6940:	0d 41 01 10 	wl16	r8,0x810
    6944:	0d 60 01 03 	wh16	r8,0x3
    6948:	10 40 01 08 	ld32	r8,r8
    694c:	0d 43 32 10 	wl16	r16,0x1990
    6950:	0d 60 02 03 	wh16	r16,0x3
    6954:	10 40 02 10 	ld32	r16,r16
    6958:	0d 45 61 30 	wl16	r9,0x2b10
    695c:	0d 60 01 23 	wh16	r9,0x3
    6960:	10 40 01 29 	ld32	r9,r9
    6964:	00 00 01 10 	add	r8,r16
    6968:	20 70 03 e2 	movepc	rret,8
    696c:	14 30 e5 a9 	br	10 <compare>,#al
    6970:	00 10 00 41 	add	r2,1
    6974:	0d 41 01 14 	wl16	r8,0x814
    6978:	0d 60 01 03 	wh16	r8,0x3
    697c:	10 40 01 08 	ld32	r8,r8
    6980:	0d 43 32 14 	wl16	r16,0x1994
    6984:	0d 60 02 03 	wh16	r16,0x3
    6988:	10 40 02 10 	ld32	r16,r16
    698c:	0d 45 61 34 	wl16	r9,0x2b14
    6990:	0d 60 01 23 	wh16	r9,0x3
    6994:	10 40 01 29 	ld32	r9,r9
    6998:	00 00 01 10 	add	r8,r16
    699c:	20 70 03 e2 	movepc	rret,8
    69a0:	14 30 e5 9c 	br	10 <compare>,#al
    69a4:	00 10 00 41 	add	r2,1
    69a8:	0d 41 01 18 	wl16	r8,0x818
    69ac:	0d 60 01 03 	wh16	r8,0x3
    69b0:	10 40 01 08 	ld32	r8,r8
    69b4:	0d 43 32 18 	wl16	r16,0x1998
    69b8:	0d 60 02 03 	wh16	r16,0x3
    69bc:	10 40 02 10 	ld32	r16,r16
    69c0:	0d 45 61 38 	wl16	r9,0x2b18
    69c4:	0d 60 01 23 	wh16	r9,0x3
    69c8:	10 40 01 29 	ld32	r9,r9
    69cc:	00 00 01 10 	add	r8,r16
    69d0:	20 70 03 e2 	movepc	rret,8
    69d4:	14 30 e5 8f 	br	10 <compare>,#al
    69d8:	00 10 00 41 	add	r2,1
    69dc:	0d 41 01 1c 	wl16	r8,0x81c
    69e0:	0d 60 01 03 	wh16	r8,0x3
    69e4:	10 40 01 08 	ld32	r8,r8
    69e8:	0d 43 32 1c 	wl16	r16,0x199c
    69ec:	0d 60 02 03 	wh16	r16,0x3
    69f0:	10 40 02 10 	ld32	r16,r16
    69f4:	0d 45 61 3c 	wl16	r9,0x2b1c
    69f8:	0d 60 01 23 	wh16	r9,0x3
    69fc:	10 40 01 29 	ld32	r9,r9
    6a00:	00 00 01 10 	add	r8,r16
    6a04:	20 70 03 e2 	movepc	rret,8
    6a08:	14 30 e5 82 	br	10 <compare>,#al
    6a0c:	00 10 00 41 	add	r2,1
    6a10:	0d 41 05 00 	wl16	r8,0x820
    6a14:	0d 60 01 03 	wh16	r8,0x3
    6a18:	10 40 01 08 	ld32	r8,r8
    6a1c:	0d 43 36 00 	wl16	r16,0x19a0
    6a20:	0d 60 02 03 	wh16	r16,0x3
    6a24:	10 40 02 10 	ld32	r16,r16
    6a28:	0d 45 65 20 	wl16	r9,0x2b20
    6a2c:	0d 60 01 23 	wh16	r9,0x3
    6a30:	10 40 01 29 	ld32	r9,r9
    6a34:	00 00 01 10 	add	r8,r16
    6a38:	20 70 03 e2 	movepc	rret,8
    6a3c:	14 30 e5 75 	br	10 <compare>,#al
    6a40:	00 10 00 41 	add	r2,1
    6a44:	0d 41 05 04 	wl16	r8,0x824
    6a48:	0d 60 01 03 	wh16	r8,0x3
    6a4c:	10 40 01 08 	ld32	r8,r8
    6a50:	0d 43 36 04 	wl16	r16,0x19a4
    6a54:	0d 60 02 03 	wh16	r16,0x3
    6a58:	10 40 02 10 	ld32	r16,r16
    6a5c:	0d 45 65 24 	wl16	r9,0x2b24
    6a60:	0d 60 01 23 	wh16	r9,0x3
    6a64:	10 40 01 29 	ld32	r9,r9
    6a68:	00 00 01 10 	add	r8,r16
    6a6c:	20 70 03 e2 	movepc	rret,8
    6a70:	14 30 e5 68 	br	10 <compare>,#al
    6a74:	00 10 00 41 	add	r2,1
    6a78:	0d 41 05 08 	wl16	r8,0x828
    6a7c:	0d 60 01 03 	wh16	r8,0x3
    6a80:	10 40 01 08 	ld32	r8,r8
    6a84:	0d 43 36 08 	wl16	r16,0x19a8
    6a88:	0d 60 02 03 	wh16	r16,0x3
    6a8c:	10 40 02 10 	ld32	r16,r16
    6a90:	0d 45 65 28 	wl16	r9,0x2b28
    6a94:	0d 60 01 23 	wh16	r9,0x3
    6a98:	10 40 01 29 	ld32	r9,r9
    6a9c:	00 00 01 10 	add	r8,r16
    6aa0:	20 70 03 e2 	movepc	rret,8
    6aa4:	14 30 e5 5b 	br	10 <compare>,#al
    6aa8:	00 10 00 41 	add	r2,1
    6aac:	0d 41 05 0c 	wl16	r8,0x82c
    6ab0:	0d 60 01 03 	wh16	r8,0x3
    6ab4:	10 40 01 08 	ld32	r8,r8
    6ab8:	0d 43 36 0c 	wl16	r16,0x19ac
    6abc:	0d 60 02 03 	wh16	r16,0x3
    6ac0:	10 40 02 10 	ld32	r16,r16
    6ac4:	0d 45 65 2c 	wl16	r9,0x2b2c
    6ac8:	0d 60 01 23 	wh16	r9,0x3
    6acc:	10 40 01 29 	ld32	r9,r9
    6ad0:	00 00 01 10 	add	r8,r16
    6ad4:	20 70 03 e2 	movepc	rret,8
    6ad8:	14 30 e5 4e 	br	10 <compare>,#al
    6adc:	00 10 00 41 	add	r2,1
    6ae0:	0d 41 05 10 	wl16	r8,0x830
    6ae4:	0d 60 01 03 	wh16	r8,0x3
    6ae8:	10 40 01 08 	ld32	r8,r8
    6aec:	0d 43 36 10 	wl16	r16,0x19b0
    6af0:	0d 60 02 03 	wh16	r16,0x3
    6af4:	10 40 02 10 	ld32	r16,r16
    6af8:	0d 45 65 30 	wl16	r9,0x2b30
    6afc:	0d 60 01 23 	wh16	r9,0x3
    6b00:	10 40 01 29 	ld32	r9,r9
    6b04:	00 00 01 10 	add	r8,r16
    6b08:	20 70 03 e2 	movepc	rret,8
    6b0c:	14 30 e5 41 	br	10 <compare>,#al
    6b10:	00 10 00 41 	add	r2,1
    6b14:	0d 41 05 14 	wl16	r8,0x834
    6b18:	0d 60 01 03 	wh16	r8,0x3
    6b1c:	10 40 01 08 	ld32	r8,r8
    6b20:	0d 43 36 14 	wl16	r16,0x19b4
    6b24:	0d 60 02 03 	wh16	r16,0x3
    6b28:	10 40 02 10 	ld32	r16,r16
    6b2c:	0d 45 65 34 	wl16	r9,0x2b34
    6b30:	0d 60 01 23 	wh16	r9,0x3
    6b34:	10 40 01 29 	ld32	r9,r9
    6b38:	00 00 01 10 	add	r8,r16
    6b3c:	20 70 03 e2 	movepc	rret,8
    6b40:	14 30 e5 34 	br	10 <compare>,#al
    6b44:	00 10 00 41 	add	r2,1
    6b48:	0d 41 05 18 	wl16	r8,0x838
    6b4c:	0d 60 01 03 	wh16	r8,0x3
    6b50:	10 40 01 08 	ld32	r8,r8
    6b54:	0d 43 36 18 	wl16	r16,0x19b8
    6b58:	0d 60 02 03 	wh16	r16,0x3
    6b5c:	10 40 02 10 	ld32	r16,r16
    6b60:	0d 45 65 38 	wl16	r9,0x2b38
    6b64:	0d 60 01 23 	wh16	r9,0x3
    6b68:	10 40 01 29 	ld32	r9,r9
    6b6c:	00 00 01 10 	add	r8,r16
    6b70:	20 70 03 e2 	movepc	rret,8
    6b74:	14 30 e5 27 	br	10 <compare>,#al
    6b78:	00 10 00 41 	add	r2,1
    6b7c:	0d 41 05 1c 	wl16	r8,0x83c
    6b80:	0d 60 01 03 	wh16	r8,0x3
    6b84:	10 40 01 08 	ld32	r8,r8
    6b88:	0d 43 36 1c 	wl16	r16,0x19bc
    6b8c:	0d 60 02 03 	wh16	r16,0x3
    6b90:	10 40 02 10 	ld32	r16,r16
    6b94:	0d 45 65 3c 	wl16	r9,0x2b3c
    6b98:	0d 60 01 23 	wh16	r9,0x3
    6b9c:	10 40 01 29 	ld32	r9,r9
    6ba0:	00 00 01 10 	add	r8,r16
    6ba4:	20 70 03 e2 	movepc	rret,8
    6ba8:	14 30 e5 1a 	br	10 <compare>,#al
    6bac:	00 10 00 41 	add	r2,1
    6bb0:	0d 41 09 00 	wl16	r8,0x840
    6bb4:	0d 60 01 03 	wh16	r8,0x3
    6bb8:	10 40 01 08 	ld32	r8,r8
    6bbc:	0d 43 3a 00 	wl16	r16,0x19c0
    6bc0:	0d 60 02 03 	wh16	r16,0x3
    6bc4:	10 40 02 10 	ld32	r16,r16
    6bc8:	0d 45 69 20 	wl16	r9,0x2b40
    6bcc:	0d 60 01 23 	wh16	r9,0x3
    6bd0:	10 40 01 29 	ld32	r9,r9
    6bd4:	00 00 01 10 	add	r8,r16
    6bd8:	20 70 03 e2 	movepc	rret,8
    6bdc:	14 30 e5 0d 	br	10 <compare>,#al
    6be0:	00 10 00 41 	add	r2,1
    6be4:	0d 41 09 04 	wl16	r8,0x844
    6be8:	0d 60 01 03 	wh16	r8,0x3
    6bec:	10 40 01 08 	ld32	r8,r8
    6bf0:	0d 43 3a 04 	wl16	r16,0x19c4
    6bf4:	0d 60 02 03 	wh16	r16,0x3
    6bf8:	10 40 02 10 	ld32	r16,r16
    6bfc:	0d 45 69 24 	wl16	r9,0x2b44
    6c00:	0d 60 01 23 	wh16	r9,0x3
