
./out/add.out:     ファイル形式 elf32-mist32


セクション .text の逆アセンブル:

00000000 <_start>:
       0:	0d 40 00 00 	wl16	r0,0x0
       4:	0d 60 00 0f 	wh16	r0,0xf
       8:	1c 00 00 00 	srspw	r0
       c:	14 30 00 18 	br	6c <check>,#al

00000010 <compare>:
      10:	00 c0 01 09 	cmp	r8,r9
      14:	14 41 03 e0 	b	rret,#eq

00000018 <error>:
      18:	0d 40 00 00 	wl16	r0,0x0
      1c:	0d 60 00 02 	wh16	r0,0x2
      20:	0e c0 00 20 	lil	r1,0
      24:	10 a0 00 20 	st32	r1,r0
      28:	0d 40 00 0c 	wl16	r0,0xc
      2c:	0d 60 00 02 	wh16	r0,0x2
      30:	10 a0 00 40 	st32	r2,r0
      34:	0d 40 00 08 	wl16	r0,0x8
      38:	0d 60 00 02 	wh16	r0,0x2
      3c:	10 a0 00 60 	st32	r3,r0
      40:	0d 40 00 10 	wl16	r0,0x10
      44:	0d 60 00 02 	wh16	r0,0x2
      48:	10 a0 01 00 	st32	r8,r0
      4c:	0d 40 00 14 	wl16	r0,0x14
      50:	0d 60 00 02 	wh16	r0,0x2
      54:	10 a0 01 20 	st32	r9,r0

00000058 <finish>:
      58:	0d 40 00 04 	wl16	r0,0x4
      5c:	0d 60 00 02 	wh16	r0,0x2
      60:	0e c0 00 21 	lil	r1,1
      64:	10 a0 00 20 	st32	r1,r0
      68:	14 30 00 00 	br	68 <finish+0x10>,#al

0000006c <check>:
      6c:	0c 40 00 42 	xor	r2,r2
      70:	0d 40 01 00 	wl16	r8,0x0
      74:	0d 60 01 03 	wh16	r8,0x3
      78:	10 40 01 08 	ld32	r8,r8
      7c:	0d 42 32 00 	wl16	r16,0x1180
      80:	0d 60 02 03 	wh16	r16,0x3
      84:	10 40 02 10 	ld32	r16,r16
      88:	0d 44 61 20 	wl16	r9,0x2300
      8c:	0d 60 01 23 	wh16	r9,0x3
      90:	10 40 01 29 	ld32	r9,r9
      94:	00 00 01 10 	add	r8,r16
      98:	20 70 03 e2 	movepc	rret,8
      9c:	14 30 ff dd 	br	10 <compare>,#al
      a0:	00 10 00 41 	add	r2,1
      a4:	0d 40 01 04 	wl16	r8,0x4
      a8:	0d 60 01 03 	wh16	r8,0x3
      ac:	10 40 01 08 	ld32	r8,r8
      b0:	0d 42 32 04 	wl16	r16,0x1184
      b4:	0d 60 02 03 	wh16	r16,0x3
      b8:	10 40 02 10 	ld32	r16,r16
      bc:	0d 44 61 24 	wl16	r9,0x2304
      c0:	0d 60 01 23 	wh16	r9,0x3
      c4:	10 40 01 29 	ld32	r9,r9
      c8:	00 00 01 10 	add	r8,r16
      cc:	20 70 03 e2 	movepc	rret,8
      d0:	14 30 ff d0 	br	10 <compare>,#al
      d4:	00 10 00 41 	add	r2,1
      d8:	0d 40 01 08 	wl16	r8,0x8
      dc:	0d 60 01 03 	wh16	r8,0x3
      e0:	10 40 01 08 	ld32	r8,r8
      e4:	0d 42 32 08 	wl16	r16,0x1188
      e8:	0d 60 02 03 	wh16	r16,0x3
      ec:	10 40 02 10 	ld32	r16,r16
      f0:	0d 44 61 28 	wl16	r9,0x2308
      f4:	0d 60 01 23 	wh16	r9,0x3
      f8:	10 40 01 29 	ld32	r9,r9
      fc:	00 00 01 10 	add	r8,r16
     100:	20 70 03 e2 	movepc	rret,8
     104:	14 30 ff c3 	br	10 <compare>,#al
     108:	00 10 00 41 	add	r2,1
     10c:	0d 40 01 0c 	wl16	r8,0xc
     110:	0d 60 01 03 	wh16	r8,0x3
     114:	10 40 01 08 	ld32	r8,r8
     118:	0d 42 32 0c 	wl16	r16,0x118c
     11c:	0d 60 02 03 	wh16	r16,0x3
     120:	10 40 02 10 	ld32	r16,r16
     124:	0d 44 61 2c 	wl16	r9,0x230c
     128:	0d 60 01 23 	wh16	r9,0x3
     12c:	10 40 01 29 	ld32	r9,r9
     130:	00 00 01 10 	add	r8,r16
     134:	20 70 03 e2 	movepc	rret,8
     138:	14 30 ff b6 	br	10 <compare>,#al
     13c:	00 10 00 41 	add	r2,1
     140:	0d 40 01 10 	wl16	r8,0x10
     144:	0d 60 01 03 	wh16	r8,0x3
     148:	10 40 01 08 	ld32	r8,r8
     14c:	0d 42 32 10 	wl16	r16,0x1190
     150:	0d 60 02 03 	wh16	r16,0x3
     154:	10 40 02 10 	ld32	r16,r16
     158:	0d 44 61 30 	wl16	r9,0x2310
     15c:	0d 60 01 23 	wh16	r9,0x3
     160:	10 40 01 29 	ld32	r9,r9
     164:	00 00 01 10 	add	r8,r16
     168:	20 70 03 e2 	movepc	rret,8
     16c:	14 30 ff a9 	br	10 <compare>,#al
     170:	00 10 00 41 	add	r2,1
     174:	0d 40 01 14 	wl16	r8,0x14
     178:	0d 60 01 03 	wh16	r8,0x3
     17c:	10 40 01 08 	ld32	r8,r8
     180:	0d 42 32 14 	wl16	r16,0x1194
     184:	0d 60 02 03 	wh16	r16,0x3
     188:	10 40 02 10 	ld32	r16,r16
     18c:	0d 44 61 34 	wl16	r9,0x2314
     190:	0d 60 01 23 	wh16	r9,0x3
     194:	10 40 01 29 	ld32	r9,r9
     198:	00 00 01 10 	add	r8,r16
     19c:	20 70 03 e2 	movepc	rret,8
     1a0:	14 30 ff 9c 	br	10 <compare>,#al
     1a4:	00 10 00 41 	add	r2,1
     1a8:	0d 40 01 18 	wl16	r8,0x18
     1ac:	0d 60 01 03 	wh16	r8,0x3
     1b0:	10 40 01 08 	ld32	r8,r8
     1b4:	0d 42 32 18 	wl16	r16,0x1198
     1b8:	0d 60 02 03 	wh16	r16,0x3
     1bc:	10 40 02 10 	ld32	r16,r16
     1c0:	0d 44 61 38 	wl16	r9,0x2318
     1c4:	0d 60 01 23 	wh16	r9,0x3
     1c8:	10 40 01 29 	ld32	r9,r9
     1cc:	00 00 01 10 	add	r8,r16
     1d0:	20 70 03 e2 	movepc	rret,8
     1d4:	14 30 ff 8f 	br	10 <compare>,#al
     1d8:	00 10 00 41 	add	r2,1
     1dc:	0d 40 01 1c 	wl16	r8,0x1c
     1e0:	0d 60 01 03 	wh16	r8,0x3
     1e4:	10 40 01 08 	ld32	r8,r8
     1e8:	0d 42 32 1c 	wl16	r16,0x119c
     1ec:	0d 60 02 03 	wh16	r16,0x3
     1f0:	10 40 02 10 	ld32	r16,r16
     1f4:	0d 44 61 3c 	wl16	r9,0x231c
     1f8:	0d 60 01 23 	wh16	r9,0x3
     1fc:	10 40 01 29 	ld32	r9,r9
     200:	00 00 01 10 	add	r8,r16
     204:	20 70 03 e2 	movepc	rret,8
     208:	14 30 ff 82 	br	10 <compare>,#al
     20c:	00 10 00 41 	add	r2,1
     210:	0d 40 05 00 	wl16	r8,0x20
     214:	0d 60 01 03 	wh16	r8,0x3
     218:	10 40 01 08 	ld32	r8,r8
     21c:	0d 42 36 00 	wl16	r16,0x11a0
     220:	0d 60 02 03 	wh16	r16,0x3
     224:	10 40 02 10 	ld32	r16,r16
     228:	0d 44 65 20 	wl16	r9,0x2320
     22c:	0d 60 01 23 	wh16	r9,0x3
     230:	10 40 01 29 	ld32	r9,r9
     234:	00 00 01 10 	add	r8,r16
     238:	20 70 03 e2 	movepc	rret,8
     23c:	14 30 ff 75 	br	10 <compare>,#al
     240:	00 10 00 41 	add	r2,1
     244:	0d 40 05 04 	wl16	r8,0x24
     248:	0d 60 01 03 	wh16	r8,0x3
     24c:	10 40 01 08 	ld32	r8,r8
     250:	0d 42 36 04 	wl16	r16,0x11a4
     254:	0d 60 02 03 	wh16	r16,0x3
     258:	10 40 02 10 	ld32	r16,r16
     25c:	0d 44 65 24 	wl16	r9,0x2324
     260:	0d 60 01 23 	wh16	r9,0x3
     264:	10 40 01 29 	ld32	r9,r9
     268:	00 00 01 10 	add	r8,r16
     26c:	20 70 03 e2 	movepc	rret,8
     270:	14 30 ff 68 	br	10 <compare>,#al
     274:	00 10 00 41 	add	r2,1
     278:	0d 40 05 08 	wl16	r8,0x28
     27c:	0d 60 01 03 	wh16	r8,0x3
     280:	10 40 01 08 	ld32	r8,r8
     284:	0d 42 36 08 	wl16	r16,0x11a8
     288:	0d 60 02 03 	wh16	r16,0x3
     28c:	10 40 02 10 	ld32	r16,r16
     290:	0d 44 65 28 	wl16	r9,0x2328
     294:	0d 60 01 23 	wh16	r9,0x3
     298:	10 40 01 29 	ld32	r9,r9
     29c:	00 00 01 10 	add	r8,r16
     2a0:	20 70 03 e2 	movepc	rret,8
     2a4:	14 30 ff 5b 	br	10 <compare>,#al
     2a8:	00 10 00 41 	add	r2,1
     2ac:	0d 40 05 0c 	wl16	r8,0x2c
     2b0:	0d 60 01 03 	wh16	r8,0x3
     2b4:	10 40 01 08 	ld32	r8,r8
     2b8:	0d 42 36 0c 	wl16	r16,0x11ac
     2bc:	0d 60 02 03 	wh16	r16,0x3
     2c0:	10 40 02 10 	ld32	r16,r16
     2c4:	0d 44 65 2c 	wl16	r9,0x232c
     2c8:	0d 60 01 23 	wh16	r9,0x3
     2cc:	10 40 01 29 	ld32	r9,r9
     2d0:	00 00 01 10 	add	r8,r16
     2d4:	20 70 03 e2 	movepc	rret,8
     2d8:	14 30 ff 4e 	br	10 <compare>,#al
     2dc:	00 10 00 41 	add	r2,1
     2e0:	0d 40 05 10 	wl16	r8,0x30
     2e4:	0d 60 01 03 	wh16	r8,0x3
     2e8:	10 40 01 08 	ld32	r8,r8
     2ec:	0d 42 36 10 	wl16	r16,0x11b0
     2f0:	0d 60 02 03 	wh16	r16,0x3
     2f4:	10 40 02 10 	ld32	r16,r16
     2f8:	0d 44 65 30 	wl16	r9,0x2330
     2fc:	0d 60 01 23 	wh16	r9,0x3
     300:	10 40 01 29 	ld32	r9,r9
     304:	00 00 01 10 	add	r8,r16
     308:	20 70 03 e2 	movepc	rret,8
     30c:	14 30 ff 41 	br	10 <compare>,#al
     310:	00 10 00 41 	add	r2,1
     314:	0d 40 05 14 	wl16	r8,0x34
     318:	0d 60 01 03 	wh16	r8,0x3
     31c:	10 40 01 08 	ld32	r8,r8
     320:	0d 42 36 14 	wl16	r16,0x11b4
     324:	0d 60 02 03 	wh16	r16,0x3
     328:	10 40 02 10 	ld32	r16,r16
     32c:	0d 44 65 34 	wl16	r9,0x2334
     330:	0d 60 01 23 	wh16	r9,0x3
     334:	10 40 01 29 	ld32	r9,r9
     338:	00 00 01 10 	add	r8,r16
     33c:	20 70 03 e2 	movepc	rret,8
     340:	14 30 ff 34 	br	10 <compare>,#al
     344:	00 10 00 41 	add	r2,1
     348:	0d 40 05 18 	wl16	r8,0x38
     34c:	0d 60 01 03 	wh16	r8,0x3
     350:	10 40 01 08 	ld32	r8,r8
     354:	0d 42 36 18 	wl16	r16,0x11b8
     358:	0d 60 02 03 	wh16	r16,0x3
     35c:	10 40 02 10 	ld32	r16,r16
     360:	0d 44 65 38 	wl16	r9,0x2338
     364:	0d 60 01 23 	wh16	r9,0x3
     368:	10 40 01 29 	ld32	r9,r9
     36c:	00 00 01 10 	add	r8,r16
     370:	20 70 03 e2 	movepc	rret,8
     374:	14 30 ff 27 	br	10 <compare>,#al
     378:	00 10 00 41 	add	r2,1
     37c:	0d 40 05 1c 	wl16	r8,0x3c
     380:	0d 60 01 03 	wh16	r8,0x3
     384:	10 40 01 08 	ld32	r8,r8
     388:	0d 42 36 1c 	wl16	r16,0x11bc
     38c:	0d 60 02 03 	wh16	r16,0x3
     390:	10 40 02 10 	ld32	r16,r16
     394:	0d 44 65 3c 	wl16	r9,0x233c
     398:	0d 60 01 23 	wh16	r9,0x3
     39c:	10 40 01 29 	ld32	r9,r9
     3a0:	00 00 01 10 	add	r8,r16
     3a4:	20 70 03 e2 	movepc	rret,8
     3a8:	14 30 ff 1a 	br	10 <compare>,#al
     3ac:	00 10 00 41 	add	r2,1
     3b0:	0d 40 09 00 	wl16	r8,0x40
     3b4:	0d 60 01 03 	wh16	r8,0x3
     3b8:	10 40 01 08 	ld32	r8,r8
     3bc:	0d 42 3a 00 	wl16	r16,0x11c0
     3c0:	0d 60 02 03 	wh16	r16,0x3
     3c4:	10 40 02 10 	ld32	r16,r16
     3c8:	0d 44 69 20 	wl16	r9,0x2340
     3cc:	0d 60 01 23 	wh16	r9,0x3
     3d0:	10 40 01 29 	ld32	r9,r9
     3d4:	00 00 01 10 	add	r8,r16
     3d8:	20 70 03 e2 	movepc	rret,8
     3dc:	14 30 ff 0d 	br	10 <compare>,#al
     3e0:	00 10 00 41 	add	r2,1
     3e4:	0d 40 09 04 	wl16	r8,0x44
     3e8:	0d 60 01 03 	wh16	r8,0x3
     3ec:	10 40 01 08 	ld32	r8,r8
     3f0:	0d 42 3a 04 	wl16	r16,0x11c4
     3f4:	0d 60 02 03 	wh16	r16,0x3
     3f8:	10 40 02 10 	ld32	r16,r16
     3fc:	0d 44 69 24 	wl16	r9,0x2344
     400:	0d 60 01 23 	wh16	r9,0x3
     404:	10 40 01 29 	ld32	r9,r9
     408:	00 00 01 10 	add	r8,r16
     40c:	20 70 03 e2 	movepc	rret,8
     410:	14 30 ff 00 	br	10 <compare>,#al
     414:	00 10 00 41 	add	r2,1
     418:	0d 40 09 08 	wl16	r8,0x48
     41c:	0d 60 01 03 	wh16	r8,0x3
     420:	10 40 01 08 	ld32	r8,r8
     424:	0d 42 3a 08 	wl16	r16,0x11c8
     428:	0d 60 02 03 	wh16	r16,0x3
     42c:	10 40 02 10 	ld32	r16,r16
     430:	0d 44 69 28 	wl16	r9,0x2348
     434:	0d 60 01 23 	wh16	r9,0x3
     438:	10 40 01 29 	ld32	r9,r9
     43c:	00 00 01 10 	add	r8,r16
     440:	20 70 03 e2 	movepc	rret,8
     444:	14 30 fe f3 	br	10 <compare>,#al
     448:	00 10 00 41 	add	r2,1
     44c:	0d 40 09 0c 	wl16	r8,0x4c
     450:	0d 60 01 03 	wh16	r8,0x3
     454:	10 40 01 08 	ld32	r8,r8
     458:	0d 42 3a 0c 	wl16	r16,0x11cc
     45c:	0d 60 02 03 	wh16	r16,0x3
     460:	10 40 02 10 	ld32	r16,r16
     464:	0d 44 69 2c 	wl16	r9,0x234c
     468:	0d 60 01 23 	wh16	r9,0x3
     46c:	10 40 01 29 	ld32	r9,r9
     470:	00 00 01 10 	add	r8,r16
     474:	20 70 03 e2 	movepc	rret,8
     478:	14 30 fe e6 	br	10 <compare>,#al
     47c:	00 10 00 41 	add	r2,1
     480:	0d 40 09 10 	wl16	r8,0x50
     484:	0d 60 01 03 	wh16	r8,0x3
     488:	10 40 01 08 	ld32	r8,r8
     48c:	0d 42 3a 10 	wl16	r16,0x11d0
     490:	0d 60 02 03 	wh16	r16,0x3
     494:	10 40 02 10 	ld32	r16,r16
     498:	0d 44 69 30 	wl16	r9,0x2350
     49c:	0d 60 01 23 	wh16	r9,0x3
     4a0:	10 40 01 29 	ld32	r9,r9
     4a4:	00 00 01 10 	add	r8,r16
     4a8:	20 70 03 e2 	movepc	rret,8
     4ac:	14 30 fe d9 	br	10 <compare>,#al
     4b0:	00 10 00 41 	add	r2,1
     4b4:	0d 40 09 14 	wl16	r8,0x54
     4b8:	0d 60 01 03 	wh16	r8,0x3
     4bc:	10 40 01 08 	ld32	r8,r8
     4c0:	0d 42 3a 14 	wl16	r16,0x11d4
     4c4:	0d 60 02 03 	wh16	r16,0x3
     4c8:	10 40 02 10 	ld32	r16,r16
     4cc:	0d 44 69 34 	wl16	r9,0x2354
     4d0:	0d 60 01 23 	wh16	r9,0x3
     4d4:	10 40 01 29 	ld32	r9,r9
     4d8:	00 00 01 10 	add	r8,r16
     4dc:	20 70 03 e2 	movepc	rret,8
     4e0:	14 30 fe cc 	br	10 <compare>,#al
     4e4:	00 10 00 41 	add	r2,1
     4e8:	0d 40 09 18 	wl16	r8,0x58
     4ec:	0d 60 01 03 	wh16	r8,0x3
     4f0:	10 40 01 08 	ld32	r8,r8
     4f4:	0d 42 3a 18 	wl16	r16,0x11d8
     4f8:	0d 60 02 03 	wh16	r16,0x3
     4fc:	10 40 02 10 	ld32	r16,r16
     500:	0d 44 69 38 	wl16	r9,0x2358
     504:	0d 60 01 23 	wh16	r9,0x3
     508:	10 40 01 29 	ld32	r9,r9
     50c:	00 00 01 10 	add	r8,r16
     510:	20 70 03 e2 	movepc	rret,8
     514:	14 30 fe bf 	br	10 <compare>,#al
     518:	00 10 00 41 	add	r2,1
     51c:	0d 40 09 1c 	wl16	r8,0x5c
     520:	0d 60 01 03 	wh16	r8,0x3
     524:	10 40 01 08 	ld32	r8,r8
     528:	0d 42 3a 1c 	wl16	r16,0x11dc
     52c:	0d 60 02 03 	wh16	r16,0x3
     530:	10 40 02 10 	ld32	r16,r16
     534:	0d 44 69 3c 	wl16	r9,0x235c
     538:	0d 60 01 23 	wh16	r9,0x3
     53c:	10 40 01 29 	ld32	r9,r9
     540:	00 00 01 10 	add	r8,r16
     544:	20 70 03 e2 	movepc	rret,8
     548:	14 30 fe b2 	br	10 <compare>,#al
     54c:	00 10 00 41 	add	r2,1
     550:	0d 40 0d 00 	wl16	r8,0x60
     554:	0d 60 01 03 	wh16	r8,0x3
     558:	10 40 01 08 	ld32	r8,r8
     55c:	0d 42 3e 00 	wl16	r16,0x11e0
     560:	0d 60 02 03 	wh16	r16,0x3
     564:	10 40 02 10 	ld32	r16,r16
     568:	0d 44 6d 20 	wl16	r9,0x2360
     56c:	0d 60 01 23 	wh16	r9,0x3
     570:	10 40 01 29 	ld32	r9,r9
     574:	00 00 01 10 	add	r8,r16
     578:	20 70 03 e2 	movepc	rret,8
     57c:	14 30 fe a5 	br	10 <compare>,#al
     580:	00 10 00 41 	add	r2,1
     584:	0d 40 0d 04 	wl16	r8,0x64
     588:	0d 60 01 03 	wh16	r8,0x3
     58c:	10 40 01 08 	ld32	r8,r8
     590:	0d 42 3e 04 	wl16	r16,0x11e4
     594:	0d 60 02 03 	wh16	r16,0x3
     598:	10 40 02 10 	ld32	r16,r16
     59c:	0d 44 6d 24 	wl16	r9,0x2364
     5a0:	0d 60 01 23 	wh16	r9,0x3
     5a4:	10 40 01 29 	ld32	r9,r9
     5a8:	00 00 01 10 	add	r8,r16
     5ac:	20 70 03 e2 	movepc	rret,8
     5b0:	14 30 fe 98 	br	10 <compare>,#al
     5b4:	00 10 00 41 	add	r2,1
     5b8:	0d 40 0d 08 	wl16	r8,0x68
     5bc:	0d 60 01 03 	wh16	r8,0x3
     5c0:	10 40 01 08 	ld32	r8,r8
     5c4:	0d 42 3e 08 	wl16	r16,0x11e8
     5c8:	0d 60 02 03 	wh16	r16,0x3
     5cc:	10 40 02 10 	ld32	r16,r16
     5d0:	0d 44 6d 28 	wl16	r9,0x2368
     5d4:	0d 60 01 23 	wh16	r9,0x3
     5d8:	10 40 01 29 	ld32	r9,r9
     5dc:	00 00 01 10 	add	r8,r16
     5e0:	20 70 03 e2 	movepc	rret,8
     5e4:	14 30 fe 8b 	br	10 <compare>,#al
     5e8:	00 10 00 41 	add	r2,1
     5ec:	0d 40 0d 0c 	wl16	r8,0x6c
     5f0:	0d 60 01 03 	wh16	r8,0x3
     5f4:	10 40 01 08 	ld32	r8,r8
     5f8:	0d 42 3e 0c 	wl16	r16,0x11ec
     5fc:	0d 60 02 03 	wh16	r16,0x3
     600:	10 40 02 10 	ld32	r16,r16
     604:	0d 44 6d 2c 	wl16	r9,0x236c
     608:	0d 60 01 23 	wh16	r9,0x3
     60c:	10 40 01 29 	ld32	r9,r9
     610:	00 00 01 10 	add	r8,r16
     614:	20 70 03 e2 	movepc	rret,8
     618:	14 30 fe 7e 	br	10 <compare>,#al
     61c:	00 10 00 41 	add	r2,1
     620:	0d 40 0d 10 	wl16	r8,0x70
     624:	0d 60 01 03 	wh16	r8,0x3
     628:	10 40 01 08 	ld32	r8,r8
     62c:	0d 42 3e 10 	wl16	r16,0x11f0
     630:	0d 60 02 03 	wh16	r16,0x3
     634:	10 40 02 10 	ld32	r16,r16
     638:	0d 44 6d 30 	wl16	r9,0x2370
     63c:	0d 60 01 23 	wh16	r9,0x3
     640:	10 40 01 29 	ld32	r9,r9
     644:	00 00 01 10 	add	r8,r16
     648:	20 70 03 e2 	movepc	rret,8
     64c:	14 30 fe 71 	br	10 <compare>,#al
     650:	00 10 00 41 	add	r2,1
     654:	0d 40 0d 14 	wl16	r8,0x74
     658:	0d 60 01 03 	wh16	r8,0x3
     65c:	10 40 01 08 	ld32	r8,r8
     660:	0d 42 3e 14 	wl16	r16,0x11f4
     664:	0d 60 02 03 	wh16	r16,0x3
     668:	10 40 02 10 	ld32	r16,r16
     66c:	0d 44 6d 34 	wl16	r9,0x2374
     670:	0d 60 01 23 	wh16	r9,0x3
     674:	10 40 01 29 	ld32	r9,r9
     678:	00 00 01 10 	add	r8,r16
     67c:	20 70 03 e2 	movepc	rret,8
     680:	14 30 fe 64 	br	10 <compare>,#al
     684:	00 10 00 41 	add	r2,1
     688:	0d 40 0d 18 	wl16	r8,0x78
     68c:	0d 60 01 03 	wh16	r8,0x3
     690:	10 40 01 08 	ld32	r8,r8
     694:	0d 42 3e 18 	wl16	r16,0x11f8
     698:	0d 60 02 03 	wh16	r16,0x3
     69c:	10 40 02 10 	ld32	r16,r16
     6a0:	0d 44 6d 38 	wl16	r9,0x2378
     6a4:	0d 60 01 23 	wh16	r9,0x3
     6a8:	10 40 01 29 	ld32	r9,r9
     6ac:	00 00 01 10 	add	r8,r16
     6b0:	20 70 03 e2 	movepc	rret,8
     6b4:	14 30 fe 57 	br	10 <compare>,#al
     6b8:	00 10 00 41 	add	r2,1
     6bc:	0d 40 0d 1c 	wl16	r8,0x7c
     6c0:	0d 60 01 03 	wh16	r8,0x3
     6c4:	10 40 01 08 	ld32	r8,r8
     6c8:	0d 42 3e 1c 	wl16	r16,0x11fc
     6cc:	0d 60 02 03 	wh16	r16,0x3
     6d0:	10 40 02 10 	ld32	r16,r16
     6d4:	0d 44 6d 3c 	wl16	r9,0x237c
     6d8:	0d 60 01 23 	wh16	r9,0x3
     6dc:	10 40 01 29 	ld32	r9,r9
     6e0:	00 00 01 10 	add	r8,r16
     6e4:	20 70 03 e2 	movepc	rret,8
     6e8:	14 30 fe 4a 	br	10 <compare>,#al
     6ec:	00 10 00 41 	add	r2,1
     6f0:	0d 40 11 00 	wl16	r8,0x80
     6f4:	0d 60 01 03 	wh16	r8,0x3
     6f8:	10 40 01 08 	ld32	r8,r8
     6fc:	0d 42 42 00 	wl16	r16,0x1200
     700:	0d 60 02 03 	wh16	r16,0x3
     704:	10 40 02 10 	ld32	r16,r16
     708:	0d 44 71 20 	wl16	r9,0x2380
     70c:	0d 60 01 23 	wh16	r9,0x3
     710:	10 40 01 29 	ld32	r9,r9
     714:	00 00 01 10 	add	r8,r16
     718:	20 70 03 e2 	movepc	rret,8
     71c:	14 30 fe 3d 	br	10 <compare>,#al
     720:	00 10 00 41 	add	r2,1
     724:	0d 40 11 04 	wl16	r8,0x84
     728:	0d 60 01 03 	wh16	r8,0x3
     72c:	10 40 01 08 	ld32	r8,r8
     730:	0d 42 42 04 	wl16	r16,0x1204
     734:	0d 60 02 03 	wh16	r16,0x3
     738:	10 40 02 10 	ld32	r16,r16
     73c:	0d 44 71 24 	wl16	r9,0x2384
     740:	0d 60 01 23 	wh16	r9,0x3
     744:	10 40 01 29 	ld32	r9,r9
     748:	00 00 01 10 	add	r8,r16
     74c:	20 70 03 e2 	movepc	rret,8
     750:	14 30 fe 30 	br	10 <compare>,#al
     754:	00 10 00 41 	add	r2,1
     758:	0d 40 11 08 	wl16	r8,0x88
     75c:	0d 60 01 03 	wh16	r8,0x3
     760:	10 40 01 08 	ld32	r8,r8
     764:	0d 42 42 08 	wl16	r16,0x1208
     768:	0d 60 02 03 	wh16	r16,0x3
     76c:	10 40 02 10 	ld32	r16,r16
     770:	0d 44 71 28 	wl16	r9,0x2388
     774:	0d 60 01 23 	wh16	r9,0x3
     778:	10 40 01 29 	ld32	r9,r9
     77c:	00 00 01 10 	add	r8,r16
     780:	20 70 03 e2 	movepc	rret,8
     784:	14 30 fe 23 	br	10 <compare>,#al
     788:	00 10 00 41 	add	r2,1
     78c:	0d 40 11 0c 	wl16	r8,0x8c
     790:	0d 60 01 03 	wh16	r8,0x3
     794:	10 40 01 08 	ld32	r8,r8
     798:	0d 42 42 0c 	wl16	r16,0x120c
     79c:	0d 60 02 03 	wh16	r16,0x3
     7a0:	10 40 02 10 	ld32	r16,r16
     7a4:	0d 44 71 2c 	wl16	r9,0x238c
     7a8:	0d 60 01 23 	wh16	r9,0x3
     7ac:	10 40 01 29 	ld32	r9,r9
     7b0:	00 00 01 10 	add	r8,r16
     7b4:	20 70 03 e2 	movepc	rret,8
     7b8:	14 30 fe 16 	br	10 <compare>,#al
     7bc:	00 10 00 41 	add	r2,1
     7c0:	0d 40 11 10 	wl16	r8,0x90
     7c4:	0d 60 01 03 	wh16	r8,0x3
     7c8:	10 40 01 08 	ld32	r8,r8
     7cc:	0d 42 42 10 	wl16	r16,0x1210
     7d0:	0d 60 02 03 	wh16	r16,0x3
     7d4:	10 40 02 10 	ld32	r16,r16
     7d8:	0d 44 71 30 	wl16	r9,0x2390
     7dc:	0d 60 01 23 	wh16	r9,0x3
     7e0:	10 40 01 29 	ld32	r9,r9
     7e4:	00 00 01 10 	add	r8,r16
     7e8:	20 70 03 e2 	movepc	rret,8
     7ec:	14 30 fe 09 	br	10 <compare>,#al
     7f0:	00 10 00 41 	add	r2,1
     7f4:	0d 40 11 14 	wl16	r8,0x94
     7f8:	0d 60 01 03 	wh16	r8,0x3
     7fc:	10 40 01 08 	ld32	r8,r8
     800:	0d 42 42 14 	wl16	r16,0x1214
     804:	0d 60 02 03 	wh16	r16,0x3
     808:	10 40 02 10 	ld32	r16,r16
     80c:	0d 44 71 34 	wl16	r9,0x2394
     810:	0d 60 01 23 	wh16	r9,0x3
     814:	10 40 01 29 	ld32	r9,r9
     818:	00 00 01 10 	add	r8,r16
     81c:	20 70 03 e2 	movepc	rret,8
     820:	14 30 fd fc 	br	10 <compare>,#al
     824:	00 10 00 41 	add	r2,1
     828:	0d 40 11 18 	wl16	r8,0x98
     82c:	0d 60 01 03 	wh16	r8,0x3
     830:	10 40 01 08 	ld32	r8,r8
     834:	0d 42 42 18 	wl16	r16,0x1218
     838:	0d 60 02 03 	wh16	r16,0x3
     83c:	10 40 02 10 	ld32	r16,r16
     840:	0d 44 71 38 	wl16	r9,0x2398
     844:	0d 60 01 23 	wh16	r9,0x3
     848:	10 40 01 29 	ld32	r9,r9
     84c:	00 00 01 10 	add	r8,r16
     850:	20 70 03 e2 	movepc	rret,8
     854:	14 30 fd ef 	br	10 <compare>,#al
     858:	00 10 00 41 	add	r2,1
     85c:	0d 40 11 1c 	wl16	r8,0x9c
     860:	0d 60 01 03 	wh16	r8,0x3
     864:	10 40 01 08 	ld32	r8,r8
     868:	0d 42 42 1c 	wl16	r16,0x121c
     86c:	0d 60 02 03 	wh16	r16,0x3
     870:	10 40 02 10 	ld32	r16,r16
     874:	0d 44 71 3c 	wl16	r9,0x239c
     878:	0d 60 01 23 	wh16	r9,0x3
     87c:	10 40 01 29 	ld32	r9,r9
     880:	00 00 01 10 	add	r8,r16
     884:	20 70 03 e2 	movepc	rret,8
     888:	14 30 fd e2 	br	10 <compare>,#al
     88c:	00 10 00 41 	add	r2,1
     890:	0d 40 15 00 	wl16	r8,0xa0
     894:	0d 60 01 03 	wh16	r8,0x3
     898:	10 40 01 08 	ld32	r8,r8
     89c:	0d 42 46 00 	wl16	r16,0x1220
     8a0:	0d 60 02 03 	wh16	r16,0x3
     8a4:	10 40 02 10 	ld32	r16,r16
     8a8:	0d 44 75 20 	wl16	r9,0x23a0
     8ac:	0d 60 01 23 	wh16	r9,0x3
     8b0:	10 40 01 29 	ld32	r9,r9
     8b4:	00 00 01 10 	add	r8,r16
     8b8:	20 70 03 e2 	movepc	rret,8
     8bc:	14 30 fd d5 	br	10 <compare>,#al
     8c0:	00 10 00 41 	add	r2,1
     8c4:	0d 40 15 04 	wl16	r8,0xa4
     8c8:	0d 60 01 03 	wh16	r8,0x3
     8cc:	10 40 01 08 	ld32	r8,r8
     8d0:	0d 42 46 04 	wl16	r16,0x1224
     8d4:	0d 60 02 03 	wh16	r16,0x3
     8d8:	10 40 02 10 	ld32	r16,r16
     8dc:	0d 44 75 24 	wl16	r9,0x23a4
     8e0:	0d 60 01 23 	wh16	r9,0x3
     8e4:	10 40 01 29 	ld32	r9,r9
     8e8:	00 00 01 10 	add	r8,r16
     8ec:	20 70 03 e2 	movepc	rret,8
     8f0:	14 30 fd c8 	br	10 <compare>,#al
     8f4:	00 10 00 41 	add	r2,1
     8f8:	0d 40 15 08 	wl16	r8,0xa8
     8fc:	0d 60 01 03 	wh16	r8,0x3
     900:	10 40 01 08 	ld32	r8,r8
     904:	0d 42 46 08 	wl16	r16,0x1228
     908:	0d 60 02 03 	wh16	r16,0x3
     90c:	10 40 02 10 	ld32	r16,r16
     910:	0d 44 75 28 	wl16	r9,0x23a8
     914:	0d 60 01 23 	wh16	r9,0x3
     918:	10 40 01 29 	ld32	r9,r9
     91c:	00 00 01 10 	add	r8,r16
     920:	20 70 03 e2 	movepc	rret,8
     924:	14 30 fd bb 	br	10 <compare>,#al
     928:	00 10 00 41 	add	r2,1
     92c:	0d 40 15 0c 	wl16	r8,0xac
     930:	0d 60 01 03 	wh16	r8,0x3
     934:	10 40 01 08 	ld32	r8,r8
     938:	0d 42 46 0c 	wl16	r16,0x122c
     93c:	0d 60 02 03 	wh16	r16,0x3
     940:	10 40 02 10 	ld32	r16,r16
     944:	0d 44 75 2c 	wl16	r9,0x23ac
     948:	0d 60 01 23 	wh16	r9,0x3
     94c:	10 40 01 29 	ld32	r9,r9
     950:	00 00 01 10 	add	r8,r16
     954:	20 70 03 e2 	movepc	rret,8
     958:	14 30 fd ae 	br	10 <compare>,#al
     95c:	00 10 00 41 	add	r2,1
     960:	0d 40 15 10 	wl16	r8,0xb0
     964:	0d 60 01 03 	wh16	r8,0x3
     968:	10 40 01 08 	ld32	r8,r8
     96c:	0d 42 46 10 	wl16	r16,0x1230
     970:	0d 60 02 03 	wh16	r16,0x3
     974:	10 40 02 10 	ld32	r16,r16
     978:	0d 44 75 30 	wl16	r9,0x23b0
     97c:	0d 60 01 23 	wh16	r9,0x3
     980:	10 40 01 29 	ld32	r9,r9
     984:	00 00 01 10 	add	r8,r16
     988:	20 70 03 e2 	movepc	rret,8
     98c:	14 30 fd a1 	br	10 <compare>,#al
     990:	00 10 00 41 	add	r2,1
     994:	0d 40 15 14 	wl16	r8,0xb4
     998:	0d 60 01 03 	wh16	r8,0x3
     99c:	10 40 01 08 	ld32	r8,r8
     9a0:	0d 42 46 14 	wl16	r16,0x1234
     9a4:	0d 60 02 03 	wh16	r16,0x3
     9a8:	10 40 02 10 	ld32	r16,r16
     9ac:	0d 44 75 34 	wl16	r9,0x23b4
     9b0:	0d 60 01 23 	wh16	r9,0x3
     9b4:	10 40 01 29 	ld32	r9,r9
     9b8:	00 00 01 10 	add	r8,r16
     9bc:	20 70 03 e2 	movepc	rret,8
     9c0:	14 30 fd 94 	br	10 <compare>,#al
     9c4:	00 10 00 41 	add	r2,1
     9c8:	0d 40 15 18 	wl16	r8,0xb8
     9cc:	0d 60 01 03 	wh16	r8,0x3
     9d0:	10 40 01 08 	ld32	r8,r8
     9d4:	0d 42 46 18 	wl16	r16,0x1238
     9d8:	0d 60 02 03 	wh16	r16,0x3
     9dc:	10 40 02 10 	ld32	r16,r16
     9e0:	0d 44 75 38 	wl16	r9,0x23b8
     9e4:	0d 60 01 23 	wh16	r9,0x3
     9e8:	10 40 01 29 	ld32	r9,r9
     9ec:	00 00 01 10 	add	r8,r16
     9f0:	20 70 03 e2 	movepc	rret,8
     9f4:	14 30 fd 87 	br	10 <compare>,#al
     9f8:	00 10 00 41 	add	r2,1
     9fc:	0d 40 15 1c 	wl16	r8,0xbc
     a00:	0d 60 01 03 	wh16	r8,0x3
     a04:	10 40 01 08 	ld32	r8,r8
     a08:	0d 42 46 1c 	wl16	r16,0x123c
     a0c:	0d 60 02 03 	wh16	r16,0x3
     a10:	10 40 02 10 	ld32	r16,r16
     a14:	0d 44 75 3c 	wl16	r9,0x23bc
     a18:	0d 60 01 23 	wh16	r9,0x3
     a1c:	10 40 01 29 	ld32	r9,r9
     a20:	00 00 01 10 	add	r8,r16
     a24:	20 70 03 e2 	movepc	rret,8
     a28:	14 30 fd 7a 	br	10 <compare>,#al
     a2c:	00 10 00 41 	add	r2,1
     a30:	0d 40 19 00 	wl16	r8,0xc0
     a34:	0d 60 01 03 	wh16	r8,0x3
     a38:	10 40 01 08 	ld32	r8,r8
     a3c:	0d 42 4a 00 	wl16	r16,0x1240
     a40:	0d 60 02 03 	wh16	r16,0x3
     a44:	10 40 02 10 	ld32	r16,r16
     a48:	0d 44 79 20 	wl16	r9,0x23c0
     a4c:	0d 60 01 23 	wh16	r9,0x3
     a50:	10 40 01 29 	ld32	r9,r9
     a54:	00 00 01 10 	add	r8,r16
     a58:	20 70 03 e2 	movepc	rret,8
     a5c:	14 30 fd 6d 	br	10 <compare>,#al
     a60:	00 10 00 41 	add	r2,1
     a64:	0d 40 19 04 	wl16	r8,0xc4
     a68:	0d 60 01 03 	wh16	r8,0x3
     a6c:	10 40 01 08 	ld32	r8,r8
     a70:	0d 42 4a 04 	wl16	r16,0x1244
     a74:	0d 60 02 03 	wh16	r16,0x3
     a78:	10 40 02 10 	ld32	r16,r16
     a7c:	0d 44 79 24 	wl16	r9,0x23c4
     a80:	0d 60 01 23 	wh16	r9,0x3
     a84:	10 40 01 29 	ld32	r9,r9
     a88:	00 00 01 10 	add	r8,r16
     a8c:	20 70 03 e2 	movepc	rret,8
     a90:	14 30 fd 60 	br	10 <compare>,#al
     a94:	00 10 00 41 	add	r2,1
     a98:	0d 40 19 08 	wl16	r8,0xc8
     a9c:	0d 60 01 03 	wh16	r8,0x3
     aa0:	10 40 01 08 	ld32	r8,r8
     aa4:	0d 42 4a 08 	wl16	r16,0x1248
     aa8:	0d 60 02 03 	wh16	r16,0x3
     aac:	10 40 02 10 	ld32	r16,r16
     ab0:	0d 44 79 28 	wl16	r9,0x23c8
     ab4:	0d 60 01 23 	wh16	r9,0x3
     ab8:	10 40 01 29 	ld32	r9,r9
     abc:	00 00 01 10 	add	r8,r16
     ac0:	20 70 03 e2 	movepc	rret,8
     ac4:	14 30 fd 53 	br	10 <compare>,#al
     ac8:	00 10 00 41 	add	r2,1
     acc:	0d 40 19 0c 	wl16	r8,0xcc
     ad0:	0d 60 01 03 	wh16	r8,0x3
     ad4:	10 40 01 08 	ld32	r8,r8
     ad8:	0d 42 4a 0c 	wl16	r16,0x124c
     adc:	0d 60 02 03 	wh16	r16,0x3
     ae0:	10 40 02 10 	ld32	r16,r16
     ae4:	0d 44 79 2c 	wl16	r9,0x23cc
     ae8:	0d 60 01 23 	wh16	r9,0x3
     aec:	10 40 01 29 	ld32	r9,r9
     af0:	00 00 01 10 	add	r8,r16
     af4:	20 70 03 e2 	movepc	rret,8
     af8:	14 30 fd 46 	br	10 <compare>,#al
     afc:	00 10 00 41 	add	r2,1
     b00:	0d 40 19 10 	wl16	r8,0xd0
     b04:	0d 60 01 03 	wh16	r8,0x3
     b08:	10 40 01 08 	ld32	r8,r8
     b0c:	0d 42 4a 10 	wl16	r16,0x1250
     b10:	0d 60 02 03 	wh16	r16,0x3
     b14:	10 40 02 10 	ld32	r16,r16
     b18:	0d 44 79 30 	wl16	r9,0x23d0
     b1c:	0d 60 01 23 	wh16	r9,0x3
     b20:	10 40 01 29 	ld32	r9,r9
     b24:	00 00 01 10 	add	r8,r16
     b28:	20 70 03 e2 	movepc	rret,8
     b2c:	14 30 fd 39 	br	10 <compare>,#al
     b30:	00 10 00 41 	add	r2,1
     b34:	0d 40 19 14 	wl16	r8,0xd4
     b38:	0d 60 01 03 	wh16	r8,0x3
     b3c:	10 40 01 08 	ld32	r8,r8
     b40:	0d 42 4a 14 	wl16	r16,0x1254
     b44:	0d 60 02 03 	wh16	r16,0x3
     b48:	10 40 02 10 	ld32	r16,r16
     b4c:	0d 44 79 34 	wl16	r9,0x23d4
     b50:	0d 60 01 23 	wh16	r9,0x3
     b54:	10 40 01 29 	ld32	r9,r9
     b58:	00 00 01 10 	add	r8,r16
     b5c:	20 70 03 e2 	movepc	rret,8
     b60:	14 30 fd 2c 	br	10 <compare>,#al
     b64:	00 10 00 41 	add	r2,1
     b68:	0d 40 19 18 	wl16	r8,0xd8
     b6c:	0d 60 01 03 	wh16	r8,0x3
     b70:	10 40 01 08 	ld32	r8,r8
     b74:	0d 42 4a 18 	wl16	r16,0x1258
     b78:	0d 60 02 03 	wh16	r16,0x3
     b7c:	10 40 02 10 	ld32	r16,r16
     b80:	0d 44 79 38 	wl16	r9,0x23d8
     b84:	0d 60 01 23 	wh16	r9,0x3
     b88:	10 40 01 29 	ld32	r9,r9
     b8c:	00 00 01 10 	add	r8,r16
     b90:	20 70 03 e2 	movepc	rret,8
     b94:	14 30 fd 1f 	br	10 <compare>,#al
     b98:	00 10 00 41 	add	r2,1
     b9c:	0d 40 19 1c 	wl16	r8,0xdc
     ba0:	0d 60 01 03 	wh16	r8,0x3
     ba4:	10 40 01 08 	ld32	r8,r8
     ba8:	0d 42 4a 1c 	wl16	r16,0x125c
     bac:	0d 60 02 03 	wh16	r16,0x3
     bb0:	10 40 02 10 	ld32	r16,r16
     bb4:	0d 44 79 3c 	wl16	r9,0x23dc
     bb8:	0d 60 01 23 	wh16	r9,0x3
     bbc:	10 40 01 29 	ld32	r9,r9
     bc0:	00 00 01 10 	add	r8,r16
     bc4:	20 70 03 e2 	movepc	rret,8
     bc8:	14 30 fd 12 	br	10 <compare>,#al
     bcc:	00 10 00 41 	add	r2,1
     bd0:	0d 40 1d 00 	wl16	r8,0xe0
     bd4:	0d 60 01 03 	wh16	r8,0x3
     bd8:	10 40 01 08 	ld32	r8,r8
     bdc:	0d 42 4e 00 	wl16	r16,0x1260
     be0:	0d 60 02 03 	wh16	r16,0x3
     be4:	10 40 02 10 	ld32	r16,r16
     be8:	0d 44 7d 20 	wl16	r9,0x23e0
     bec:	0d 60 01 23 	wh16	r9,0x3
     bf0:	10 40 01 29 	ld32	r9,r9
     bf4:	00 00 01 10 	add	r8,r16
     bf8:	20 70 03 e2 	movepc	rret,8
     bfc:	14 30 fd 05 	br	10 <compare>,#al
     c00:	00 10 00 41 	add	r2,1
     c04:	0d 40 1d 04 	wl16	r8,0xe4
     c08:	0d 60 01 03 	wh16	r8,0x3
     c0c:	10 40 01 08 	ld32	r8,r8
     c10:	0d 42 4e 04 	wl16	r16,0x1264
     c14:	0d 60 02 03 	wh16	r16,0x3
     c18:	10 40 02 10 	ld32	r16,r16
     c1c:	0d 44 7d 24 	wl16	r9,0x23e4
     c20:	0d 60 01 23 	wh16	r9,0x3
     c24:	10 40 01 29 	ld32	r9,r9
     c28:	00 00 01 10 	add	r8,r16
     c2c:	20 70 03 e2 	movepc	rret,8
     c30:	14 30 fc f8 	br	10 <compare>,#al
     c34:	00 10 00 41 	add	r2,1
     c38:	0d 40 1d 08 	wl16	r8,0xe8
     c3c:	0d 60 01 03 	wh16	r8,0x3
     c40:	10 40 01 08 	ld32	r8,r8
     c44:	0d 42 4e 08 	wl16	r16,0x1268
     c48:	0d 60 02 03 	wh16	r16,0x3
     c4c:	10 40 02 10 	ld32	r16,r16
     c50:	0d 44 7d 28 	wl16	r9,0x23e8
     c54:	0d 60 01 23 	wh16	r9,0x3
     c58:	10 40 01 29 	ld32	r9,r9
     c5c:	00 00 01 10 	add	r8,r16
     c60:	20 70 03 e2 	movepc	rret,8
     c64:	14 30 fc eb 	br	10 <compare>,#al
     c68:	00 10 00 41 	add	r2,1
     c6c:	0d 40 1d 0c 	wl16	r8,0xec
     c70:	0d 60 01 03 	wh16	r8,0x3
     c74:	10 40 01 08 	ld32	r8,r8
     c78:	0d 42 4e 0c 	wl16	r16,0x126c
     c7c:	0d 60 02 03 	wh16	r16,0x3
     c80:	10 40 02 10 	ld32	r16,r16
     c84:	0d 44 7d 2c 	wl16	r9,0x23ec
     c88:	0d 60 01 23 	wh16	r9,0x3
     c8c:	10 40 01 29 	ld32	r9,r9
     c90:	00 00 01 10 	add	r8,r16
     c94:	20 70 03 e2 	movepc	rret,8
     c98:	14 30 fc de 	br	10 <compare>,#al
     c9c:	00 10 00 41 	add	r2,1
     ca0:	0d 40 1d 10 	wl16	r8,0xf0
     ca4:	0d 60 01 03 	wh16	r8,0x3
     ca8:	10 40 01 08 	ld32	r8,r8
     cac:	0d 42 4e 10 	wl16	r16,0x1270
     cb0:	0d 60 02 03 	wh16	r16,0x3
     cb4:	10 40 02 10 	ld32	r16,r16
     cb8:	0d 44 7d 30 	wl16	r9,0x23f0
     cbc:	0d 60 01 23 	wh16	r9,0x3
     cc0:	10 40 01 29 	ld32	r9,r9
     cc4:	00 00 01 10 	add	r8,r16
     cc8:	20 70 03 e2 	movepc	rret,8
     ccc:	14 30 fc d1 	br	10 <compare>,#al
     cd0:	00 10 00 41 	add	r2,1
     cd4:	0d 40 1d 14 	wl16	r8,0xf4
     cd8:	0d 60 01 03 	wh16	r8,0x3
     cdc:	10 40 01 08 	ld32	r8,r8
     ce0:	0d 42 4e 14 	wl16	r16,0x1274
     ce4:	0d 60 02 03 	wh16	r16,0x3
     ce8:	10 40 02 10 	ld32	r16,r16
     cec:	0d 44 7d 34 	wl16	r9,0x23f4
     cf0:	0d 60 01 23 	wh16	r9,0x3
     cf4:	10 40 01 29 	ld32	r9,r9
     cf8:	00 00 01 10 	add	r8,r16
     cfc:	20 70 03 e2 	movepc	rret,8
     d00:	14 30 fc c4 	br	10 <compare>,#al
     d04:	00 10 00 41 	add	r2,1
     d08:	0d 40 1d 18 	wl16	r8,0xf8
     d0c:	0d 60 01 03 	wh16	r8,0x3
     d10:	10 40 01 08 	ld32	r8,r8
     d14:	0d 42 4e 18 	wl16	r16,0x1278
     d18:	0d 60 02 03 	wh16	r16,0x3
     d1c:	10 40 02 10 	ld32	r16,r16
     d20:	0d 44 7d 38 	wl16	r9,0x23f8
     d24:	0d 60 01 23 	wh16	r9,0x3
     d28:	10 40 01 29 	ld32	r9,r9
     d2c:	00 00 01 10 	add	r8,r16
     d30:	20 70 03 e2 	movepc	rret,8
     d34:	14 30 fc b7 	br	10 <compare>,#al
     d38:	00 10 00 41 	add	r2,1
     d3c:	0d 40 1d 1c 	wl16	r8,0xfc
     d40:	0d 60 01 03 	wh16	r8,0x3
     d44:	10 40 01 08 	ld32	r8,r8
     d48:	0d 42 4e 1c 	wl16	r16,0x127c
     d4c:	0d 60 02 03 	wh16	r16,0x3
     d50:	10 40 02 10 	ld32	r16,r16
     d54:	0d 44 7d 3c 	wl16	r9,0x23fc
     d58:	0d 60 01 23 	wh16	r9,0x3
     d5c:	10 40 01 29 	ld32	r9,r9
     d60:	00 00 01 10 	add	r8,r16
     d64:	20 70 03 e2 	movepc	rret,8
     d68:	14 30 fc aa 	br	10 <compare>,#al
     d6c:	00 10 00 41 	add	r2,1
     d70:	0d 40 21 00 	wl16	r8,0x100
     d74:	0d 60 01 03 	wh16	r8,0x3
     d78:	10 40 01 08 	ld32	r8,r8
     d7c:	0d 42 52 00 	wl16	r16,0x1280
     d80:	0d 60 02 03 	wh16	r16,0x3
     d84:	10 40 02 10 	ld32	r16,r16
     d88:	0d 44 81 20 	wl16	r9,0x2400
     d8c:	0d 60 01 23 	wh16	r9,0x3
     d90:	10 40 01 29 	ld32	r9,r9
     d94:	00 00 01 10 	add	r8,r16
     d98:	20 70 03 e2 	movepc	rret,8
     d9c:	14 30 fc 9d 	br	10 <compare>,#al
     da0:	00 10 00 41 	add	r2,1
     da4:	0d 40 21 04 	wl16	r8,0x104
     da8:	0d 60 01 03 	wh16	r8,0x3
     dac:	10 40 01 08 	ld32	r8,r8
     db0:	0d 42 52 04 	wl16	r16,0x1284
     db4:	0d 60 02 03 	wh16	r16,0x3
     db8:	10 40 02 10 	ld32	r16,r16
     dbc:	0d 44 81 24 	wl16	r9,0x2404
     dc0:	0d 60 01 23 	wh16	r9,0x3
     dc4:	10 40 01 29 	ld32	r9,r9
     dc8:	00 00 01 10 	add	r8,r16
     dcc:	20 70 03 e2 	movepc	rret,8
     dd0:	14 30 fc 90 	br	10 <compare>,#al
     dd4:	00 10 00 41 	add	r2,1
     dd8:	0d 40 21 08 	wl16	r8,0x108
     ddc:	0d 60 01 03 	wh16	r8,0x3
     de0:	10 40 01 08 	ld32	r8,r8
     de4:	0d 42 52 08 	wl16	r16,0x1288
     de8:	0d 60 02 03 	wh16	r16,0x3
     dec:	10 40 02 10 	ld32	r16,r16
     df0:	0d 44 81 28 	wl16	r9,0x2408
     df4:	0d 60 01 23 	wh16	r9,0x3
     df8:	10 40 01 29 	ld32	r9,r9
     dfc:	00 00 01 10 	add	r8,r16
     e00:	20 70 03 e2 	movepc	rret,8
     e04:	14 30 fc 83 	br	10 <compare>,#al
     e08:	00 10 00 41 	add	r2,1
     e0c:	0d 40 21 0c 	wl16	r8,0x10c
     e10:	0d 60 01 03 	wh16	r8,0x3
     e14:	10 40 01 08 	ld32	r8,r8
     e18:	0d 42 52 0c 	wl16	r16,0x128c
     e1c:	0d 60 02 03 	wh16	r16,0x3
     e20:	10 40 02 10 	ld32	r16,r16
     e24:	0d 44 81 2c 	wl16	r9,0x240c
     e28:	0d 60 01 23 	wh16	r9,0x3
     e2c:	10 40 01 29 	ld32	r9,r9
     e30:	00 00 01 10 	add	r8,r16
     e34:	20 70 03 e2 	movepc	rret,8
     e38:	14 30 fc 76 	br	10 <compare>,#al
     e3c:	00 10 00 41 	add	r2,1
     e40:	0d 40 21 10 	wl16	r8,0x110
     e44:	0d 60 01 03 	wh16	r8,0x3
     e48:	10 40 01 08 	ld32	r8,r8
     e4c:	0d 42 52 10 	wl16	r16,0x1290
     e50:	0d 60 02 03 	wh16	r16,0x3
     e54:	10 40 02 10 	ld32	r16,r16
     e58:	0d 44 81 30 	wl16	r9,0x2410
     e5c:	0d 60 01 23 	wh16	r9,0x3
     e60:	10 40 01 29 	ld32	r9,r9
     e64:	00 00 01 10 	add	r8,r16
     e68:	20 70 03 e2 	movepc	rret,8
     e6c:	14 30 fc 69 	br	10 <compare>,#al
     e70:	00 10 00 41 	add	r2,1
     e74:	0d 40 21 14 	wl16	r8,0x114
     e78:	0d 60 01 03 	wh16	r8,0x3
     e7c:	10 40 01 08 	ld32	r8,r8
     e80:	0d 42 52 14 	wl16	r16,0x1294
     e84:	0d 60 02 03 	wh16	r16,0x3
     e88:	10 40 02 10 	ld32	r16,r16
     e8c:	0d 44 81 34 	wl16	r9,0x2414
     e90:	0d 60 01 23 	wh16	r9,0x3
     e94:	10 40 01 29 	ld32	r9,r9
     e98:	00 00 01 10 	add	r8,r16
     e9c:	20 70 03 e2 	movepc	rret,8
     ea0:	14 30 fc 5c 	br	10 <compare>,#al
     ea4:	00 10 00 41 	add	r2,1
     ea8:	0d 40 21 18 	wl16	r8,0x118
     eac:	0d 60 01 03 	wh16	r8,0x3
     eb0:	10 40 01 08 	ld32	r8,r8
     eb4:	0d 42 52 18 	wl16	r16,0x1298
     eb8:	0d 60 02 03 	wh16	r16,0x3
     ebc:	10 40 02 10 	ld32	r16,r16
     ec0:	0d 44 81 38 	wl16	r9,0x2418
     ec4:	0d 60 01 23 	wh16	r9,0x3
     ec8:	10 40 01 29 	ld32	r9,r9
     ecc:	00 00 01 10 	add	r8,r16
     ed0:	20 70 03 e2 	movepc	rret,8
     ed4:	14 30 fc 4f 	br	10 <compare>,#al
     ed8:	00 10 00 41 	add	r2,1
     edc:	0d 40 21 1c 	wl16	r8,0x11c
     ee0:	0d 60 01 03 	wh16	r8,0x3
     ee4:	10 40 01 08 	ld32	r8,r8
     ee8:	0d 42 52 1c 	wl16	r16,0x129c
     eec:	0d 60 02 03 	wh16	r16,0x3
     ef0:	10 40 02 10 	ld32	r16,r16
     ef4:	0d 44 81 3c 	wl16	r9,0x241c
     ef8:	0d 60 01 23 	wh16	r9,0x3
     efc:	10 40 01 29 	ld32	r9,r9
     f00:	00 00 01 10 	add	r8,r16
     f04:	20 70 03 e2 	movepc	rret,8
     f08:	14 30 fc 42 	br	10 <compare>,#al
     f0c:	00 10 00 41 	add	r2,1
     f10:	0d 40 25 00 	wl16	r8,0x120
     f14:	0d 60 01 03 	wh16	r8,0x3
     f18:	10 40 01 08 	ld32	r8,r8
     f1c:	0d 42 56 00 	wl16	r16,0x12a0
     f20:	0d 60 02 03 	wh16	r16,0x3
     f24:	10 40 02 10 	ld32	r16,r16
     f28:	0d 44 85 20 	wl16	r9,0x2420
     f2c:	0d 60 01 23 	wh16	r9,0x3
     f30:	10 40 01 29 	ld32	r9,r9
     f34:	00 00 01 10 	add	r8,r16
     f38:	20 70 03 e2 	movepc	rret,8
     f3c:	14 30 fc 35 	br	10 <compare>,#al
     f40:	00 10 00 41 	add	r2,1
     f44:	0d 40 25 04 	wl16	r8,0x124
     f48:	0d 60 01 03 	wh16	r8,0x3
     f4c:	10 40 01 08 	ld32	r8,r8
     f50:	0d 42 56 04 	wl16	r16,0x12a4
     f54:	0d 60 02 03 	wh16	r16,0x3
     f58:	10 40 02 10 	ld32	r16,r16
     f5c:	0d 44 85 24 	wl16	r9,0x2424
     f60:	0d 60 01 23 	wh16	r9,0x3
     f64:	10 40 01 29 	ld32	r9,r9
     f68:	00 00 01 10 	add	r8,r16
     f6c:	20 70 03 e2 	movepc	rret,8
     f70:	14 30 fc 28 	br	10 <compare>,#al
     f74:	00 10 00 41 	add	r2,1
     f78:	0d 40 25 08 	wl16	r8,0x128
     f7c:	0d 60 01 03 	wh16	r8,0x3
     f80:	10 40 01 08 	ld32	r8,r8
     f84:	0d 42 56 08 	wl16	r16,0x12a8
     f88:	0d 60 02 03 	wh16	r16,0x3
     f8c:	10 40 02 10 	ld32	r16,r16
     f90:	0d 44 85 28 	wl16	r9,0x2428
     f94:	0d 60 01 23 	wh16	r9,0x3
     f98:	10 40 01 29 	ld32	r9,r9
     f9c:	00 00 01 10 	add	r8,r16
     fa0:	20 70 03 e2 	movepc	rret,8
     fa4:	14 30 fc 1b 	br	10 <compare>,#al
     fa8:	00 10 00 41 	add	r2,1
     fac:	0d 40 25 0c 	wl16	r8,0x12c
     fb0:	0d 60 01 03 	wh16	r8,0x3
     fb4:	10 40 01 08 	ld32	r8,r8
     fb8:	0d 42 56 0c 	wl16	r16,0x12ac
     fbc:	0d 60 02 03 	wh16	r16,0x3
     fc0:	10 40 02 10 	ld32	r16,r16
     fc4:	0d 44 85 2c 	wl16	r9,0x242c
     fc8:	0d 60 01 23 	wh16	r9,0x3
     fcc:	10 40 01 29 	ld32	r9,r9
     fd0:	00 00 01 10 	add	r8,r16
     fd4:	20 70 03 e2 	movepc	rret,8
     fd8:	14 30 fc 0e 	br	10 <compare>,#al
     fdc:	00 10 00 41 	add	r2,1
     fe0:	0d 40 25 10 	wl16	r8,0x130
     fe4:	0d 60 01 03 	wh16	r8,0x3
     fe8:	10 40 01 08 	ld32	r8,r8
     fec:	0d 42 56 10 	wl16	r16,0x12b0
     ff0:	0d 60 02 03 	wh16	r16,0x3
     ff4:	10 40 02 10 	ld32	r16,r16
     ff8:	0d 44 85 30 	wl16	r9,0x2430
     ffc:	0d 60 01 23 	wh16	r9,0x3
    1000:	10 40 01 29 	ld32	r9,r9
    1004:	00 00 01 10 	add	r8,r16
    1008:	20 70 03 e2 	movepc	rret,8
    100c:	14 30 fc 01 	br	10 <compare>,#al
    1010:	00 10 00 41 	add	r2,1
    1014:	0d 40 25 14 	wl16	r8,0x134
    1018:	0d 60 01 03 	wh16	r8,0x3
    101c:	10 40 01 08 	ld32	r8,r8
    1020:	0d 42 56 14 	wl16	r16,0x12b4
    1024:	0d 60 02 03 	wh16	r16,0x3
    1028:	10 40 02 10 	ld32	r16,r16
    102c:	0d 44 85 34 	wl16	r9,0x2434
    1030:	0d 60 01 23 	wh16	r9,0x3
    1034:	10 40 01 29 	ld32	r9,r9
    1038:	00 00 01 10 	add	r8,r16
    103c:	20 70 03 e2 	movepc	rret,8
    1040:	14 30 fb f4 	br	10 <compare>,#al
    1044:	00 10 00 41 	add	r2,1
    1048:	0d 40 25 18 	wl16	r8,0x138
    104c:	0d 60 01 03 	wh16	r8,0x3
    1050:	10 40 01 08 	ld32	r8,r8
    1054:	0d 42 56 18 	wl16	r16,0x12b8
    1058:	0d 60 02 03 	wh16	r16,0x3
    105c:	10 40 02 10 	ld32	r16,r16
    1060:	0d 44 85 38 	wl16	r9,0x2438
    1064:	0d 60 01 23 	wh16	r9,0x3
    1068:	10 40 01 29 	ld32	r9,r9
    106c:	00 00 01 10 	add	r8,r16
    1070:	20 70 03 e2 	movepc	rret,8
    1074:	14 30 fb e7 	br	10 <compare>,#al
    1078:	00 10 00 41 	add	r2,1
    107c:	0d 40 25 1c 	wl16	r8,0x13c
    1080:	0d 60 01 03 	wh16	r8,0x3
    1084:	10 40 01 08 	ld32	r8,r8
    1088:	0d 42 56 1c 	wl16	r16,0x12bc
    108c:	0d 60 02 03 	wh16	r16,0x3
    1090:	10 40 02 10 	ld32	r16,r16
    1094:	0d 44 85 3c 	wl16	r9,0x243c
    1098:	0d 60 01 23 	wh16	r9,0x3
    109c:	10 40 01 29 	ld32	r9,r9
    10a0:	00 00 01 10 	add	r8,r16
    10a4:	20 70 03 e2 	movepc	rret,8
    10a8:	14 30 fb da 	br	10 <compare>,#al
    10ac:	00 10 00 41 	add	r2,1
    10b0:	0d 40 29 00 	wl16	r8,0x140
    10b4:	0d 60 01 03 	wh16	r8,0x3
    10b8:	10 40 01 08 	ld32	r8,r8
    10bc:	0d 42 5a 00 	wl16	r16,0x12c0
    10c0:	0d 60 02 03 	wh16	r16,0x3
    10c4:	10 40 02 10 	ld32	r16,r16
    10c8:	0d 44 89 20 	wl16	r9,0x2440
    10cc:	0d 60 01 23 	wh16	r9,0x3
    10d0:	10 40 01 29 	ld32	r9,r9
    10d4:	00 00 01 10 	add	r8,r16
    10d8:	20 70 03 e2 	movepc	rret,8
    10dc:	14 30 fb cd 	br	10 <compare>,#al
    10e0:	00 10 00 41 	add	r2,1
    10e4:	0d 40 29 04 	wl16	r8,0x144
    10e8:	0d 60 01 03 	wh16	r8,0x3
    10ec:	10 40 01 08 	ld32	r8,r8
    10f0:	0d 42 5a 04 	wl16	r16,0x12c4
    10f4:	0d 60 02 03 	wh16	r16,0x3
    10f8:	10 40 02 10 	ld32	r16,r16
    10fc:	0d 44 89 24 	wl16	r9,0x2444
    1100:	0d 60 01 23 	wh16	r9,0x3
    1104:	10 40 01 29 	ld32	r9,r9
    1108:	00 00 01 10 	add	r8,r16
    110c:	20 70 03 e2 	movepc	rret,8
    1110:	14 30 fb c0 	br	10 <compare>,#al
    1114:	00 10 00 41 	add	r2,1
    1118:	0d 40 29 08 	wl16	r8,0x148
    111c:	0d 60 01 03 	wh16	r8,0x3
    1120:	10 40 01 08 	ld32	r8,r8
    1124:	0d 42 5a 08 	wl16	r16,0x12c8
    1128:	0d 60 02 03 	wh16	r16,0x3
    112c:	10 40 02 10 	ld32	r16,r16
    1130:	0d 44 89 28 	wl16	r9,0x2448
    1134:	0d 60 01 23 	wh16	r9,0x3
    1138:	10 40 01 29 	ld32	r9,r9
    113c:	00 00 01 10 	add	r8,r16
    1140:	20 70 03 e2 	movepc	rret,8
    1144:	14 30 fb b3 	br	10 <compare>,#al
    1148:	00 10 00 41 	add	r2,1
    114c:	0d 40 29 0c 	wl16	r8,0x14c
    1150:	0d 60 01 03 	wh16	r8,0x3
    1154:	10 40 01 08 	ld32	r8,r8
    1158:	0d 42 5a 0c 	wl16	r16,0x12cc
    115c:	0d 60 02 03 	wh16	r16,0x3
    1160:	10 40 02 10 	ld32	r16,r16
    1164:	0d 44 89 2c 	wl16	r9,0x244c
    1168:	0d 60 01 23 	wh16	r9,0x3
    116c:	10 40 01 29 	ld32	r9,r9
    1170:	00 00 01 10 	add	r8,r16
    1174:	20 70 03 e2 	movepc	rret,8
    1178:	14 30 fb a6 	br	10 <compare>,#al
    117c:	00 10 00 41 	add	r2,1
    1180:	0d 40 29 10 	wl16	r8,0x150
    1184:	0d 60 01 03 	wh16	r8,0x3
    1188:	10 40 01 08 	ld32	r8,r8
    118c:	0d 42 5a 10 	wl16	r16,0x12d0
    1190:	0d 60 02 03 	wh16	r16,0x3
    1194:	10 40 02 10 	ld32	r16,r16
    1198:	0d 44 89 30 	wl16	r9,0x2450
    119c:	0d 60 01 23 	wh16	r9,0x3
    11a0:	10 40 01 29 	ld32	r9,r9
    11a4:	00 00 01 10 	add	r8,r16
    11a8:	20 70 03 e2 	movepc	rret,8
    11ac:	14 30 fb 99 	br	10 <compare>,#al
    11b0:	00 10 00 41 	add	r2,1
    11b4:	0d 40 29 14 	wl16	r8,0x154
    11b8:	0d 60 01 03 	wh16	r8,0x3
    11bc:	10 40 01 08 	ld32	r8,r8
    11c0:	0d 42 5a 14 	wl16	r16,0x12d4
    11c4:	0d 60 02 03 	wh16	r16,0x3
    11c8:	10 40 02 10 	ld32	r16,r16
    11cc:	0d 44 89 34 	wl16	r9,0x2454
    11d0:	0d 60 01 23 	wh16	r9,0x3
    11d4:	10 40 01 29 	ld32	r9,r9
    11d8:	00 00 01 10 	add	r8,r16
    11dc:	20 70 03 e2 	movepc	rret,8
    11e0:	14 30 fb 8c 	br	10 <compare>,#al
    11e4:	00 10 00 41 	add	r2,1
    11e8:	0d 40 29 18 	wl16	r8,0x158
    11ec:	0d 60 01 03 	wh16	r8,0x3
    11f0:	10 40 01 08 	ld32	r8,r8
    11f4:	0d 42 5a 18 	wl16	r16,0x12d8
    11f8:	0d 60 02 03 	wh16	r16,0x3
    11fc:	10 40 02 10 	ld32	r16,r16
    1200:	0d 44 89 38 	wl16	r9,0x2458
    1204:	0d 60 01 23 	wh16	r9,0x3
    1208:	10 40 01 29 	ld32	r9,r9
    120c:	00 00 01 10 	add	r8,r16
    1210:	20 70 03 e2 	movepc	rret,8
    1214:	14 30 fb 7f 	br	10 <compare>,#al
    1218:	00 10 00 41 	add	r2,1
    121c:	0d 40 29 1c 	wl16	r8,0x15c
    1220:	0d 60 01 03 	wh16	r8,0x3
    1224:	10 40 01 08 	ld32	r8,r8
    1228:	0d 42 5a 1c 	wl16	r16,0x12dc
    122c:	0d 60 02 03 	wh16	r16,0x3
    1230:	10 40 02 10 	ld32	r16,r16
    1234:	0d 44 89 3c 	wl16	r9,0x245c
    1238:	0d 60 01 23 	wh16	r9,0x3
    123c:	10 40 01 29 	ld32	r9,r9
    1240:	00 00 01 10 	add	r8,r16
    1244:	20 70 03 e2 	movepc	rret,8
    1248:	14 30 fb 72 	br	10 <compare>,#al
    124c:	00 10 00 41 	add	r2,1
    1250:	0d 40 2d 00 	wl16	r8,0x160
    1254:	0d 60 01 03 	wh16	r8,0x3
    1258:	10 40 01 08 	ld32	r8,r8
    125c:	0d 42 5e 00 	wl16	r16,0x12e0
    1260:	0d 60 02 03 	wh16	r16,0x3
    1264:	10 40 02 10 	ld32	r16,r16
    1268:	0d 44 8d 20 	wl16	r9,0x2460
    126c:	0d 60 01 23 	wh16	r9,0x3
    1270:	10 40 01 29 	ld32	r9,r9
    1274:	00 00 01 10 	add	r8,r16
    1278:	20 70 03 e2 	movepc	rret,8
    127c:	14 30 fb 65 	br	10 <compare>,#al
    1280:	00 10 00 41 	add	r2,1
    1284:	0d 40 2d 04 	wl16	r8,0x164
    1288:	0d 60 01 03 	wh16	r8,0x3
    128c:	10 40 01 08 	ld32	r8,r8
    1290:	0d 42 5e 04 	wl16	r16,0x12e4
    1294:	0d 60 02 03 	wh16	r16,0x3
    1298:	10 40 02 10 	ld32	r16,r16
    129c:	0d 44 8d 24 	wl16	r9,0x2464
    12a0:	0d 60 01 23 	wh16	r9,0x3
    12a4:	10 40 01 29 	ld32	r9,r9
    12a8:	00 00 01 10 	add	r8,r16
    12ac:	20 70 03 e2 	movepc	rret,8
    12b0:	14 30 fb 58 	br	10 <compare>,#al
    12b4:	00 10 00 41 	add	r2,1
    12b8:	0d 40 2d 08 	wl16	r8,0x168
    12bc:	0d 60 01 03 	wh16	r8,0x3
    12c0:	10 40 01 08 	ld32	r8,r8
    12c4:	0d 42 5e 08 	wl16	r16,0x12e8
    12c8:	0d 60 02 03 	wh16	r16,0x3
    12cc:	10 40 02 10 	ld32	r16,r16
    12d0:	0d 44 8d 28 	wl16	r9,0x2468
    12d4:	0d 60 01 23 	wh16	r9,0x3
    12d8:	10 40 01 29 	ld32	r9,r9
    12dc:	00 00 01 10 	add	r8,r16
    12e0:	20 70 03 e2 	movepc	rret,8
    12e4:	14 30 fb 4b 	br	10 <compare>,#al
    12e8:	00 10 00 41 	add	r2,1
    12ec:	0d 40 2d 0c 	wl16	r8,0x16c
    12f0:	0d 60 01 03 	wh16	r8,0x3
    12f4:	10 40 01 08 	ld32	r8,r8
    12f8:	0d 42 5e 0c 	wl16	r16,0x12ec
    12fc:	0d 60 02 03 	wh16	r16,0x3
    1300:	10 40 02 10 	ld32	r16,r16
    1304:	0d 44 8d 2c 	wl16	r9,0x246c
    1308:	0d 60 01 23 	wh16	r9,0x3
    130c:	10 40 01 29 	ld32	r9,r9
    1310:	00 00 01 10 	add	r8,r16
    1314:	20 70 03 e2 	movepc	rret,8
    1318:	14 30 fb 3e 	br	10 <compare>,#al
    131c:	00 10 00 41 	add	r2,1
    1320:	0d 40 2d 10 	wl16	r8,0x170
    1324:	0d 60 01 03 	wh16	r8,0x3
    1328:	10 40 01 08 	ld32	r8,r8
    132c:	0d 42 5e 10 	wl16	r16,0x12f0
    1330:	0d 60 02 03 	wh16	r16,0x3
    1334:	10 40 02 10 	ld32	r16,r16
    1338:	0d 44 8d 30 	wl16	r9,0x2470
    133c:	0d 60 01 23 	wh16	r9,0x3
    1340:	10 40 01 29 	ld32	r9,r9
    1344:	00 00 01 10 	add	r8,r16
    1348:	20 70 03 e2 	movepc	rret,8
    134c:	14 30 fb 31 	br	10 <compare>,#al
    1350:	00 10 00 41 	add	r2,1
    1354:	0d 40 2d 14 	wl16	r8,0x174
    1358:	0d 60 01 03 	wh16	r8,0x3
    135c:	10 40 01 08 	ld32	r8,r8
    1360:	0d 42 5e 14 	wl16	r16,0x12f4
    1364:	0d 60 02 03 	wh16	r16,0x3
    1368:	10 40 02 10 	ld32	r16,r16
    136c:	0d 44 8d 34 	wl16	r9,0x2474
    1370:	0d 60 01 23 	wh16	r9,0x3
    1374:	10 40 01 29 	ld32	r9,r9
    1378:	00 00 01 10 	add	r8,r16
    137c:	20 70 03 e2 	movepc	rret,8
    1380:	14 30 fb 24 	br	10 <compare>,#al
    1384:	00 10 00 41 	add	r2,1
    1388:	0d 40 2d 18 	wl16	r8,0x178
    138c:	0d 60 01 03 	wh16	r8,0x3
    1390:	10 40 01 08 	ld32	r8,r8
    1394:	0d 42 5e 18 	wl16	r16,0x12f8
    1398:	0d 60 02 03 	wh16	r16,0x3
    139c:	10 40 02 10 	ld32	r16,r16
    13a0:	0d 44 8d 38 	wl16	r9,0x2478
    13a4:	0d 60 01 23 	wh16	r9,0x3
    13a8:	10 40 01 29 	ld32	r9,r9
    13ac:	00 00 01 10 	add	r8,r16
    13b0:	20 70 03 e2 	movepc	rret,8
    13b4:	14 30 fb 17 	br	10 <compare>,#al
    13b8:	00 10 00 41 	add	r2,1
    13bc:	0d 40 2d 1c 	wl16	r8,0x17c
    13c0:	0d 60 01 03 	wh16	r8,0x3
    13c4:	10 40 01 08 	ld32	r8,r8
    13c8:	0d 42 5e 1c 	wl16	r16,0x12fc
    13cc:	0d 60 02 03 	wh16	r16,0x3
    13d0:	10 40 02 10 	ld32	r16,r16
    13d4:	0d 44 8d 3c 	wl16	r9,0x247c
    13d8:	0d 60 01 23 	wh16	r9,0x3
    13dc:	10 40 01 29 	ld32	r9,r9
    13e0:	00 00 01 10 	add	r8,r16
    13e4:	20 70 03 e2 	movepc	rret,8
    13e8:	14 30 fb 0a 	br	10 <compare>,#al
    13ec:	00 10 00 41 	add	r2,1
    13f0:	0d 40 31 00 	wl16	r8,0x180
    13f4:	0d 60 01 03 	wh16	r8,0x3
    13f8:	10 40 01 08 	ld32	r8,r8
    13fc:	0d 42 62 00 	wl16	r16,0x1300
    1400:	0d 60 02 03 	wh16	r16,0x3
    1404:	10 40 02 10 	ld32	r16,r16
    1408:	0d 44 91 20 	wl16	r9,0x2480
    140c:	0d 60 01 23 	wh16	r9,0x3
    1410:	10 40 01 29 	ld32	r9,r9
    1414:	00 00 01 10 	add	r8,r16
    1418:	20 70 03 e2 	movepc	rret,8
    141c:	14 30 fa fd 	br	10 <compare>,#al
    1420:	00 10 00 41 	add	r2,1
    1424:	0d 40 31 04 	wl16	r8,0x184
    1428:	0d 60 01 03 	wh16	r8,0x3
    142c:	10 40 01 08 	ld32	r8,r8
    1430:	0d 42 62 04 	wl16	r16,0x1304
    1434:	0d 60 02 03 	wh16	r16,0x3
    1438:	10 40 02 10 	ld32	r16,r16
    143c:	0d 44 91 24 	wl16	r9,0x2484
    1440:	0d 60 01 23 	wh16	r9,0x3
    1444:	10 40 01 29 	ld32	r9,r9
    1448:	00 00 01 10 	add	r8,r16
    144c:	20 70 03 e2 	movepc	rret,8
    1450:	14 30 fa f0 	br	10 <compare>,#al
    1454:	00 10 00 41 	add	r2,1
    1458:	0d 40 31 08 	wl16	r8,0x188
    145c:	0d 60 01 03 	wh16	r8,0x3
    1460:	10 40 01 08 	ld32	r8,r8
    1464:	0d 42 62 08 	wl16	r16,0x1308
    1468:	0d 60 02 03 	wh16	r16,0x3
    146c:	10 40 02 10 	ld32	r16,r16
    1470:	0d 44 91 28 	wl16	r9,0x2488
    1474:	0d 60 01 23 	wh16	r9,0x3
    1478:	10 40 01 29 	ld32	r9,r9
    147c:	00 00 01 10 	add	r8,r16
    1480:	20 70 03 e2 	movepc	rret,8
    1484:	14 30 fa e3 	br	10 <compare>,#al
    1488:	00 10 00 41 	add	r2,1
    148c:	0d 40 31 0c 	wl16	r8,0x18c
    1490:	0d 60 01 03 	wh16	r8,0x3
    1494:	10 40 01 08 	ld32	r8,r8
    1498:	0d 42 62 0c 	wl16	r16,0x130c
    149c:	0d 60 02 03 	wh16	r16,0x3
    14a0:	10 40 02 10 	ld32	r16,r16
    14a4:	0d 44 91 2c 	wl16	r9,0x248c
    14a8:	0d 60 01 23 	wh16	r9,0x3
    14ac:	10 40 01 29 	ld32	r9,r9
    14b0:	00 00 01 10 	add	r8,r16
    14b4:	20 70 03 e2 	movepc	rret,8
    14b8:	14 30 fa d6 	br	10 <compare>,#al
    14bc:	00 10 00 41 	add	r2,1
    14c0:	0d 40 31 10 	wl16	r8,0x190
    14c4:	0d 60 01 03 	wh16	r8,0x3
    14c8:	10 40 01 08 	ld32	r8,r8
    14cc:	0d 42 62 10 	wl16	r16,0x1310
    14d0:	0d 60 02 03 	wh16	r16,0x3
    14d4:	10 40 02 10 	ld32	r16,r16
    14d8:	0d 44 91 30 	wl16	r9,0x2490
    14dc:	0d 60 01 23 	wh16	r9,0x3
    14e0:	10 40 01 29 	ld32	r9,r9
    14e4:	00 00 01 10 	add	r8,r16
    14e8:	20 70 03 e2 	movepc	rret,8
    14ec:	14 30 fa c9 	br	10 <compare>,#al
    14f0:	00 10 00 41 	add	r2,1
    14f4:	0d 40 31 14 	wl16	r8,0x194
    14f8:	0d 60 01 03 	wh16	r8,0x3
    14fc:	10 40 01 08 	ld32	r8,r8
    1500:	0d 42 62 14 	wl16	r16,0x1314
    1504:	0d 60 02 03 	wh16	r16,0x3
    1508:	10 40 02 10 	ld32	r16,r16
    150c:	0d 44 91 34 	wl16	r9,0x2494
    1510:	0d 60 01 23 	wh16	r9,0x3
    1514:	10 40 01 29 	ld32	r9,r9
    1518:	00 00 01 10 	add	r8,r16
    151c:	20 70 03 e2 	movepc	rret,8
    1520:	14 30 fa bc 	br	10 <compare>,#al
    1524:	00 10 00 41 	add	r2,1
    1528:	0d 40 31 18 	wl16	r8,0x198
    152c:	0d 60 01 03 	wh16	r8,0x3
    1530:	10 40 01 08 	ld32	r8,r8
    1534:	0d 42 62 18 	wl16	r16,0x1318
    1538:	0d 60 02 03 	wh16	r16,0x3
    153c:	10 40 02 10 	ld32	r16,r16
    1540:	0d 44 91 38 	wl16	r9,0x2498
    1544:	0d 60 01 23 	wh16	r9,0x3
    1548:	10 40 01 29 	ld32	r9,r9
    154c:	00 00 01 10 	add	r8,r16
    1550:	20 70 03 e2 	movepc	rret,8
    1554:	14 30 fa af 	br	10 <compare>,#al
    1558:	00 10 00 41 	add	r2,1
    155c:	0d 40 31 1c 	wl16	r8,0x19c
    1560:	0d 60 01 03 	wh16	r8,0x3
    1564:	10 40 01 08 	ld32	r8,r8
    1568:	0d 42 62 1c 	wl16	r16,0x131c
    156c:	0d 60 02 03 	wh16	r16,0x3
    1570:	10 40 02 10 	ld32	r16,r16
    1574:	0d 44 91 3c 	wl16	r9,0x249c
    1578:	0d 60 01 23 	wh16	r9,0x3
    157c:	10 40 01 29 	ld32	r9,r9
    1580:	00 00 01 10 	add	r8,r16
    1584:	20 70 03 e2 	movepc	rret,8
    1588:	14 30 fa a2 	br	10 <compare>,#al
    158c:	00 10 00 41 	add	r2,1
    1590:	0d 40 35 00 	wl16	r8,0x1a0
    1594:	0d 60 01 03 	wh16	r8,0x3
    1598:	10 40 01 08 	ld32	r8,r8
    159c:	0d 42 66 00 	wl16	r16,0x1320
    15a0:	0d 60 02 03 	wh16	r16,0x3
    15a4:	10 40 02 10 	ld32	r16,r16
    15a8:	0d 44 95 20 	wl16	r9,0x24a0
    15ac:	0d 60 01 23 	wh16	r9,0x3
    15b0:	10 40 01 29 	ld32	r9,r9
    15b4:	00 00 01 10 	add	r8,r16
    15b8:	20 70 03 e2 	movepc	rret,8
    15bc:	14 30 fa 95 	br	10 <compare>,#al
    15c0:	00 10 00 41 	add	r2,1
    15c4:	0d 40 35 04 	wl16	r8,0x1a4
    15c8:	0d 60 01 03 	wh16	r8,0x3
    15cc:	10 40 01 08 	ld32	r8,r8
    15d0:	0d 42 66 04 	wl16	r16,0x1324
    15d4:	0d 60 02 03 	wh16	r16,0x3
    15d8:	10 40 02 10 	ld32	r16,r16
    15dc:	0d 44 95 24 	wl16	r9,0x24a4
    15e0:	0d 60 01 23 	wh16	r9,0x3
    15e4:	10 40 01 29 	ld32	r9,r9
    15e8:	00 00 01 10 	add	r8,r16
    15ec:	20 70 03 e2 	movepc	rret,8
    15f0:	14 30 fa 88 	br	10 <compare>,#al
    15f4:	00 10 00 41 	add	r2,1
    15f8:	0d 40 35 08 	wl16	r8,0x1a8
    15fc:	0d 60 01 03 	wh16	r8,0x3
    1600:	10 40 01 08 	ld32	r8,r8
    1604:	0d 42 66 08 	wl16	r16,0x1328
    1608:	0d 60 02 03 	wh16	r16,0x3
    160c:	10 40 02 10 	ld32	r16,r16
    1610:	0d 44 95 28 	wl16	r9,0x24a8
    1614:	0d 60 01 23 	wh16	r9,0x3
    1618:	10 40 01 29 	ld32	r9,r9
    161c:	00 00 01 10 	add	r8,r16
    1620:	20 70 03 e2 	movepc	rret,8
    1624:	14 30 fa 7b 	br	10 <compare>,#al
    1628:	00 10 00 41 	add	r2,1
    162c:	0d 40 35 0c 	wl16	r8,0x1ac
    1630:	0d 60 01 03 	wh16	r8,0x3
    1634:	10 40 01 08 	ld32	r8,r8
    1638:	0d 42 66 0c 	wl16	r16,0x132c
    163c:	0d 60 02 03 	wh16	r16,0x3
    1640:	10 40 02 10 	ld32	r16,r16
    1644:	0d 44 95 2c 	wl16	r9,0x24ac
    1648:	0d 60 01 23 	wh16	r9,0x3
    164c:	10 40 01 29 	ld32	r9,r9
    1650:	00 00 01 10 	add	r8,r16
    1654:	20 70 03 e2 	movepc	rret,8
    1658:	14 30 fa 6e 	br	10 <compare>,#al
    165c:	00 10 00 41 	add	r2,1
    1660:	0d 40 35 10 	wl16	r8,0x1b0
    1664:	0d 60 01 03 	wh16	r8,0x3
    1668:	10 40 01 08 	ld32	r8,r8
    166c:	0d 42 66 10 	wl16	r16,0x1330
    1670:	0d 60 02 03 	wh16	r16,0x3
    1674:	10 40 02 10 	ld32	r16,r16
    1678:	0d 44 95 30 	wl16	r9,0x24b0
    167c:	0d 60 01 23 	wh16	r9,0x3
    1680:	10 40 01 29 	ld32	r9,r9
    1684:	00 00 01 10 	add	r8,r16
    1688:	20 70 03 e2 	movepc	rret,8
    168c:	14 30 fa 61 	br	10 <compare>,#al
    1690:	00 10 00 41 	add	r2,1
    1694:	0d 40 35 14 	wl16	r8,0x1b4
    1698:	0d 60 01 03 	wh16	r8,0x3
    169c:	10 40 01 08 	ld32	r8,r8
    16a0:	0d 42 66 14 	wl16	r16,0x1334
    16a4:	0d 60 02 03 	wh16	r16,0x3
    16a8:	10 40 02 10 	ld32	r16,r16
    16ac:	0d 44 95 34 	wl16	r9,0x24b4
    16b0:	0d 60 01 23 	wh16	r9,0x3
    16b4:	10 40 01 29 	ld32	r9,r9
    16b8:	00 00 01 10 	add	r8,r16
    16bc:	20 70 03 e2 	movepc	rret,8
    16c0:	14 30 fa 54 	br	10 <compare>,#al
    16c4:	00 10 00 41 	add	r2,1
    16c8:	0d 40 35 18 	wl16	r8,0x1b8
    16cc:	0d 60 01 03 	wh16	r8,0x3
    16d0:	10 40 01 08 	ld32	r8,r8
    16d4:	0d 42 66 18 	wl16	r16,0x1338
    16d8:	0d 60 02 03 	wh16	r16,0x3
    16dc:	10 40 02 10 	ld32	r16,r16
    16e0:	0d 44 95 38 	wl16	r9,0x24b8
    16e4:	0d 60 01 23 	wh16	r9,0x3
    16e8:	10 40 01 29 	ld32	r9,r9
    16ec:	00 00 01 10 	add	r8,r16
    16f0:	20 70 03 e2 	movepc	rret,8
    16f4:	14 30 fa 47 	br	10 <compare>,#al
    16f8:	00 10 00 41 	add	r2,1
    16fc:	0d 40 35 1c 	wl16	r8,0x1bc
    1700:	0d 60 01 03 	wh16	r8,0x3
    1704:	10 40 01 08 	ld32	r8,r8
    1708:	0d 42 66 1c 	wl16	r16,0x133c
    170c:	0d 60 02 03 	wh16	r16,0x3
    1710:	10 40 02 10 	ld32	r16,r16
    1714:	0d 44 95 3c 	wl16	r9,0x24bc
    1718:	0d 60 01 23 	wh16	r9,0x3
    171c:	10 40 01 29 	ld32	r9,r9
    1720:	00 00 01 10 	add	r8,r16
    1724:	20 70 03 e2 	movepc	rret,8
    1728:	14 30 fa 3a 	br	10 <compare>,#al
    172c:	00 10 00 41 	add	r2,1
    1730:	0d 40 39 00 	wl16	r8,0x1c0
    1734:	0d 60 01 03 	wh16	r8,0x3
    1738:	10 40 01 08 	ld32	r8,r8
    173c:	0d 42 6a 00 	wl16	r16,0x1340
    1740:	0d 60 02 03 	wh16	r16,0x3
    1744:	10 40 02 10 	ld32	r16,r16
    1748:	0d 44 99 20 	wl16	r9,0x24c0
    174c:	0d 60 01 23 	wh16	r9,0x3
    1750:	10 40 01 29 	ld32	r9,r9
    1754:	00 00 01 10 	add	r8,r16
    1758:	20 70 03 e2 	movepc	rret,8
    175c:	14 30 fa 2d 	br	10 <compare>,#al
    1760:	00 10 00 41 	add	r2,1
    1764:	0d 40 39 04 	wl16	r8,0x1c4
    1768:	0d 60 01 03 	wh16	r8,0x3
    176c:	10 40 01 08 	ld32	r8,r8
    1770:	0d 42 6a 04 	wl16	r16,0x1344
    1774:	0d 60 02 03 	wh16	r16,0x3
    1778:	10 40 02 10 	ld32	r16,r16
    177c:	0d 44 99 24 	wl16	r9,0x24c4
    1780:	0d 60 01 23 	wh16	r9,0x3
    1784:	10 40 01 29 	ld32	r9,r9
    1788:	00 00 01 10 	add	r8,r16
    178c:	20 70 03 e2 	movepc	rret,8
    1790:	14 30 fa 20 	br	10 <compare>,#al
    1794:	00 10 00 41 	add	r2,1
    1798:	0d 40 39 08 	wl16	r8,0x1c8
    179c:	0d 60 01 03 	wh16	r8,0x3
    17a0:	10 40 01 08 	ld32	r8,r8
    17a4:	0d 42 6a 08 	wl16	r16,0x1348
    17a8:	0d 60 02 03 	wh16	r16,0x3
    17ac:	10 40 02 10 	ld32	r16,r16
    17b0:	0d 44 99 28 	wl16	r9,0x24c8
    17b4:	0d 60 01 23 	wh16	r9,0x3
    17b8:	10 40 01 29 	ld32	r9,r9
    17bc:	00 00 01 10 	add	r8,r16
    17c0:	20 70 03 e2 	movepc	rret,8
    17c4:	14 30 fa 13 	br	10 <compare>,#al
    17c8:	00 10 00 41 	add	r2,1
    17cc:	0d 40 39 0c 	wl16	r8,0x1cc
    17d0:	0d 60 01 03 	wh16	r8,0x3
    17d4:	10 40 01 08 	ld32	r8,r8
    17d8:	0d 42 6a 0c 	wl16	r16,0x134c
    17dc:	0d 60 02 03 	wh16	r16,0x3
    17e0:	10 40 02 10 	ld32	r16,r16
    17e4:	0d 44 99 2c 	wl16	r9,0x24cc
    17e8:	0d 60 01 23 	wh16	r9,0x3
    17ec:	10 40 01 29 	ld32	r9,r9
    17f0:	00 00 01 10 	add	r8,r16
    17f4:	20 70 03 e2 	movepc	rret,8
    17f8:	14 30 fa 06 	br	10 <compare>,#al
    17fc:	00 10 00 41 	add	r2,1
    1800:	0d 40 39 10 	wl16	r8,0x1d0
    1804:	0d 60 01 03 	wh16	r8,0x3
    1808:	10 40 01 08 	ld32	r8,r8
    180c:	0d 42 6a 10 	wl16	r16,0x1350
    1810:	0d 60 02 03 	wh16	r16,0x3
    1814:	10 40 02 10 	ld32	r16,r16
    1818:	0d 44 99 30 	wl16	r9,0x24d0
    181c:	0d 60 01 23 	wh16	r9,0x3
    1820:	10 40 01 29 	ld32	r9,r9
    1824:	00 00 01 10 	add	r8,r16
    1828:	20 70 03 e2 	movepc	rret,8
    182c:	14 30 f9 f9 	br	10 <compare>,#al
    1830:	00 10 00 41 	add	r2,1
    1834:	0d 40 39 14 	wl16	r8,0x1d4
    1838:	0d 60 01 03 	wh16	r8,0x3
    183c:	10 40 01 08 	ld32	r8,r8
    1840:	0d 42 6a 14 	wl16	r16,0x1354
    1844:	0d 60 02 03 	wh16	r16,0x3
    1848:	10 40 02 10 	ld32	r16,r16
    184c:	0d 44 99 34 	wl16	r9,0x24d4
    1850:	0d 60 01 23 	wh16	r9,0x3
    1854:	10 40 01 29 	ld32	r9,r9
    1858:	00 00 01 10 	add	r8,r16
    185c:	20 70 03 e2 	movepc	rret,8
    1860:	14 30 f9 ec 	br	10 <compare>,#al
    1864:	00 10 00 41 	add	r2,1
    1868:	0d 40 39 18 	wl16	r8,0x1d8
    186c:	0d 60 01 03 	wh16	r8,0x3
    1870:	10 40 01 08 	ld32	r8,r8
    1874:	0d 42 6a 18 	wl16	r16,0x1358
    1878:	0d 60 02 03 	wh16	r16,0x3
    187c:	10 40 02 10 	ld32	r16,r16
    1880:	0d 44 99 38 	wl16	r9,0x24d8
    1884:	0d 60 01 23 	wh16	r9,0x3
    1888:	10 40 01 29 	ld32	r9,r9
    188c:	00 00 01 10 	add	r8,r16
    1890:	20 70 03 e2 	movepc	rret,8
    1894:	14 30 f9 df 	br	10 <compare>,#al
    1898:	00 10 00 41 	add	r2,1
    189c:	0d 40 39 1c 	wl16	r8,0x1dc
    18a0:	0d 60 01 03 	wh16	r8,0x3
    18a4:	10 40 01 08 	ld32	r8,r8
    18a8:	0d 42 6a 1c 	wl16	r16,0x135c
    18ac:	0d 60 02 03 	wh16	r16,0x3
    18b0:	10 40 02 10 	ld32	r16,r16
    18b4:	0d 44 99 3c 	wl16	r9,0x24dc
    18b8:	0d 60 01 23 	wh16	r9,0x3
    18bc:	10 40 01 29 	ld32	r9,r9
    18c0:	00 00 01 10 	add	r8,r16
    18c4:	20 70 03 e2 	movepc	rret,8
    18c8:	14 30 f9 d2 	br	10 <compare>,#al
    18cc:	00 10 00 41 	add	r2,1
    18d0:	0d 40 3d 00 	wl16	r8,0x1e0
    18d4:	0d 60 01 03 	wh16	r8,0x3
    18d8:	10 40 01 08 	ld32	r8,r8
    18dc:	0d 42 6e 00 	wl16	r16,0x1360
    18e0:	0d 60 02 03 	wh16	r16,0x3
    18e4:	10 40 02 10 	ld32	r16,r16
    18e8:	0d 44 9d 20 	wl16	r9,0x24e0
    18ec:	0d 60 01 23 	wh16	r9,0x3
    18f0:	10 40 01 29 	ld32	r9,r9
    18f4:	00 00 01 10 	add	r8,r16
    18f8:	20 70 03 e2 	movepc	rret,8
    18fc:	14 30 f9 c5 	br	10 <compare>,#al
    1900:	00 10 00 41 	add	r2,1
    1904:	0d 40 3d 04 	wl16	r8,0x1e4
    1908:	0d 60 01 03 	wh16	r8,0x3
    190c:	10 40 01 08 	ld32	r8,r8
    1910:	0d 42 6e 04 	wl16	r16,0x1364
    1914:	0d 60 02 03 	wh16	r16,0x3
    1918:	10 40 02 10 	ld32	r16,r16
    191c:	0d 44 9d 24 	wl16	r9,0x24e4
    1920:	0d 60 01 23 	wh16	r9,0x3
    1924:	10 40 01 29 	ld32	r9,r9
    1928:	00 00 01 10 	add	r8,r16
    192c:	20 70 03 e2 	movepc	rret,8
    1930:	14 30 f9 b8 	br	10 <compare>,#al
    1934:	00 10 00 41 	add	r2,1
    1938:	0d 40 3d 08 	wl16	r8,0x1e8
    193c:	0d 60 01 03 	wh16	r8,0x3
    1940:	10 40 01 08 	ld32	r8,r8
    1944:	0d 42 6e 08 	wl16	r16,0x1368
    1948:	0d 60 02 03 	wh16	r16,0x3
    194c:	10 40 02 10 	ld32	r16,r16
    1950:	0d 44 9d 28 	wl16	r9,0x24e8
    1954:	0d 60 01 23 	wh16	r9,0x3
    1958:	10 40 01 29 	ld32	r9,r9
    195c:	00 00 01 10 	add	r8,r16
    1960:	20 70 03 e2 	movepc	rret,8
    1964:	14 30 f9 ab 	br	10 <compare>,#al
    1968:	00 10 00 41 	add	r2,1
    196c:	0d 40 3d 0c 	wl16	r8,0x1ec
    1970:	0d 60 01 03 	wh16	r8,0x3
    1974:	10 40 01 08 	ld32	r8,r8
    1978:	0d 42 6e 0c 	wl16	r16,0x136c
    197c:	0d 60 02 03 	wh16	r16,0x3
    1980:	10 40 02 10 	ld32	r16,r16
    1984:	0d 44 9d 2c 	wl16	r9,0x24ec
    1988:	0d 60 01 23 	wh16	r9,0x3
    198c:	10 40 01 29 	ld32	r9,r9
    1990:	00 00 01 10 	add	r8,r16
    1994:	20 70 03 e2 	movepc	rret,8
    1998:	14 30 f9 9e 	br	10 <compare>,#al
    199c:	00 10 00 41 	add	r2,1
    19a0:	0d 40 3d 10 	wl16	r8,0x1f0
    19a4:	0d 60 01 03 	wh16	r8,0x3
    19a8:	10 40 01 08 	ld32	r8,r8
    19ac:	0d 42 6e 10 	wl16	r16,0x1370
    19b0:	0d 60 02 03 	wh16	r16,0x3
    19b4:	10 40 02 10 	ld32	r16,r16
    19b8:	0d 44 9d 30 	wl16	r9,0x24f0
    19bc:	0d 60 01 23 	wh16	r9,0x3
    19c0:	10 40 01 29 	ld32	r9,r9
    19c4:	00 00 01 10 	add	r8,r16
    19c8:	20 70 03 e2 	movepc	rret,8
    19cc:	14 30 f9 91 	br	10 <compare>,#al
    19d0:	00 10 00 41 	add	r2,1
    19d4:	0d 40 3d 14 	wl16	r8,0x1f4
    19d8:	0d 60 01 03 	wh16	r8,0x3
    19dc:	10 40 01 08 	ld32	r8,r8
    19e0:	0d 42 6e 14 	wl16	r16,0x1374
    19e4:	0d 60 02 03 	wh16	r16,0x3
    19e8:	10 40 02 10 	ld32	r16,r16
    19ec:	0d 44 9d 34 	wl16	r9,0x24f4
    19f0:	0d 60 01 23 	wh16	r9,0x3
    19f4:	10 40 01 29 	ld32	r9,r9
    19f8:	00 00 01 10 	add	r8,r16
    19fc:	20 70 03 e2 	movepc	rret,8
    1a00:	14 30 f9 84 	br	10 <compare>,#al
    1a04:	00 10 00 41 	add	r2,1
    1a08:	0d 40 3d 18 	wl16	r8,0x1f8
    1a0c:	0d 60 01 03 	wh16	r8,0x3
    1a10:	10 40 01 08 	ld32	r8,r8
    1a14:	0d 42 6e 18 	wl16	r16,0x1378
    1a18:	0d 60 02 03 	wh16	r16,0x3
    1a1c:	10 40 02 10 	ld32	r16,r16
    1a20:	0d 44 9d 38 	wl16	r9,0x24f8
    1a24:	0d 60 01 23 	wh16	r9,0x3
    1a28:	10 40 01 29 	ld32	r9,r9
    1a2c:	00 00 01 10 	add	r8,r16
    1a30:	20 70 03 e2 	movepc	rret,8
    1a34:	14 30 f9 77 	br	10 <compare>,#al
    1a38:	00 10 00 41 	add	r2,1
    1a3c:	0d 40 3d 1c 	wl16	r8,0x1fc
    1a40:	0d 60 01 03 	wh16	r8,0x3
    1a44:	10 40 01 08 	ld32	r8,r8
    1a48:	0d 42 6e 1c 	wl16	r16,0x137c
    1a4c:	0d 60 02 03 	wh16	r16,0x3
    1a50:	10 40 02 10 	ld32	r16,r16
    1a54:	0d 44 9d 3c 	wl16	r9,0x24fc
    1a58:	0d 60 01 23 	wh16	r9,0x3
    1a5c:	10 40 01 29 	ld32	r9,r9
    1a60:	00 00 01 10 	add	r8,r16
    1a64:	20 70 03 e2 	movepc	rret,8
    1a68:	14 30 f9 6a 	br	10 <compare>,#al
    1a6c:	00 10 00 41 	add	r2,1
    1a70:	0d 40 41 00 	wl16	r8,0x200
    1a74:	0d 60 01 03 	wh16	r8,0x3
    1a78:	10 40 01 08 	ld32	r8,r8
    1a7c:	0d 42 72 00 	wl16	r16,0x1380
    1a80:	0d 60 02 03 	wh16	r16,0x3
    1a84:	10 40 02 10 	ld32	r16,r16
    1a88:	0d 44 a1 20 	wl16	r9,0x2500
    1a8c:	0d 60 01 23 	wh16	r9,0x3
    1a90:	10 40 01 29 	ld32	r9,r9
    1a94:	00 00 01 10 	add	r8,r16
    1a98:	20 70 03 e2 	movepc	rret,8
    1a9c:	14 30 f9 5d 	br	10 <compare>,#al
    1aa0:	00 10 00 41 	add	r2,1
    1aa4:	0d 40 41 04 	wl16	r8,0x204
    1aa8:	0d 60 01 03 	wh16	r8,0x3
    1aac:	10 40 01 08 	ld32	r8,r8
    1ab0:	0d 42 72 04 	wl16	r16,0x1384
    1ab4:	0d 60 02 03 	wh16	r16,0x3
    1ab8:	10 40 02 10 	ld32	r16,r16
    1abc:	0d 44 a1 24 	wl16	r9,0x2504
    1ac0:	0d 60 01 23 	wh16	r9,0x3
    1ac4:	10 40 01 29 	ld32	r9,r9
    1ac8:	00 00 01 10 	add	r8,r16
    1acc:	20 70 03 e2 	movepc	rret,8
    1ad0:	14 30 f9 50 	br	10 <compare>,#al
    1ad4:	00 10 00 41 	add	r2,1
    1ad8:	0d 40 41 08 	wl16	r8,0x208
    1adc:	0d 60 01 03 	wh16	r8,0x3
    1ae0:	10 40 01 08 	ld32	r8,r8
    1ae4:	0d 42 72 08 	wl16	r16,0x1388
    1ae8:	0d 60 02 03 	wh16	r16,0x3
    1aec:	10 40 02 10 	ld32	r16,r16
    1af0:	0d 44 a1 28 	wl16	r9,0x2508
    1af4:	0d 60 01 23 	wh16	r9,0x3
    1af8:	10 40 01 29 	ld32	r9,r9
    1afc:	00 00 01 10 	add	r8,r16
    1b00:	20 70 03 e2 	movepc	rret,8
    1b04:	14 30 f9 43 	br	10 <compare>,#al
    1b08:	00 10 00 41 	add	r2,1
    1b0c:	0d 40 41 0c 	wl16	r8,0x20c
    1b10:	0d 60 01 03 	wh16	r8,0x3
    1b14:	10 40 01 08 	ld32	r8,r8
    1b18:	0d 42 72 0c 	wl16	r16,0x138c
    1b1c:	0d 60 02 03 	wh16	r16,0x3
    1b20:	10 40 02 10 	ld32	r16,r16
    1b24:	0d 44 a1 2c 	wl16	r9,0x250c
    1b28:	0d 60 01 23 	wh16	r9,0x3
    1b2c:	10 40 01 29 	ld32	r9,r9
    1b30:	00 00 01 10 	add	r8,r16
    1b34:	20 70 03 e2 	movepc	rret,8
    1b38:	14 30 f9 36 	br	10 <compare>,#al
    1b3c:	00 10 00 41 	add	r2,1
    1b40:	0d 40 41 10 	wl16	r8,0x210
    1b44:	0d 60 01 03 	wh16	r8,0x3
    1b48:	10 40 01 08 	ld32	r8,r8
    1b4c:	0d 42 72 10 	wl16	r16,0x1390
    1b50:	0d 60 02 03 	wh16	r16,0x3
    1b54:	10 40 02 10 	ld32	r16,r16
    1b58:	0d 44 a1 30 	wl16	r9,0x2510
    1b5c:	0d 60 01 23 	wh16	r9,0x3
    1b60:	10 40 01 29 	ld32	r9,r9
    1b64:	00 00 01 10 	add	r8,r16
    1b68:	20 70 03 e2 	movepc	rret,8
    1b6c:	14 30 f9 29 	br	10 <compare>,#al
    1b70:	00 10 00 41 	add	r2,1
    1b74:	0d 40 41 14 	wl16	r8,0x214
    1b78:	0d 60 01 03 	wh16	r8,0x3
    1b7c:	10 40 01 08 	ld32	r8,r8
    1b80:	0d 42 72 14 	wl16	r16,0x1394
    1b84:	0d 60 02 03 	wh16	r16,0x3
    1b88:	10 40 02 10 	ld32	r16,r16
    1b8c:	0d 44 a1 34 	wl16	r9,0x2514
    1b90:	0d 60 01 23 	wh16	r9,0x3
    1b94:	10 40 01 29 	ld32	r9,r9
    1b98:	00 00 01 10 	add	r8,r16
    1b9c:	20 70 03 e2 	movepc	rret,8
    1ba0:	14 30 f9 1c 	br	10 <compare>,#al
    1ba4:	00 10 00 41 	add	r2,1
    1ba8:	0d 40 41 18 	wl16	r8,0x218
    1bac:	0d 60 01 03 	wh16	r8,0x3
    1bb0:	10 40 01 08 	ld32	r8,r8
    1bb4:	0d 42 72 18 	wl16	r16,0x1398
    1bb8:	0d 60 02 03 	wh16	r16,0x3
    1bbc:	10 40 02 10 	ld32	r16,r16
    1bc0:	0d 44 a1 38 	wl16	r9,0x2518
    1bc4:	0d 60 01 23 	wh16	r9,0x3
    1bc8:	10 40 01 29 	ld32	r9,r9
    1bcc:	00 00 01 10 	add	r8,r16
    1bd0:	20 70 03 e2 	movepc	rret,8
    1bd4:	14 30 f9 0f 	br	10 <compare>,#al
    1bd8:	00 10 00 41 	add	r2,1
    1bdc:	0d 40 41 1c 	wl16	r8,0x21c
    1be0:	0d 60 01 03 	wh16	r8,0x3
    1be4:	10 40 01 08 	ld32	r8,r8
    1be8:	0d 42 72 1c 	wl16	r16,0x139c
    1bec:	0d 60 02 03 	wh16	r16,0x3
    1bf0:	10 40 02 10 	ld32	r16,r16
    1bf4:	0d 44 a1 3c 	wl16	r9,0x251c
    1bf8:	0d 60 01 23 	wh16	r9,0x3
    1bfc:	10 40 01 29 	ld32	r9,r9
    1c00:	00 00 01 10 	add	r8,r16
    1c04:	20 70 03 e2 	movepc	rret,8
    1c08:	14 30 f9 02 	br	10 <compare>,#al
    1c0c:	00 10 00 41 	add	r2,1
    1c10:	0d 40 45 00 	wl16	r8,0x220
    1c14:	0d 60 01 03 	wh16	r8,0x3
    1c18:	10 40 01 08 	ld32	r8,r8
    1c1c:	0d 42 76 00 	wl16	r16,0x13a0
    1c20:	0d 60 02 03 	wh16	r16,0x3
    1c24:	10 40 02 10 	ld32	r16,r16
    1c28:	0d 44 a5 20 	wl16	r9,0x2520
    1c2c:	0d 60 01 23 	wh16	r9,0x3
    1c30:	10 40 01 29 	ld32	r9,r9
    1c34:	00 00 01 10 	add	r8,r16
    1c38:	20 70 03 e2 	movepc	rret,8
    1c3c:	14 30 f8 f5 	br	10 <compare>,#al
    1c40:	00 10 00 41 	add	r2,1
    1c44:	0d 40 45 04 	wl16	r8,0x224
    1c48:	0d 60 01 03 	wh16	r8,0x3
    1c4c:	10 40 01 08 	ld32	r8,r8
    1c50:	0d 42 76 04 	wl16	r16,0x13a4
    1c54:	0d 60 02 03 	wh16	r16,0x3
    1c58:	10 40 02 10 	ld32	r16,r16
    1c5c:	0d 44 a5 24 	wl16	r9,0x2524
    1c60:	0d 60 01 23 	wh16	r9,0x3
    1c64:	10 40 01 29 	ld32	r9,r9
    1c68:	00 00 01 10 	add	r8,r16
    1c6c:	20 70 03 e2 	movepc	rret,8
    1c70:	14 30 f8 e8 	br	10 <compare>,#al
    1c74:	00 10 00 41 	add	r2,1
    1c78:	0d 40 45 08 	wl16	r8,0x228
    1c7c:	0d 60 01 03 	wh16	r8,0x3
    1c80:	10 40 01 08 	ld32	r8,r8
    1c84:	0d 42 76 08 	wl16	r16,0x13a8
    1c88:	0d 60 02 03 	wh16	r16,0x3
    1c8c:	10 40 02 10 	ld32	r16,r16
    1c90:	0d 44 a5 28 	wl16	r9,0x2528
    1c94:	0d 60 01 23 	wh16	r9,0x3
    1c98:	10 40 01 29 	ld32	r9,r9
    1c9c:	00 00 01 10 	add	r8,r16
    1ca0:	20 70 03 e2 	movepc	rret,8
    1ca4:	14 30 f8 db 	br	10 <compare>,#al
    1ca8:	00 10 00 41 	add	r2,1
    1cac:	0d 40 45 0c 	wl16	r8,0x22c
    1cb0:	0d 60 01 03 	wh16	r8,0x3
    1cb4:	10 40 01 08 	ld32	r8,r8
    1cb8:	0d 42 76 0c 	wl16	r16,0x13ac
    1cbc:	0d 60 02 03 	wh16	r16,0x3
    1cc0:	10 40 02 10 	ld32	r16,r16
    1cc4:	0d 44 a5 2c 	wl16	r9,0x252c
    1cc8:	0d 60 01 23 	wh16	r9,0x3
    1ccc:	10 40 01 29 	ld32	r9,r9
    1cd0:	00 00 01 10 	add	r8,r16
    1cd4:	20 70 03 e2 	movepc	rret,8
    1cd8:	14 30 f8 ce 	br	10 <compare>,#al
    1cdc:	00 10 00 41 	add	r2,1
    1ce0:	0d 40 45 10 	wl16	r8,0x230
    1ce4:	0d 60 01 03 	wh16	r8,0x3
    1ce8:	10 40 01 08 	ld32	r8,r8
    1cec:	0d 42 76 10 	wl16	r16,0x13b0
    1cf0:	0d 60 02 03 	wh16	r16,0x3
    1cf4:	10 40 02 10 	ld32	r16,r16
    1cf8:	0d 44 a5 30 	wl16	r9,0x2530
    1cfc:	0d 60 01 23 	wh16	r9,0x3
    1d00:	10 40 01 29 	ld32	r9,r9
    1d04:	00 00 01 10 	add	r8,r16
    1d08:	20 70 03 e2 	movepc	rret,8
    1d0c:	14 30 f8 c1 	br	10 <compare>,#al
    1d10:	00 10 00 41 	add	r2,1
    1d14:	0d 40 45 14 	wl16	r8,0x234
    1d18:	0d 60 01 03 	wh16	r8,0x3
    1d1c:	10 40 01 08 	ld32	r8,r8
    1d20:	0d 42 76 14 	wl16	r16,0x13b4
    1d24:	0d 60 02 03 	wh16	r16,0x3
    1d28:	10 40 02 10 	ld32	r16,r16
    1d2c:	0d 44 a5 34 	wl16	r9,0x2534
    1d30:	0d 60 01 23 	wh16	r9,0x3
    1d34:	10 40 01 29 	ld32	r9,r9
    1d38:	00 00 01 10 	add	r8,r16
    1d3c:	20 70 03 e2 	movepc	rret,8
    1d40:	14 30 f8 b4 	br	10 <compare>,#al
    1d44:	00 10 00 41 	add	r2,1
    1d48:	0d 40 45 18 	wl16	r8,0x238
    1d4c:	0d 60 01 03 	wh16	r8,0x3
    1d50:	10 40 01 08 	ld32	r8,r8
    1d54:	0d 42 76 18 	wl16	r16,0x13b8
    1d58:	0d 60 02 03 	wh16	r16,0x3
    1d5c:	10 40 02 10 	ld32	r16,r16
    1d60:	0d 44 a5 38 	wl16	r9,0x2538
    1d64:	0d 60 01 23 	wh16	r9,0x3
    1d68:	10 40 01 29 	ld32	r9,r9
    1d6c:	00 00 01 10 	add	r8,r16
    1d70:	20 70 03 e2 	movepc	rret,8
    1d74:	14 30 f8 a7 	br	10 <compare>,#al
    1d78:	00 10 00 41 	add	r2,1
    1d7c:	0d 40 45 1c 	wl16	r8,0x23c
    1d80:	0d 60 01 03 	wh16	r8,0x3
    1d84:	10 40 01 08 	ld32	r8,r8
    1d88:	0d 42 76 1c 	wl16	r16,0x13bc
    1d8c:	0d 60 02 03 	wh16	r16,0x3
    1d90:	10 40 02 10 	ld32	r16,r16
    1d94:	0d 44 a5 3c 	wl16	r9,0x253c
    1d98:	0d 60 01 23 	wh16	r9,0x3
    1d9c:	10 40 01 29 	ld32	r9,r9
    1da0:	00 00 01 10 	add	r8,r16
    1da4:	20 70 03 e2 	movepc	rret,8
    1da8:	14 30 f8 9a 	br	10 <compare>,#al
    1dac:	00 10 00 41 	add	r2,1
    1db0:	0d 40 49 00 	wl16	r8,0x240
    1db4:	0d 60 01 03 	wh16	r8,0x3
    1db8:	10 40 01 08 	ld32	r8,r8
    1dbc:	0d 42 7a 00 	wl16	r16,0x13c0
    1dc0:	0d 60 02 03 	wh16	r16,0x3
    1dc4:	10 40 02 10 	ld32	r16,r16
    1dc8:	0d 44 a9 20 	wl16	r9,0x2540
    1dcc:	0d 60 01 23 	wh16	r9,0x3
    1dd0:	10 40 01 29 	ld32	r9,r9
    1dd4:	00 00 01 10 	add	r8,r16
    1dd8:	20 70 03 e2 	movepc	rret,8
    1ddc:	14 30 f8 8d 	br	10 <compare>,#al
    1de0:	00 10 00 41 	add	r2,1
    1de4:	0d 40 49 04 	wl16	r8,0x244
    1de8:	0d 60 01 03 	wh16	r8,0x3
    1dec:	10 40 01 08 	ld32	r8,r8
    1df0:	0d 42 7a 04 	wl16	r16,0x13c4
    1df4:	0d 60 02 03 	wh16	r16,0x3
    1df8:	10 40 02 10 	ld32	r16,r16
    1dfc:	0d 44 a9 24 	wl16	r9,0x2544
    1e00:	0d 60 01 23 	wh16	r9,0x3
    1e04:	10 40 01 29 	ld32	r9,r9
    1e08:	00 00 01 10 	add	r8,r16
    1e0c:	20 70 03 e2 	movepc	rret,8
    1e10:	14 30 f8 80 	br	10 <compare>,#al
    1e14:	00 10 00 41 	add	r2,1
    1e18:	0d 40 49 08 	wl16	r8,0x248
    1e1c:	0d 60 01 03 	wh16	r8,0x3
    1e20:	10 40 01 08 	ld32	r8,r8
    1e24:	0d 42 7a 08 	wl16	r16,0x13c8
    1e28:	0d 60 02 03 	wh16	r16,0x3
    1e2c:	10 40 02 10 	ld32	r16,r16
    1e30:	0d 44 a9 28 	wl16	r9,0x2548
    1e34:	0d 60 01 23 	wh16	r9,0x3
    1e38:	10 40 01 29 	ld32	r9,r9
    1e3c:	00 00 01 10 	add	r8,r16
    1e40:	20 70 03 e2 	movepc	rret,8
    1e44:	14 30 f8 73 	br	10 <compare>,#al
    1e48:	00 10 00 41 	add	r2,1
    1e4c:	0d 40 49 0c 	wl16	r8,0x24c
    1e50:	0d 60 01 03 	wh16	r8,0x3
    1e54:	10 40 01 08 	ld32	r8,r8
    1e58:	0d 42 7a 0c 	wl16	r16,0x13cc
    1e5c:	0d 60 02 03 	wh16	r16,0x3
    1e60:	10 40 02 10 	ld32	r16,r16
    1e64:	0d 44 a9 2c 	wl16	r9,0x254c
    1e68:	0d 60 01 23 	wh16	r9,0x3
    1e6c:	10 40 01 29 	ld32	r9,r9
    1e70:	00 00 01 10 	add	r8,r16
    1e74:	20 70 03 e2 	movepc	rret,8
    1e78:	14 30 f8 66 	br	10 <compare>,#al
    1e7c:	00 10 00 41 	add	r2,1
    1e80:	0d 40 49 10 	wl16	r8,0x250
    1e84:	0d 60 01 03 	wh16	r8,0x3
    1e88:	10 40 01 08 	ld32	r8,r8
    1e8c:	0d 42 7a 10 	wl16	r16,0x13d0
    1e90:	0d 60 02 03 	wh16	r16,0x3
    1e94:	10 40 02 10 	ld32	r16,r16
    1e98:	0d 44 a9 30 	wl16	r9,0x2550
    1e9c:	0d 60 01 23 	wh16	r9,0x3
    1ea0:	10 40 01 29 	ld32	r9,r9
    1ea4:	00 00 01 10 	add	r8,r16
    1ea8:	20 70 03 e2 	movepc	rret,8
    1eac:	14 30 f8 59 	br	10 <compare>,#al
    1eb0:	00 10 00 41 	add	r2,1
    1eb4:	0d 40 49 14 	wl16	r8,0x254
    1eb8:	0d 60 01 03 	wh16	r8,0x3
    1ebc:	10 40 01 08 	ld32	r8,r8
    1ec0:	0d 42 7a 14 	wl16	r16,0x13d4
    1ec4:	0d 60 02 03 	wh16	r16,0x3
    1ec8:	10 40 02 10 	ld32	r16,r16
    1ecc:	0d 44 a9 34 	wl16	r9,0x2554
    1ed0:	0d 60 01 23 	wh16	r9,0x3
    1ed4:	10 40 01 29 	ld32	r9,r9
    1ed8:	00 00 01 10 	add	r8,r16
    1edc:	20 70 03 e2 	movepc	rret,8
    1ee0:	14 30 f8 4c 	br	10 <compare>,#al
    1ee4:	00 10 00 41 	add	r2,1
    1ee8:	0d 40 49 18 	wl16	r8,0x258
    1eec:	0d 60 01 03 	wh16	r8,0x3
    1ef0:	10 40 01 08 	ld32	r8,r8
    1ef4:	0d 42 7a 18 	wl16	r16,0x13d8
    1ef8:	0d 60 02 03 	wh16	r16,0x3
    1efc:	10 40 02 10 	ld32	r16,r16
    1f00:	0d 44 a9 38 	wl16	r9,0x2558
    1f04:	0d 60 01 23 	wh16	r9,0x3
    1f08:	10 40 01 29 	ld32	r9,r9
    1f0c:	00 00 01 10 	add	r8,r16
    1f10:	20 70 03 e2 	movepc	rret,8
    1f14:	14 30 f8 3f 	br	10 <compare>,#al
    1f18:	00 10 00 41 	add	r2,1
    1f1c:	0d 40 49 1c 	wl16	r8,0x25c
    1f20:	0d 60 01 03 	wh16	r8,0x3
    1f24:	10 40 01 08 	ld32	r8,r8
    1f28:	0d 42 7a 1c 	wl16	r16,0x13dc
    1f2c:	0d 60 02 03 	wh16	r16,0x3
    1f30:	10 40 02 10 	ld32	r16,r16
    1f34:	0d 44 a9 3c 	wl16	r9,0x255c
    1f38:	0d 60 01 23 	wh16	r9,0x3
    1f3c:	10 40 01 29 	ld32	r9,r9
    1f40:	00 00 01 10 	add	r8,r16
    1f44:	20 70 03 e2 	movepc	rret,8
    1f48:	14 30 f8 32 	br	10 <compare>,#al
    1f4c:	00 10 00 41 	add	r2,1
    1f50:	0d 40 4d 00 	wl16	r8,0x260
    1f54:	0d 60 01 03 	wh16	r8,0x3
    1f58:	10 40 01 08 	ld32	r8,r8
    1f5c:	0d 42 7e 00 	wl16	r16,0x13e0
    1f60:	0d 60 02 03 	wh16	r16,0x3
    1f64:	10 40 02 10 	ld32	r16,r16
    1f68:	0d 44 ad 20 	wl16	r9,0x2560
    1f6c:	0d 60 01 23 	wh16	r9,0x3
    1f70:	10 40 01 29 	ld32	r9,r9
    1f74:	00 00 01 10 	add	r8,r16
    1f78:	20 70 03 e2 	movepc	rret,8
    1f7c:	14 30 f8 25 	br	10 <compare>,#al
    1f80:	00 10 00 41 	add	r2,1
    1f84:	0d 40 4d 04 	wl16	r8,0x264
    1f88:	0d 60 01 03 	wh16	r8,0x3
    1f8c:	10 40 01 08 	ld32	r8,r8
    1f90:	0d 42 7e 04 	wl16	r16,0x13e4
    1f94:	0d 60 02 03 	wh16	r16,0x3
    1f98:	10 40 02 10 	ld32	r16,r16
    1f9c:	0d 44 ad 24 	wl16	r9,0x2564
    1fa0:	0d 60 01 23 	wh16	r9,0x3
    1fa4:	10 40 01 29 	ld32	r9,r9
    1fa8:	00 00 01 10 	add	r8,r16
    1fac:	20 70 03 e2 	movepc	rret,8
    1fb0:	14 30 f8 18 	br	10 <compare>,#al
    1fb4:	00 10 00 41 	add	r2,1
    1fb8:	0d 40 4d 08 	wl16	r8,0x268
    1fbc:	0d 60 01 03 	wh16	r8,0x3
    1fc0:	10 40 01 08 	ld32	r8,r8
    1fc4:	0d 42 7e 08 	wl16	r16,0x13e8
    1fc8:	0d 60 02 03 	wh16	r16,0x3
    1fcc:	10 40 02 10 	ld32	r16,r16
    1fd0:	0d 44 ad 28 	wl16	r9,0x2568
    1fd4:	0d 60 01 23 	wh16	r9,0x3
    1fd8:	10 40 01 29 	ld32	r9,r9
    1fdc:	00 00 01 10 	add	r8,r16
    1fe0:	20 70 03 e2 	movepc	rret,8
    1fe4:	14 30 f8 0b 	br	10 <compare>,#al
    1fe8:	00 10 00 41 	add	r2,1
    1fec:	0d 40 4d 0c 	wl16	r8,0x26c
    1ff0:	0d 60 01 03 	wh16	r8,0x3
    1ff4:	10 40 01 08 	ld32	r8,r8
    1ff8:	0d 42 7e 0c 	wl16	r16,0x13ec
    1ffc:	0d 60 02 03 	wh16	r16,0x3
    2000:	10 40 02 10 	ld32	r16,r16
    2004:	0d 44 ad 2c 	wl16	r9,0x256c
    2008:	0d 60 01 23 	wh16	r9,0x3
    200c:	10 40 01 29 	ld32	r9,r9
    2010:	00 00 01 10 	add	r8,r16
    2014:	20 70 03 e2 	movepc	rret,8
    2018:	14 30 f7 fe 	br	10 <compare>,#al
    201c:	00 10 00 41 	add	r2,1
    2020:	0d 40 4d 10 	wl16	r8,0x270
    2024:	0d 60 01 03 	wh16	r8,0x3
    2028:	10 40 01 08 	ld32	r8,r8
    202c:	0d 42 7e 10 	wl16	r16,0x13f0
    2030:	0d 60 02 03 	wh16	r16,0x3
    2034:	10 40 02 10 	ld32	r16,r16
    2038:	0d 44 ad 30 	wl16	r9,0x2570
    203c:	0d 60 01 23 	wh16	r9,0x3
    2040:	10 40 01 29 	ld32	r9,r9
    2044:	00 00 01 10 	add	r8,r16
    2048:	20 70 03 e2 	movepc	rret,8
    204c:	14 30 f7 f1 	br	10 <compare>,#al
    2050:	00 10 00 41 	add	r2,1
    2054:	0d 40 4d 14 	wl16	r8,0x274
    2058:	0d 60 01 03 	wh16	r8,0x3
    205c:	10 40 01 08 	ld32	r8,r8
    2060:	0d 42 7e 14 	wl16	r16,0x13f4
    2064:	0d 60 02 03 	wh16	r16,0x3
    2068:	10 40 02 10 	ld32	r16,r16
    206c:	0d 44 ad 34 	wl16	r9,0x2574
    2070:	0d 60 01 23 	wh16	r9,0x3
    2074:	10 40 01 29 	ld32	r9,r9
    2078:	00 00 01 10 	add	r8,r16
    207c:	20 70 03 e2 	movepc	rret,8
    2080:	14 30 f7 e4 	br	10 <compare>,#al
    2084:	00 10 00 41 	add	r2,1
    2088:	0d 40 4d 18 	wl16	r8,0x278
    208c:	0d 60 01 03 	wh16	r8,0x3
    2090:	10 40 01 08 	ld32	r8,r8
    2094:	0d 42 7e 18 	wl16	r16,0x13f8
    2098:	0d 60 02 03 	wh16	r16,0x3
    209c:	10 40 02 10 	ld32	r16,r16
    20a0:	0d 44 ad 38 	wl16	r9,0x2578
    20a4:	0d 60 01 23 	wh16	r9,0x3
    20a8:	10 40 01 29 	ld32	r9,r9
    20ac:	00 00 01 10 	add	r8,r16
    20b0:	20 70 03 e2 	movepc	rret,8
    20b4:	14 30 f7 d7 	br	10 <compare>,#al
    20b8:	00 10 00 41 	add	r2,1
    20bc:	0d 40 4d 1c 	wl16	r8,0x27c
    20c0:	0d 60 01 03 	wh16	r8,0x3
    20c4:	10 40 01 08 	ld32	r8,r8
    20c8:	0d 42 7e 1c 	wl16	r16,0x13fc
    20cc:	0d 60 02 03 	wh16	r16,0x3
    20d0:	10 40 02 10 	ld32	r16,r16
    20d4:	0d 44 ad 3c 	wl16	r9,0x257c
    20d8:	0d 60 01 23 	wh16	r9,0x3
    20dc:	10 40 01 29 	ld32	r9,r9
    20e0:	00 00 01 10 	add	r8,r16
    20e4:	20 70 03 e2 	movepc	rret,8
    20e8:	14 30 f7 ca 	br	10 <compare>,#al
    20ec:	00 10 00 41 	add	r2,1
    20f0:	0d 40 51 00 	wl16	r8,0x280
    20f4:	0d 60 01 03 	wh16	r8,0x3
    20f8:	10 40 01 08 	ld32	r8,r8
    20fc:	0d 42 82 00 	wl16	r16,0x1400
    2100:	0d 60 02 03 	wh16	r16,0x3
    2104:	10 40 02 10 	ld32	r16,r16
    2108:	0d 44 b1 20 	wl16	r9,0x2580
    210c:	0d 60 01 23 	wh16	r9,0x3
    2110:	10 40 01 29 	ld32	r9,r9
    2114:	00 00 01 10 	add	r8,r16
    2118:	20 70 03 e2 	movepc	rret,8
    211c:	14 30 f7 bd 	br	10 <compare>,#al
    2120:	00 10 00 41 	add	r2,1
    2124:	0d 40 51 04 	wl16	r8,0x284
    2128:	0d 60 01 03 	wh16	r8,0x3
    212c:	10 40 01 08 	ld32	r8,r8
    2130:	0d 42 82 04 	wl16	r16,0x1404
    2134:	0d 60 02 03 	wh16	r16,0x3
    2138:	10 40 02 10 	ld32	r16,r16
    213c:	0d 44 b1 24 	wl16	r9,0x2584
    2140:	0d 60 01 23 	wh16	r9,0x3
    2144:	10 40 01 29 	ld32	r9,r9
    2148:	00 00 01 10 	add	r8,r16
    214c:	20 70 03 e2 	movepc	rret,8
    2150:	14 30 f7 b0 	br	10 <compare>,#al
    2154:	00 10 00 41 	add	r2,1
    2158:	0d 40 51 08 	wl16	r8,0x288
    215c:	0d 60 01 03 	wh16	r8,0x3
    2160:	10 40 01 08 	ld32	r8,r8
    2164:	0d 42 82 08 	wl16	r16,0x1408
    2168:	0d 60 02 03 	wh16	r16,0x3
    216c:	10 40 02 10 	ld32	r16,r16
    2170:	0d 44 b1 28 	wl16	r9,0x2588
    2174:	0d 60 01 23 	wh16	r9,0x3
    2178:	10 40 01 29 	ld32	r9,r9
    217c:	00 00 01 10 	add	r8,r16
    2180:	20 70 03 e2 	movepc	rret,8
    2184:	14 30 f7 a3 	br	10 <compare>,#al
    2188:	00 10 00 41 	add	r2,1
    218c:	0d 40 51 0c 	wl16	r8,0x28c
    2190:	0d 60 01 03 	wh16	r8,0x3
    2194:	10 40 01 08 	ld32	r8,r8
    2198:	0d 42 82 0c 	wl16	r16,0x140c
    219c:	0d 60 02 03 	wh16	r16,0x3
    21a0:	10 40 02 10 	ld32	r16,r16
    21a4:	0d 44 b1 2c 	wl16	r9,0x258c
    21a8:	0d 60 01 23 	wh16	r9,0x3
    21ac:	10 40 01 29 	ld32	r9,r9
    21b0:	00 00 01 10 	add	r8,r16
    21b4:	20 70 03 e2 	movepc	rret,8
    21b8:	14 30 f7 96 	br	10 <compare>,#al
    21bc:	00 10 00 41 	add	r2,1
    21c0:	0d 40 51 10 	wl16	r8,0x290
    21c4:	0d 60 01 03 	wh16	r8,0x3
    21c8:	10 40 01 08 	ld32	r8,r8
    21cc:	0d 42 82 10 	wl16	r16,0x1410
    21d0:	0d 60 02 03 	wh16	r16,0x3
    21d4:	10 40 02 10 	ld32	r16,r16
    21d8:	0d 44 b1 30 	wl16	r9,0x2590
    21dc:	0d 60 01 23 	wh16	r9,0x3
    21e0:	10 40 01 29 	ld32	r9,r9
    21e4:	00 00 01 10 	add	r8,r16
    21e8:	20 70 03 e2 	movepc	rret,8
    21ec:	14 30 f7 89 	br	10 <compare>,#al
    21f0:	00 10 00 41 	add	r2,1
    21f4:	0d 40 51 14 	wl16	r8,0x294
    21f8:	0d 60 01 03 	wh16	r8,0x3
    21fc:	10 40 01 08 	ld32	r8,r8
    2200:	0d 42 82 14 	wl16	r16,0x1414
    2204:	0d 60 02 03 	wh16	r16,0x3
    2208:	10 40 02 10 	ld32	r16,r16
    220c:	0d 44 b1 34 	wl16	r9,0x2594
    2210:	0d 60 01 23 	wh16	r9,0x3
    2214:	10 40 01 29 	ld32	r9,r9
    2218:	00 00 01 10 	add	r8,r16
    221c:	20 70 03 e2 	movepc	rret,8
    2220:	14 30 f7 7c 	br	10 <compare>,#al
    2224:	00 10 00 41 	add	r2,1
    2228:	0d 40 51 18 	wl16	r8,0x298
    222c:	0d 60 01 03 	wh16	r8,0x3
    2230:	10 40 01 08 	ld32	r8,r8
    2234:	0d 42 82 18 	wl16	r16,0x1418
    2238:	0d 60 02 03 	wh16	r16,0x3
    223c:	10 40 02 10 	ld32	r16,r16
    2240:	0d 44 b1 38 	wl16	r9,0x2598
    2244:	0d 60 01 23 	wh16	r9,0x3
    2248:	10 40 01 29 	ld32	r9,r9
    224c:	00 00 01 10 	add	r8,r16
    2250:	20 70 03 e2 	movepc	rret,8
    2254:	14 30 f7 6f 	br	10 <compare>,#al
    2258:	00 10 00 41 	add	r2,1
    225c:	0d 40 51 1c 	wl16	r8,0x29c
    2260:	0d 60 01 03 	wh16	r8,0x3
    2264:	10 40 01 08 	ld32	r8,r8
    2268:	0d 42 82 1c 	wl16	r16,0x141c
    226c:	0d 60 02 03 	wh16	r16,0x3
    2270:	10 40 02 10 	ld32	r16,r16
    2274:	0d 44 b1 3c 	wl16	r9,0x259c
    2278:	0d 60 01 23 	wh16	r9,0x3
    227c:	10 40 01 29 	ld32	r9,r9
    2280:	00 00 01 10 	add	r8,r16
    2284:	20 70 03 e2 	movepc	rret,8
    2288:	14 30 f7 62 	br	10 <compare>,#al
    228c:	00 10 00 41 	add	r2,1
    2290:	0d 40 55 00 	wl16	r8,0x2a0
    2294:	0d 60 01 03 	wh16	r8,0x3
    2298:	10 40 01 08 	ld32	r8,r8
    229c:	0d 42 86 00 	wl16	r16,0x1420
    22a0:	0d 60 02 03 	wh16	r16,0x3
    22a4:	10 40 02 10 	ld32	r16,r16
    22a8:	0d 44 b5 20 	wl16	r9,0x25a0
    22ac:	0d 60 01 23 	wh16	r9,0x3
    22b0:	10 40 01 29 	ld32	r9,r9
    22b4:	00 00 01 10 	add	r8,r16
    22b8:	20 70 03 e2 	movepc	rret,8
    22bc:	14 30 f7 55 	br	10 <compare>,#al
    22c0:	00 10 00 41 	add	r2,1
    22c4:	0d 40 55 04 	wl16	r8,0x2a4
    22c8:	0d 60 01 03 	wh16	r8,0x3
    22cc:	10 40 01 08 	ld32	r8,r8
    22d0:	0d 42 86 04 	wl16	r16,0x1424
    22d4:	0d 60 02 03 	wh16	r16,0x3
    22d8:	10 40 02 10 	ld32	r16,r16
    22dc:	0d 44 b5 24 	wl16	r9,0x25a4
    22e0:	0d 60 01 23 	wh16	r9,0x3
    22e4:	10 40 01 29 	ld32	r9,r9
    22e8:	00 00 01 10 	add	r8,r16
    22ec:	20 70 03 e2 	movepc	rret,8
    22f0:	14 30 f7 48 	br	10 <compare>,#al
    22f4:	00 10 00 41 	add	r2,1
    22f8:	0d 40 55 08 	wl16	r8,0x2a8
    22fc:	0d 60 01 03 	wh16	r8,0x3
    2300:	10 40 01 08 	ld32	r8,r8
    2304:	0d 42 86 08 	wl16	r16,0x1428
    2308:	0d 60 02 03 	wh16	r16,0x3
    230c:	10 40 02 10 	ld32	r16,r16
    2310:	0d 44 b5 28 	wl16	r9,0x25a8
    2314:	0d 60 01 23 	wh16	r9,0x3
    2318:	10 40 01 29 	ld32	r9,r9
    231c:	00 00 01 10 	add	r8,r16
    2320:	20 70 03 e2 	movepc	rret,8
    2324:	14 30 f7 3b 	br	10 <compare>,#al
    2328:	00 10 00 41 	add	r2,1
    232c:	0d 40 55 0c 	wl16	r8,0x2ac
    2330:	0d 60 01 03 	wh16	r8,0x3
    2334:	10 40 01 08 	ld32	r8,r8
    2338:	0d 42 86 0c 	wl16	r16,0x142c
    233c:	0d 60 02 03 	wh16	r16,0x3
    2340:	10 40 02 10 	ld32	r16,r16
    2344:	0d 44 b5 2c 	wl16	r9,0x25ac
    2348:	0d 60 01 23 	wh16	r9,0x3
    234c:	10 40 01 29 	ld32	r9,r9
    2350:	00 00 01 10 	add	r8,r16
    2354:	20 70 03 e2 	movepc	rret,8
    2358:	14 30 f7 2e 	br	10 <compare>,#al
    235c:	00 10 00 41 	add	r2,1
    2360:	0d 40 55 10 	wl16	r8,0x2b0
    2364:	0d 60 01 03 	wh16	r8,0x3
    2368:	10 40 01 08 	ld32	r8,r8
    236c:	0d 42 86 10 	wl16	r16,0x1430
    2370:	0d 60 02 03 	wh16	r16,0x3
    2374:	10 40 02 10 	ld32	r16,r16
    2378:	0d 44 b5 30 	wl16	r9,0x25b0
    237c:	0d 60 01 23 	wh16	r9,0x3
    2380:	10 40 01 29 	ld32	r9,r9
    2384:	00 00 01 10 	add	r8,r16
    2388:	20 70 03 e2 	movepc	rret,8
    238c:	14 30 f7 21 	br	10 <compare>,#al
    2390:	00 10 00 41 	add	r2,1
    2394:	0d 40 55 14 	wl16	r8,0x2b4
    2398:	0d 60 01 03 	wh16	r8,0x3
    239c:	10 40 01 08 	ld32	r8,r8
    23a0:	0d 42 86 14 	wl16	r16,0x1434
    23a4:	0d 60 02 03 	wh16	r16,0x3
    23a8:	10 40 02 10 	ld32	r16,r16
    23ac:	0d 44 b5 34 	wl16	r9,0x25b4
    23b0:	0d 60 01 23 	wh16	r9,0x3
    23b4:	10 40 01 29 	ld32	r9,r9
    23b8:	00 00 01 10 	add	r8,r16
    23bc:	20 70 03 e2 	movepc	rret,8
    23c0:	14 30 f7 14 	br	10 <compare>,#al
    23c4:	00 10 00 41 	add	r2,1
    23c8:	0d 40 55 18 	wl16	r8,0x2b8
    23cc:	0d 60 01 03 	wh16	r8,0x3
    23d0:	10 40 01 08 	ld32	r8,r8
    23d4:	0d 42 86 18 	wl16	r16,0x1438
    23d8:	0d 60 02 03 	wh16	r16,0x3
    23dc:	10 40 02 10 	ld32	r16,r16
    23e0:	0d 44 b5 38 	wl16	r9,0x25b8
    23e4:	0d 60 01 23 	wh16	r9,0x3
    23e8:	10 40 01 29 	ld32	r9,r9
    23ec:	00 00 01 10 	add	r8,r16
    23f0:	20 70 03 e2 	movepc	rret,8
    23f4:	14 30 f7 07 	br	10 <compare>,#al
    23f8:	00 10 00 41 	add	r2,1
    23fc:	0d 40 55 1c 	wl16	r8,0x2bc
    2400:	0d 60 01 03 	wh16	r8,0x3
    2404:	10 40 01 08 	ld32	r8,r8
    2408:	0d 42 86 1c 	wl16	r16,0x143c
    240c:	0d 60 02 03 	wh16	r16,0x3
    2410:	10 40 02 10 	ld32	r16,r16
    2414:	0d 44 b5 3c 	wl16	r9,0x25bc
    2418:	0d 60 01 23 	wh16	r9,0x3
    241c:	10 40 01 29 	ld32	r9,r9
    2420:	00 00 01 10 	add	r8,r16
    2424:	20 70 03 e2 	movepc	rret,8
    2428:	14 30 f6 fa 	br	10 <compare>,#al
    242c:	00 10 00 41 	add	r2,1
    2430:	0d 40 59 00 	wl16	r8,0x2c0
    2434:	0d 60 01 03 	wh16	r8,0x3
    2438:	10 40 01 08 	ld32	r8,r8
    243c:	0d 42 8a 00 	wl16	r16,0x1440
    2440:	0d 60 02 03 	wh16	r16,0x3
    2444:	10 40 02 10 	ld32	r16,r16
    2448:	0d 44 b9 20 	wl16	r9,0x25c0
    244c:	0d 60 01 23 	wh16	r9,0x3
    2450:	10 40 01 29 	ld32	r9,r9
    2454:	00 00 01 10 	add	r8,r16
    2458:	20 70 03 e2 	movepc	rret,8
    245c:	14 30 f6 ed 	br	10 <compare>,#al
    2460:	00 10 00 41 	add	r2,1
    2464:	0d 40 59 04 	wl16	r8,0x2c4
    2468:	0d 60 01 03 	wh16	r8,0x3
    246c:	10 40 01 08 	ld32	r8,r8
    2470:	0d 42 8a 04 	wl16	r16,0x1444
    2474:	0d 60 02 03 	wh16	r16,0x3
    2478:	10 40 02 10 	ld32	r16,r16
    247c:	0d 44 b9 24 	wl16	r9,0x25c4
    2480:	0d 60 01 23 	wh16	r9,0x3
    2484:	10 40 01 29 	ld32	r9,r9
    2488:	00 00 01 10 	add	r8,r16
    248c:	20 70 03 e2 	movepc	rret,8
    2490:	14 30 f6 e0 	br	10 <compare>,#al
    2494:	00 10 00 41 	add	r2,1
    2498:	0d 40 59 08 	wl16	r8,0x2c8
    249c:	0d 60 01 03 	wh16	r8,0x3
    24a0:	10 40 01 08 	ld32	r8,r8
    24a4:	0d 42 8a 08 	wl16	r16,0x1448
    24a8:	0d 60 02 03 	wh16	r16,0x3
    24ac:	10 40 02 10 	ld32	r16,r16
    24b0:	0d 44 b9 28 	wl16	r9,0x25c8
    24b4:	0d 60 01 23 	wh16	r9,0x3
    24b8:	10 40 01 29 	ld32	r9,r9
    24bc:	00 00 01 10 	add	r8,r16
    24c0:	20 70 03 e2 	movepc	rret,8
    24c4:	14 30 f6 d3 	br	10 <compare>,#al
    24c8:	00 10 00 41 	add	r2,1
    24cc:	0d 40 59 0c 	wl16	r8,0x2cc
    24d0:	0d 60 01 03 	wh16	r8,0x3
    24d4:	10 40 01 08 	ld32	r8,r8
    24d8:	0d 42 8a 0c 	wl16	r16,0x144c
    24dc:	0d 60 02 03 	wh16	r16,0x3
    24e0:	10 40 02 10 	ld32	r16,r16
    24e4:	0d 44 b9 2c 	wl16	r9,0x25cc
    24e8:	0d 60 01 23 	wh16	r9,0x3
    24ec:	10 40 01 29 	ld32	r9,r9
    24f0:	00 00 01 10 	add	r8,r16
    24f4:	20 70 03 e2 	movepc	rret,8
    24f8:	14 30 f6 c6 	br	10 <compare>,#al
    24fc:	00 10 00 41 	add	r2,1
    2500:	0d 40 59 10 	wl16	r8,0x2d0
    2504:	0d 60 01 03 	wh16	r8,0x3
    2508:	10 40 01 08 	ld32	r8,r8
    250c:	0d 42 8a 10 	wl16	r16,0x1450
    2510:	0d 60 02 03 	wh16	r16,0x3
    2514:	10 40 02 10 	ld32	r16,r16
    2518:	0d 44 b9 30 	wl16	r9,0x25d0
    251c:	0d 60 01 23 	wh16	r9,0x3
    2520:	10 40 01 29 	ld32	r9,r9
    2524:	00 00 01 10 	add	r8,r16
    2528:	20 70 03 e2 	movepc	rret,8
    252c:	14 30 f6 b9 	br	10 <compare>,#al
    2530:	00 10 00 41 	add	r2,1
    2534:	0d 40 59 14 	wl16	r8,0x2d4
    2538:	0d 60 01 03 	wh16	r8,0x3
    253c:	10 40 01 08 	ld32	r8,r8
    2540:	0d 42 8a 14 	wl16	r16,0x1454
    2544:	0d 60 02 03 	wh16	r16,0x3
    2548:	10 40 02 10 	ld32	r16,r16
    254c:	0d 44 b9 34 	wl16	r9,0x25d4
    2550:	0d 60 01 23 	wh16	r9,0x3
    2554:	10 40 01 29 	ld32	r9,r9
    2558:	00 00 01 10 	add	r8,r16
    255c:	20 70 03 e2 	movepc	rret,8
    2560:	14 30 f6 ac 	br	10 <compare>,#al
    2564:	00 10 00 41 	add	r2,1
    2568:	0d 40 59 18 	wl16	r8,0x2d8
    256c:	0d 60 01 03 	wh16	r8,0x3
    2570:	10 40 01 08 	ld32	r8,r8
    2574:	0d 42 8a 18 	wl16	r16,0x1458
    2578:	0d 60 02 03 	wh16	r16,0x3
    257c:	10 40 02 10 	ld32	r16,r16
    2580:	0d 44 b9 38 	wl16	r9,0x25d8
    2584:	0d 60 01 23 	wh16	r9,0x3
    2588:	10 40 01 29 	ld32	r9,r9
    258c:	00 00 01 10 	add	r8,r16
    2590:	20 70 03 e2 	movepc	rret,8
    2594:	14 30 f6 9f 	br	10 <compare>,#al
    2598:	00 10 00 41 	add	r2,1
    259c:	0d 40 59 1c 	wl16	r8,0x2dc
    25a0:	0d 60 01 03 	wh16	r8,0x3
    25a4:	10 40 01 08 	ld32	r8,r8
    25a8:	0d 42 8a 1c 	wl16	r16,0x145c
    25ac:	0d 60 02 03 	wh16	r16,0x3
    25b0:	10 40 02 10 	ld32	r16,r16
    25b4:	0d 44 b9 3c 	wl16	r9,0x25dc
    25b8:	0d 60 01 23 	wh16	r9,0x3
    25bc:	10 40 01 29 	ld32	r9,r9
    25c0:	00 00 01 10 	add	r8,r16
    25c4:	20 70 03 e2 	movepc	rret,8
    25c8:	14 30 f6 92 	br	10 <compare>,#al
    25cc:	00 10 00 41 	add	r2,1
    25d0:	0d 40 5d 00 	wl16	r8,0x2e0
    25d4:	0d 60 01 03 	wh16	r8,0x3
    25d8:	10 40 01 08 	ld32	r8,r8
    25dc:	0d 42 8e 00 	wl16	r16,0x1460
    25e0:	0d 60 02 03 	wh16	r16,0x3
    25e4:	10 40 02 10 	ld32	r16,r16
    25e8:	0d 44 bd 20 	wl16	r9,0x25e0
    25ec:	0d 60 01 23 	wh16	r9,0x3
    25f0:	10 40 01 29 	ld32	r9,r9
    25f4:	00 00 01 10 	add	r8,r16
    25f8:	20 70 03 e2 	movepc	rret,8
    25fc:	14 30 f6 85 	br	10 <compare>,#al
    2600:	00 10 00 41 	add	r2,1
    2604:	0d 40 5d 04 	wl16	r8,0x2e4
    2608:	0d 60 01 03 	wh16	r8,0x3
    260c:	10 40 01 08 	ld32	r8,r8
    2610:	0d 42 8e 04 	wl16	r16,0x1464
    2614:	0d 60 02 03 	wh16	r16,0x3
    2618:	10 40 02 10 	ld32	r16,r16
    261c:	0d 44 bd 24 	wl16	r9,0x25e4
    2620:	0d 60 01 23 	wh16	r9,0x3
    2624:	10 40 01 29 	ld32	r9,r9
    2628:	00 00 01 10 	add	r8,r16
    262c:	20 70 03 e2 	movepc	rret,8
    2630:	14 30 f6 78 	br	10 <compare>,#al
    2634:	00 10 00 41 	add	r2,1
    2638:	0d 40 5d 08 	wl16	r8,0x2e8
    263c:	0d 60 01 03 	wh16	r8,0x3
    2640:	10 40 01 08 	ld32	r8,r8
    2644:	0d 42 8e 08 	wl16	r16,0x1468
    2648:	0d 60 02 03 	wh16	r16,0x3
    264c:	10 40 02 10 	ld32	r16,r16
    2650:	0d 44 bd 28 	wl16	r9,0x25e8
    2654:	0d 60 01 23 	wh16	r9,0x3
    2658:	10 40 01 29 	ld32	r9,r9
    265c:	00 00 01 10 	add	r8,r16
    2660:	20 70 03 e2 	movepc	rret,8
    2664:	14 30 f6 6b 	br	10 <compare>,#al
    2668:	00 10 00 41 	add	r2,1
    266c:	0d 40 5d 0c 	wl16	r8,0x2ec
    2670:	0d 60 01 03 	wh16	r8,0x3
    2674:	10 40 01 08 	ld32	r8,r8
    2678:	0d 42 8e 0c 	wl16	r16,0x146c
    267c:	0d 60 02 03 	wh16	r16,0x3
    2680:	10 40 02 10 	ld32	r16,r16
    2684:	0d 44 bd 2c 	wl16	r9,0x25ec
    2688:	0d 60 01 23 	wh16	r9,0x3
    268c:	10 40 01 29 	ld32	r9,r9
    2690:	00 00 01 10 	add	r8,r16
    2694:	20 70 03 e2 	movepc	rret,8
    2698:	14 30 f6 5e 	br	10 <compare>,#al
    269c:	00 10 00 41 	add	r2,1
    26a0:	0d 40 5d 10 	wl16	r8,0x2f0
    26a4:	0d 60 01 03 	wh16	r8,0x3
    26a8:	10 40 01 08 	ld32	r8,r8
    26ac:	0d 42 8e 10 	wl16	r16,0x1470
    26b0:	0d 60 02 03 	wh16	r16,0x3
    26b4:	10 40 02 10 	ld32	r16,r16
    26b8:	0d 44 bd 30 	wl16	r9,0x25f0
    26bc:	0d 60 01 23 	wh16	r9,0x3
    26c0:	10 40 01 29 	ld32	r9,r9
    26c4:	00 00 01 10 	add	r8,r16
    26c8:	20 70 03 e2 	movepc	rret,8
    26cc:	14 30 f6 51 	br	10 <compare>,#al
    26d0:	00 10 00 41 	add	r2,1
    26d4:	0d 40 5d 14 	wl16	r8,0x2f4
    26d8:	0d 60 01 03 	wh16	r8,0x3
    26dc:	10 40 01 08 	ld32	r8,r8
    26e0:	0d 42 8e 14 	wl16	r16,0x1474
    26e4:	0d 60 02 03 	wh16	r16,0x3
    26e8:	10 40 02 10 	ld32	r16,r16
    26ec:	0d 44 bd 34 	wl16	r9,0x25f4
    26f0:	0d 60 01 23 	wh16	r9,0x3
    26f4:	10 40 01 29 	ld32	r9,r9
    26f8:	00 00 01 10 	add	r8,r16
    26fc:	20 70 03 e2 	movepc	rret,8
    2700:	14 30 f6 44 	br	10 <compare>,#al
    2704:	00 10 00 41 	add	r2,1
    2708:	0d 40 5d 18 	wl16	r8,0x2f8
    270c:	0d 60 01 03 	wh16	r8,0x3
    2710:	10 40 01 08 	ld32	r8,r8
    2714:	0d 42 8e 18 	wl16	r16,0x1478
    2718:	0d 60 02 03 	wh16	r16,0x3
    271c:	10 40 02 10 	ld32	r16,r16
    2720:	0d 44 bd 38 	wl16	r9,0x25f8
    2724:	0d 60 01 23 	wh16	r9,0x3
    2728:	10 40 01 29 	ld32	r9,r9
    272c:	00 00 01 10 	add	r8,r16
    2730:	20 70 03 e2 	movepc	rret,8
    2734:	14 30 f6 37 	br	10 <compare>,#al
    2738:	00 10 00 41 	add	r2,1
    273c:	0d 40 5d 1c 	wl16	r8,0x2fc
    2740:	0d 60 01 03 	wh16	r8,0x3
    2744:	10 40 01 08 	ld32	r8,r8
    2748:	0d 42 8e 1c 	wl16	r16,0x147c
    274c:	0d 60 02 03 	wh16	r16,0x3
    2750:	10 40 02 10 	ld32	r16,r16
    2754:	0d 44 bd 3c 	wl16	r9,0x25fc
    2758:	0d 60 01 23 	wh16	r9,0x3
    275c:	10 40 01 29 	ld32	r9,r9
    2760:	00 00 01 10 	add	r8,r16
    2764:	20 70 03 e2 	movepc	rret,8
    2768:	14 30 f6 2a 	br	10 <compare>,#al
    276c:	00 10 00 41 	add	r2,1
    2770:	0d 40 61 00 	wl16	r8,0x300
    2774:	0d 60 01 03 	wh16	r8,0x3
    2778:	10 40 01 08 	ld32	r8,r8
    277c:	0d 42 92 00 	wl16	r16,0x1480
    2780:	0d 60 02 03 	wh16	r16,0x3
    2784:	10 40 02 10 	ld32	r16,r16
    2788:	0d 44 c1 20 	wl16	r9,0x2600
    278c:	0d 60 01 23 	wh16	r9,0x3
    2790:	10 40 01 29 	ld32	r9,r9
    2794:	00 00 01 10 	add	r8,r16
    2798:	20 70 03 e2 	movepc	rret,8
    279c:	14 30 f6 1d 	br	10 <compare>,#al
    27a0:	00 10 00 41 	add	r2,1
    27a4:	0d 40 61 04 	wl16	r8,0x304
    27a8:	0d 60 01 03 	wh16	r8,0x3
    27ac:	10 40 01 08 	ld32	r8,r8
    27b0:	0d 42 92 04 	wl16	r16,0x1484
    27b4:	0d 60 02 03 	wh16	r16,0x3
    27b8:	10 40 02 10 	ld32	r16,r16
    27bc:	0d 44 c1 24 	wl16	r9,0x2604
    27c0:	0d 60 01 23 	wh16	r9,0x3
    27c4:	10 40 01 29 	ld32	r9,r9
    27c8:	00 00 01 10 	add	r8,r16
    27cc:	20 70 03 e2 	movepc	rret,8
    27d0:	14 30 f6 10 	br	10 <compare>,#al
    27d4:	00 10 00 41 	add	r2,1
    27d8:	0d 40 61 08 	wl16	r8,0x308
    27dc:	0d 60 01 03 	wh16	r8,0x3
    27e0:	10 40 01 08 	ld32	r8,r8
    27e4:	0d 42 92 08 	wl16	r16,0x1488
    27e8:	0d 60 02 03 	wh16	r16,0x3
    27ec:	10 40 02 10 	ld32	r16,r16
    27f0:	0d 44 c1 28 	wl16	r9,0x2608
    27f4:	0d 60 01 23 	wh16	r9,0x3
    27f8:	10 40 01 29 	ld32	r9,r9
    27fc:	00 00 01 10 	add	r8,r16
    2800:	20 70 03 e2 	movepc	rret,8
    2804:	14 30 f6 03 	br	10 <compare>,#al
    2808:	00 10 00 41 	add	r2,1
    280c:	0d 40 61 0c 	wl16	r8,0x30c
    2810:	0d 60 01 03 	wh16	r8,0x3
    2814:	10 40 01 08 	ld32	r8,r8
    2818:	0d 42 92 0c 	wl16	r16,0x148c
    281c:	0d 60 02 03 	wh16	r16,0x3
    2820:	10 40 02 10 	ld32	r16,r16
    2824:	0d 44 c1 2c 	wl16	r9,0x260c
    2828:	0d 60 01 23 	wh16	r9,0x3
    282c:	10 40 01 29 	ld32	r9,r9
    2830:	00 00 01 10 	add	r8,r16
    2834:	20 70 03 e2 	movepc	rret,8
    2838:	14 30 f5 f6 	br	10 <compare>,#al
    283c:	00 10 00 41 	add	r2,1
    2840:	0d 40 61 10 	wl16	r8,0x310
    2844:	0d 60 01 03 	wh16	r8,0x3
    2848:	10 40 01 08 	ld32	r8,r8
    284c:	0d 42 92 10 	wl16	r16,0x1490
    2850:	0d 60 02 03 	wh16	r16,0x3
    2854:	10 40 02 10 	ld32	r16,r16
    2858:	0d 44 c1 30 	wl16	r9,0x2610
    285c:	0d 60 01 23 	wh16	r9,0x3
    2860:	10 40 01 29 	ld32	r9,r9
    2864:	00 00 01 10 	add	r8,r16
    2868:	20 70 03 e2 	movepc	rret,8
    286c:	14 30 f5 e9 	br	10 <compare>,#al
    2870:	00 10 00 41 	add	r2,1
    2874:	0d 40 61 14 	wl16	r8,0x314
    2878:	0d 60 01 03 	wh16	r8,0x3
    287c:	10 40 01 08 	ld32	r8,r8
    2880:	0d 42 92 14 	wl16	r16,0x1494
    2884:	0d 60 02 03 	wh16	r16,0x3
    2888:	10 40 02 10 	ld32	r16,r16
    288c:	0d 44 c1 34 	wl16	r9,0x2614
    2890:	0d 60 01 23 	wh16	r9,0x3
    2894:	10 40 01 29 	ld32	r9,r9
    2898:	00 00 01 10 	add	r8,r16
    289c:	20 70 03 e2 	movepc	rret,8
    28a0:	14 30 f5 dc 	br	10 <compare>,#al
    28a4:	00 10 00 41 	add	r2,1
    28a8:	0d 40 61 18 	wl16	r8,0x318
    28ac:	0d 60 01 03 	wh16	r8,0x3
    28b0:	10 40 01 08 	ld32	r8,r8
    28b4:	0d 42 92 18 	wl16	r16,0x1498
    28b8:	0d 60 02 03 	wh16	r16,0x3
    28bc:	10 40 02 10 	ld32	r16,r16
    28c0:	0d 44 c1 38 	wl16	r9,0x2618
    28c4:	0d 60 01 23 	wh16	r9,0x3
    28c8:	10 40 01 29 	ld32	r9,r9
    28cc:	00 00 01 10 	add	r8,r16
    28d0:	20 70 03 e2 	movepc	rret,8
    28d4:	14 30 f5 cf 	br	10 <compare>,#al
    28d8:	00 10 00 41 	add	r2,1
    28dc:	0d 40 61 1c 	wl16	r8,0x31c
    28e0:	0d 60 01 03 	wh16	r8,0x3
    28e4:	10 40 01 08 	ld32	r8,r8
    28e8:	0d 42 92 1c 	wl16	r16,0x149c
    28ec:	0d 60 02 03 	wh16	r16,0x3
    28f0:	10 40 02 10 	ld32	r16,r16
    28f4:	0d 44 c1 3c 	wl16	r9,0x261c
    28f8:	0d 60 01 23 	wh16	r9,0x3
    28fc:	10 40 01 29 	ld32	r9,r9
    2900:	00 00 01 10 	add	r8,r16
    2904:	20 70 03 e2 	movepc	rret,8
    2908:	14 30 f5 c2 	br	10 <compare>,#al
    290c:	00 10 00 41 	add	r2,1
    2910:	0d 40 65 00 	wl16	r8,0x320
    2914:	0d 60 01 03 	wh16	r8,0x3
    2918:	10 40 01 08 	ld32	r8,r8
    291c:	0d 42 96 00 	wl16	r16,0x14a0
    2920:	0d 60 02 03 	wh16	r16,0x3
    2924:	10 40 02 10 	ld32	r16,r16
    2928:	0d 44 c5 20 	wl16	r9,0x2620
    292c:	0d 60 01 23 	wh16	r9,0x3
    2930:	10 40 01 29 	ld32	r9,r9
    2934:	00 00 01 10 	add	r8,r16
    2938:	20 70 03 e2 	movepc	rret,8
    293c:	14 30 f5 b5 	br	10 <compare>,#al
    2940:	00 10 00 41 	add	r2,1
    2944:	0d 40 65 04 	wl16	r8,0x324
    2948:	0d 60 01 03 	wh16	r8,0x3
    294c:	10 40 01 08 	ld32	r8,r8
    2950:	0d 42 96 04 	wl16	r16,0x14a4
    2954:	0d 60 02 03 	wh16	r16,0x3
    2958:	10 40 02 10 	ld32	r16,r16
    295c:	0d 44 c5 24 	wl16	r9,0x2624
    2960:	0d 60 01 23 	wh16	r9,0x3
    2964:	10 40 01 29 	ld32	r9,r9
    2968:	00 00 01 10 	add	r8,r16
    296c:	20 70 03 e2 	movepc	rret,8
    2970:	14 30 f5 a8 	br	10 <compare>,#al
    2974:	00 10 00 41 	add	r2,1
    2978:	0d 40 65 08 	wl16	r8,0x328
    297c:	0d 60 01 03 	wh16	r8,0x3
    2980:	10 40 01 08 	ld32	r8,r8
    2984:	0d 42 96 08 	wl16	r16,0x14a8
    2988:	0d 60 02 03 	wh16	r16,0x3
    298c:	10 40 02 10 	ld32	r16,r16
    2990:	0d 44 c5 28 	wl16	r9,0x2628
    2994:	0d 60 01 23 	wh16	r9,0x3
    2998:	10 40 01 29 	ld32	r9,r9
    299c:	00 00 01 10 	add	r8,r16
    29a0:	20 70 03 e2 	movepc	rret,8
    29a4:	14 30 f5 9b 	br	10 <compare>,#al
    29a8:	00 10 00 41 	add	r2,1
    29ac:	0d 40 65 0c 	wl16	r8,0x32c
    29b0:	0d 60 01 03 	wh16	r8,0x3
    29b4:	10 40 01 08 	ld32	r8,r8
    29b8:	0d 42 96 0c 	wl16	r16,0x14ac
    29bc:	0d 60 02 03 	wh16	r16,0x3
    29c0:	10 40 02 10 	ld32	r16,r16
    29c4:	0d 44 c5 2c 	wl16	r9,0x262c
    29c8:	0d 60 01 23 	wh16	r9,0x3
    29cc:	10 40 01 29 	ld32	r9,r9
    29d0:	00 00 01 10 	add	r8,r16
    29d4:	20 70 03 e2 	movepc	rret,8
    29d8:	14 30 f5 8e 	br	10 <compare>,#al
    29dc:	00 10 00 41 	add	r2,1
    29e0:	0d 40 65 10 	wl16	r8,0x330
    29e4:	0d 60 01 03 	wh16	r8,0x3
    29e8:	10 40 01 08 	ld32	r8,r8
    29ec:	0d 42 96 10 	wl16	r16,0x14b0
    29f0:	0d 60 02 03 	wh16	r16,0x3
    29f4:	10 40 02 10 	ld32	r16,r16
    29f8:	0d 44 c5 30 	wl16	r9,0x2630
    29fc:	0d 60 01 23 	wh16	r9,0x3
    2a00:	10 40 01 29 	ld32	r9,r9
    2a04:	00 00 01 10 	add	r8,r16
    2a08:	20 70 03 e2 	movepc	rret,8
    2a0c:	14 30 f5 81 	br	10 <compare>,#al
    2a10:	00 10 00 41 	add	r2,1
    2a14:	0d 40 65 14 	wl16	r8,0x334
    2a18:	0d 60 01 03 	wh16	r8,0x3
    2a1c:	10 40 01 08 	ld32	r8,r8
    2a20:	0d 42 96 14 	wl16	r16,0x14b4
    2a24:	0d 60 02 03 	wh16	r16,0x3
    2a28:	10 40 02 10 	ld32	r16,r16
    2a2c:	0d 44 c5 34 	wl16	r9,0x2634
    2a30:	0d 60 01 23 	wh16	r9,0x3
    2a34:	10 40 01 29 	ld32	r9,r9
    2a38:	00 00 01 10 	add	r8,r16
    2a3c:	20 70 03 e2 	movepc	rret,8
    2a40:	14 30 f5 74 	br	10 <compare>,#al
    2a44:	00 10 00 41 	add	r2,1
    2a48:	0d 40 65 18 	wl16	r8,0x338
    2a4c:	0d 60 01 03 	wh16	r8,0x3
    2a50:	10 40 01 08 	ld32	r8,r8
    2a54:	0d 42 96 18 	wl16	r16,0x14b8
    2a58:	0d 60 02 03 	wh16	r16,0x3
    2a5c:	10 40 02 10 	ld32	r16,r16
    2a60:	0d 44 c5 38 	wl16	r9,0x2638
    2a64:	0d 60 01 23 	wh16	r9,0x3
    2a68:	10 40 01 29 	ld32	r9,r9
    2a6c:	00 00 01 10 	add	r8,r16
    2a70:	20 70 03 e2 	movepc	rret,8
    2a74:	14 30 f5 67 	br	10 <compare>,#al
    2a78:	00 10 00 41 	add	r2,1
    2a7c:	0d 40 65 1c 	wl16	r8,0x33c
    2a80:	0d 60 01 03 	wh16	r8,0x3
    2a84:	10 40 01 08 	ld32	r8,r8
    2a88:	0d 42 96 1c 	wl16	r16,0x14bc
    2a8c:	0d 60 02 03 	wh16	r16,0x3
    2a90:	10 40 02 10 	ld32	r16,r16
    2a94:	0d 44 c5 3c 	wl16	r9,0x263c
    2a98:	0d 60 01 23 	wh16	r9,0x3
    2a9c:	10 40 01 29 	ld32	r9,r9
    2aa0:	00 00 01 10 	add	r8,r16
    2aa4:	20 70 03 e2 	movepc	rret,8
    2aa8:	14 30 f5 5a 	br	10 <compare>,#al
    2aac:	00 10 00 41 	add	r2,1
    2ab0:	0d 40 69 00 	wl16	r8,0x340
    2ab4:	0d 60 01 03 	wh16	r8,0x3
    2ab8:	10 40 01 08 	ld32	r8,r8
    2abc:	0d 42 9a 00 	wl16	r16,0x14c0
    2ac0:	0d 60 02 03 	wh16	r16,0x3
    2ac4:	10 40 02 10 	ld32	r16,r16
    2ac8:	0d 44 c9 20 	wl16	r9,0x2640
    2acc:	0d 60 01 23 	wh16	r9,0x3
    2ad0:	10 40 01 29 	ld32	r9,r9
    2ad4:	00 00 01 10 	add	r8,r16
    2ad8:	20 70 03 e2 	movepc	rret,8
    2adc:	14 30 f5 4d 	br	10 <compare>,#al
    2ae0:	00 10 00 41 	add	r2,1
    2ae4:	0d 40 69 04 	wl16	r8,0x344
    2ae8:	0d 60 01 03 	wh16	r8,0x3
    2aec:	10 40 01 08 	ld32	r8,r8
    2af0:	0d 42 9a 04 	wl16	r16,0x14c4
    2af4:	0d 60 02 03 	wh16	r16,0x3
    2af8:	10 40 02 10 	ld32	r16,r16
    2afc:	0d 44 c9 24 	wl16	r9,0x2644
    2b00:	0d 60 01 23 	wh16	r9,0x3
    2b04:	10 40 01 29 	ld32	r9,r9
    2b08:	00 00 01 10 	add	r8,r16
    2b0c:	20 70 03 e2 	movepc	rret,8
    2b10:	14 30 f5 40 	br	10 <compare>,#al
    2b14:	00 10 00 41 	add	r2,1
    2b18:	0d 40 69 08 	wl16	r8,0x348
    2b1c:	0d 60 01 03 	wh16	r8,0x3
    2b20:	10 40 01 08 	ld32	r8,r8
    2b24:	0d 42 9a 08 	wl16	r16,0x14c8
    2b28:	0d 60 02 03 	wh16	r16,0x3
    2b2c:	10 40 02 10 	ld32	r16,r16
    2b30:	0d 44 c9 28 	wl16	r9,0x2648
    2b34:	0d 60 01 23 	wh16	r9,0x3
    2b38:	10 40 01 29 	ld32	r9,r9
    2b3c:	00 00 01 10 	add	r8,r16
    2b40:	20 70 03 e2 	movepc	rret,8
    2b44:	14 30 f5 33 	br	10 <compare>,#al
    2b48:	00 10 00 41 	add	r2,1
    2b4c:	0d 40 69 0c 	wl16	r8,0x34c
    2b50:	0d 60 01 03 	wh16	r8,0x3
    2b54:	10 40 01 08 	ld32	r8,r8
    2b58:	0d 42 9a 0c 	wl16	r16,0x14cc
    2b5c:	0d 60 02 03 	wh16	r16,0x3
    2b60:	10 40 02 10 	ld32	r16,r16
    2b64:	0d 44 c9 2c 	wl16	r9,0x264c
    2b68:	0d 60 01 23 	wh16	r9,0x3
    2b6c:	10 40 01 29 	ld32	r9,r9
    2b70:	00 00 01 10 	add	r8,r16
    2b74:	20 70 03 e2 	movepc	rret,8
    2b78:	14 30 f5 26 	br	10 <compare>,#al
    2b7c:	00 10 00 41 	add	r2,1
    2b80:	0d 40 69 10 	wl16	r8,0x350
    2b84:	0d 60 01 03 	wh16	r8,0x3
    2b88:	10 40 01 08 	ld32	r8,r8
    2b8c:	0d 42 9a 10 	wl16	r16,0x14d0
    2b90:	0d 60 02 03 	wh16	r16,0x3
    2b94:	10 40 02 10 	ld32	r16,r16
    2b98:	0d 44 c9 30 	wl16	r9,0x2650
    2b9c:	0d 60 01 23 	wh16	r9,0x3
    2ba0:	10 40 01 29 	ld32	r9,r9
    2ba4:	00 00 01 10 	add	r8,r16
    2ba8:	20 70 03 e2 	movepc	rret,8
    2bac:	14 30 f5 19 	br	10 <compare>,#al
    2bb0:	00 10 00 41 	add	r2,1
    2bb4:	0d 40 69 14 	wl16	r8,0x354
    2bb8:	0d 60 01 03 	wh16	r8,0x3
    2bbc:	10 40 01 08 	ld32	r8,r8
    2bc0:	0d 42 9a 14 	wl16	r16,0x14d4
    2bc4:	0d 60 02 03 	wh16	r16,0x3
    2bc8:	10 40 02 10 	ld32	r16,r16
    2bcc:	0d 44 c9 34 	wl16	r9,0x2654
    2bd0:	0d 60 01 23 	wh16	r9,0x3
    2bd4:	10 40 01 29 	ld32	r9,r9
    2bd8:	00 00 01 10 	add	r8,r16
    2bdc:	20 70 03 e2 	movepc	rret,8
    2be0:	14 30 f5 0c 	br	10 <compare>,#al
    2be4:	00 10 00 41 	add	r2,1
    2be8:	0d 40 69 18 	wl16	r8,0x358
    2bec:	0d 60 01 03 	wh16	r8,0x3
    2bf0:	10 40 01 08 	ld32	r8,r8
    2bf4:	0d 42 9a 18 	wl16	r16,0x14d8
    2bf8:	0d 60 02 03 	wh16	r16,0x3
    2bfc:	10 40 02 10 	ld32	r16,r16
    2c00:	0d 44 c9 38 	wl16	r9,0x2658
    2c04:	0d 60 01 23 	wh16	r9,0x3
    2c08:	10 40 01 29 	ld32	r9,r9
    2c0c:	00 00 01 10 	add	r8,r16
    2c10:	20 70 03 e2 	movepc	rret,8
    2c14:	14 30 f4 ff 	br	10 <compare>,#al
    2c18:	00 10 00 41 	add	r2,1
    2c1c:	0d 40 69 1c 	wl16	r8,0x35c
    2c20:	0d 60 01 03 	wh16	r8,0x3
    2c24:	10 40 01 08 	ld32	r8,r8
    2c28:	0d 42 9a 1c 	wl16	r16,0x14dc
    2c2c:	0d 60 02 03 	wh16	r16,0x3
    2c30:	10 40 02 10 	ld32	r16,r16
    2c34:	0d 44 c9 3c 	wl16	r9,0x265c
    2c38:	0d 60 01 23 	wh16	r9,0x3
    2c3c:	10 40 01 29 	ld32	r9,r9
    2c40:	00 00 01 10 	add	r8,r16
    2c44:	20 70 03 e2 	movepc	rret,8
    2c48:	14 30 f4 f2 	br	10 <compare>,#al
    2c4c:	00 10 00 41 	add	r2,1
    2c50:	0d 40 6d 00 	wl16	r8,0x360
    2c54:	0d 60 01 03 	wh16	r8,0x3
    2c58:	10 40 01 08 	ld32	r8,r8
    2c5c:	0d 42 9e 00 	wl16	r16,0x14e0
    2c60:	0d 60 02 03 	wh16	r16,0x3
    2c64:	10 40 02 10 	ld32	r16,r16
    2c68:	0d 44 cd 20 	wl16	r9,0x2660
    2c6c:	0d 60 01 23 	wh16	r9,0x3
    2c70:	10 40 01 29 	ld32	r9,r9
    2c74:	00 00 01 10 	add	r8,r16
    2c78:	20 70 03 e2 	movepc	rret,8
    2c7c:	14 30 f4 e5 	br	10 <compare>,#al
    2c80:	00 10 00 41 	add	r2,1
    2c84:	0d 40 6d 04 	wl16	r8,0x364
    2c88:	0d 60 01 03 	wh16	r8,0x3
    2c8c:	10 40 01 08 	ld32	r8,r8
    2c90:	0d 42 9e 04 	wl16	r16,0x14e4
    2c94:	0d 60 02 03 	wh16	r16,0x3
    2c98:	10 40 02 10 	ld32	r16,r16
    2c9c:	0d 44 cd 24 	wl16	r9,0x2664
    2ca0:	0d 60 01 23 	wh16	r9,0x3
    2ca4:	10 40 01 29 	ld32	r9,r9
    2ca8:	00 00 01 10 	add	r8,r16
    2cac:	20 70 03 e2 	movepc	rret,8
    2cb0:	14 30 f4 d8 	br	10 <compare>,#al
    2cb4:	00 10 00 41 	add	r2,1
    2cb8:	0d 40 6d 08 	wl16	r8,0x368
    2cbc:	0d 60 01 03 	wh16	r8,0x3
    2cc0:	10 40 01 08 	ld32	r8,r8
    2cc4:	0d 42 9e 08 	wl16	r16,0x14e8
    2cc8:	0d 60 02 03 	wh16	r16,0x3
    2ccc:	10 40 02 10 	ld32	r16,r16
    2cd0:	0d 44 cd 28 	wl16	r9,0x2668
    2cd4:	0d 60 01 23 	wh16	r9,0x3
    2cd8:	10 40 01 29 	ld32	r9,r9
    2cdc:	00 00 01 10 	add	r8,r16
    2ce0:	20 70 03 e2 	movepc	rret,8
    2ce4:	14 30 f4 cb 	br	10 <compare>,#al
    2ce8:	00 10 00 41 	add	r2,1
    2cec:	0d 40 6d 0c 	wl16	r8,0x36c
    2cf0:	0d 60 01 03 	wh16	r8,0x3
    2cf4:	10 40 01 08 	ld32	r8,r8
    2cf8:	0d 42 9e 0c 	wl16	r16,0x14ec
    2cfc:	0d 60 02 03 	wh16	r16,0x3
    2d00:	10 40 02 10 	ld32	r16,r16
    2d04:	0d 44 cd 2c 	wl16	r9,0x266c
    2d08:	0d 60 01 23 	wh16	r9,0x3
    2d0c:	10 40 01 29 	ld32	r9,r9
    2d10:	00 00 01 10 	add	r8,r16
    2d14:	20 70 03 e2 	movepc	rret,8
    2d18:	14 30 f4 be 	br	10 <compare>,#al
    2d1c:	00 10 00 41 	add	r2,1
    2d20:	0d 40 6d 10 	wl16	r8,0x370
    2d24:	0d 60 01 03 	wh16	r8,0x3
    2d28:	10 40 01 08 	ld32	r8,r8
    2d2c:	0d 42 9e 10 	wl16	r16,0x14f0
    2d30:	0d 60 02 03 	wh16	r16,0x3
    2d34:	10 40 02 10 	ld32	r16,r16
    2d38:	0d 44 cd 30 	wl16	r9,0x2670
    2d3c:	0d 60 01 23 	wh16	r9,0x3
    2d40:	10 40 01 29 	ld32	r9,r9
    2d44:	00 00 01 10 	add	r8,r16
    2d48:	20 70 03 e2 	movepc	rret,8
    2d4c:	14 30 f4 b1 	br	10 <compare>,#al
    2d50:	00 10 00 41 	add	r2,1
    2d54:	0d 40 6d 14 	wl16	r8,0x374
    2d58:	0d 60 01 03 	wh16	r8,0x3
    2d5c:	10 40 01 08 	ld32	r8,r8
    2d60:	0d 42 9e 14 	wl16	r16,0x14f4
    2d64:	0d 60 02 03 	wh16	r16,0x3
    2d68:	10 40 02 10 	ld32	r16,r16
    2d6c:	0d 44 cd 34 	wl16	r9,0x2674
    2d70:	0d 60 01 23 	wh16	r9,0x3
    2d74:	10 40 01 29 	ld32	r9,r9
    2d78:	00 00 01 10 	add	r8,r16
    2d7c:	20 70 03 e2 	movepc	rret,8
    2d80:	14 30 f4 a4 	br	10 <compare>,#al
    2d84:	00 10 00 41 	add	r2,1
    2d88:	0d 40 6d 18 	wl16	r8,0x378
    2d8c:	0d 60 01 03 	wh16	r8,0x3
    2d90:	10 40 01 08 	ld32	r8,r8
    2d94:	0d 42 9e 18 	wl16	r16,0x14f8
    2d98:	0d 60 02 03 	wh16	r16,0x3
    2d9c:	10 40 02 10 	ld32	r16,r16
    2da0:	0d 44 cd 38 	wl16	r9,0x2678
    2da4:	0d 60 01 23 	wh16	r9,0x3
    2da8:	10 40 01 29 	ld32	r9,r9
    2dac:	00 00 01 10 	add	r8,r16
    2db0:	20 70 03 e2 	movepc	rret,8
    2db4:	14 30 f4 97 	br	10 <compare>,#al
    2db8:	00 10 00 41 	add	r2,1
    2dbc:	0d 40 6d 1c 	wl16	r8,0x37c
    2dc0:	0d 60 01 03 	wh16	r8,0x3
    2dc4:	10 40 01 08 	ld32	r8,r8
    2dc8:	0d 42 9e 1c 	wl16	r16,0x14fc
    2dcc:	0d 60 02 03 	wh16	r16,0x3
    2dd0:	10 40 02 10 	ld32	r16,r16
    2dd4:	0d 44 cd 3c 	wl16	r9,0x267c
    2dd8:	0d 60 01 23 	wh16	r9,0x3
    2ddc:	10 40 01 29 	ld32	r9,r9
    2de0:	00 00 01 10 	add	r8,r16
    2de4:	20 70 03 e2 	movepc	rret,8
    2de8:	14 30 f4 8a 	br	10 <compare>,#al
    2dec:	00 10 00 41 	add	r2,1
    2df0:	0d 40 71 00 	wl16	r8,0x380
    2df4:	0d 60 01 03 	wh16	r8,0x3
    2df8:	10 40 01 08 	ld32	r8,r8
    2dfc:	0d 42 a2 00 	wl16	r16,0x1500
    2e00:	0d 60 02 03 	wh16	r16,0x3
    2e04:	10 40 02 10 	ld32	r16,r16
    2e08:	0d 44 d1 20 	wl16	r9,0x2680
    2e0c:	0d 60 01 23 	wh16	r9,0x3
    2e10:	10 40 01 29 	ld32	r9,r9
    2e14:	00 00 01 10 	add	r8,r16
    2e18:	20 70 03 e2 	movepc	rret,8
    2e1c:	14 30 f4 7d 	br	10 <compare>,#al
    2e20:	00 10 00 41 	add	r2,1
    2e24:	0d 40 71 04 	wl16	r8,0x384
    2e28:	0d 60 01 03 	wh16	r8,0x3
    2e2c:	10 40 01 08 	ld32	r8,r8
    2e30:	0d 42 a2 04 	wl16	r16,0x1504
    2e34:	0d 60 02 03 	wh16	r16,0x3
    2e38:	10 40 02 10 	ld32	r16,r16
    2e3c:	0d 44 d1 24 	wl16	r9,0x2684
    2e40:	0d 60 01 23 	wh16	r9,0x3
    2e44:	10 40 01 29 	ld32	r9,r9
    2e48:	00 00 01 10 	add	r8,r16
    2e4c:	20 70 03 e2 	movepc	rret,8
    2e50:	14 30 f4 70 	br	10 <compare>,#al
    2e54:	00 10 00 41 	add	r2,1
    2e58:	0d 40 71 08 	wl16	r8,0x388
    2e5c:	0d 60 01 03 	wh16	r8,0x3
    2e60:	10 40 01 08 	ld32	r8,r8
    2e64:	0d 42 a2 08 	wl16	r16,0x1508
    2e68:	0d 60 02 03 	wh16	r16,0x3
    2e6c:	10 40 02 10 	ld32	r16,r16
    2e70:	0d 44 d1 28 	wl16	r9,0x2688
    2e74:	0d 60 01 23 	wh16	r9,0x3
    2e78:	10 40 01 29 	ld32	r9,r9
    2e7c:	00 00 01 10 	add	r8,r16
    2e80:	20 70 03 e2 	movepc	rret,8
    2e84:	14 30 f4 63 	br	10 <compare>,#al
    2e88:	00 10 00 41 	add	r2,1
    2e8c:	0d 40 71 0c 	wl16	r8,0x38c
    2e90:	0d 60 01 03 	wh16	r8,0x3
    2e94:	10 40 01 08 	ld32	r8,r8
    2e98:	0d 42 a2 0c 	wl16	r16,0x150c
    2e9c:	0d 60 02 03 	wh16	r16,0x3
    2ea0:	10 40 02 10 	ld32	r16,r16
    2ea4:	0d 44 d1 2c 	wl16	r9,0x268c
    2ea8:	0d 60 01 23 	wh16	r9,0x3
    2eac:	10 40 01 29 	ld32	r9,r9
    2eb0:	00 00 01 10 	add	r8,r16
    2eb4:	20 70 03 e2 	movepc	rret,8
    2eb8:	14 30 f4 56 	br	10 <compare>,#al
    2ebc:	00 10 00 41 	add	r2,1
    2ec0:	0d 40 71 10 	wl16	r8,0x390
    2ec4:	0d 60 01 03 	wh16	r8,0x3
    2ec8:	10 40 01 08 	ld32	r8,r8
    2ecc:	0d 42 a2 10 	wl16	r16,0x1510
    2ed0:	0d 60 02 03 	wh16	r16,0x3
    2ed4:	10 40 02 10 	ld32	r16,r16
    2ed8:	0d 44 d1 30 	wl16	r9,0x2690
    2edc:	0d 60 01 23 	wh16	r9,0x3
    2ee0:	10 40 01 29 	ld32	r9,r9
    2ee4:	00 00 01 10 	add	r8,r16
    2ee8:	20 70 03 e2 	movepc	rret,8
    2eec:	14 30 f4 49 	br	10 <compare>,#al
    2ef0:	00 10 00 41 	add	r2,1
    2ef4:	0d 40 71 14 	wl16	r8,0x394
    2ef8:	0d 60 01 03 	wh16	r8,0x3
    2efc:	10 40 01 08 	ld32	r8,r8
    2f00:	0d 42 a2 14 	wl16	r16,0x1514
    2f04:	0d 60 02 03 	wh16	r16,0x3
    2f08:	10 40 02 10 	ld32	r16,r16
    2f0c:	0d 44 d1 34 	wl16	r9,0x2694
    2f10:	0d 60 01 23 	wh16	r9,0x3
    2f14:	10 40 01 29 	ld32	r9,r9
    2f18:	00 00 01 10 	add	r8,r16
    2f1c:	20 70 03 e2 	movepc	rret,8
    2f20:	14 30 f4 3c 	br	10 <compare>,#al
    2f24:	00 10 00 41 	add	r2,1
    2f28:	0d 40 71 18 	wl16	r8,0x398
    2f2c:	0d 60 01 03 	wh16	r8,0x3
    2f30:	10 40 01 08 	ld32	r8,r8
    2f34:	0d 42 a2 18 	wl16	r16,0x1518
    2f38:	0d 60 02 03 	wh16	r16,0x3
    2f3c:	10 40 02 10 	ld32	r16,r16
    2f40:	0d 44 d1 38 	wl16	r9,0x2698
    2f44:	0d 60 01 23 	wh16	r9,0x3
    2f48:	10 40 01 29 	ld32	r9,r9
    2f4c:	00 00 01 10 	add	r8,r16
    2f50:	20 70 03 e2 	movepc	rret,8
    2f54:	14 30 f4 2f 	br	10 <compare>,#al
    2f58:	00 10 00 41 	add	r2,1
    2f5c:	0d 40 71 1c 	wl16	r8,0x39c
    2f60:	0d 60 01 03 	wh16	r8,0x3
    2f64:	10 40 01 08 	ld32	r8,r8
    2f68:	0d 42 a2 1c 	wl16	r16,0x151c
    2f6c:	0d 60 02 03 	wh16	r16,0x3
    2f70:	10 40 02 10 	ld32	r16,r16
    2f74:	0d 44 d1 3c 	wl16	r9,0x269c
    2f78:	0d 60 01 23 	wh16	r9,0x3
    2f7c:	10 40 01 29 	ld32	r9,r9
    2f80:	00 00 01 10 	add	r8,r16
    2f84:	20 70 03 e2 	movepc	rret,8
    2f88:	14 30 f4 22 	br	10 <compare>,#al
    2f8c:	00 10 00 41 	add	r2,1
    2f90:	0d 40 75 00 	wl16	r8,0x3a0
    2f94:	0d 60 01 03 	wh16	r8,0x3
    2f98:	10 40 01 08 	ld32	r8,r8
    2f9c:	0d 42 a6 00 	wl16	r16,0x1520
    2fa0:	0d 60 02 03 	wh16	r16,0x3
    2fa4:	10 40 02 10 	ld32	r16,r16
    2fa8:	0d 44 d5 20 	wl16	r9,0x26a0
    2fac:	0d 60 01 23 	wh16	r9,0x3
    2fb0:	10 40 01 29 	ld32	r9,r9
    2fb4:	00 00 01 10 	add	r8,r16
    2fb8:	20 70 03 e2 	movepc	rret,8
    2fbc:	14 30 f4 15 	br	10 <compare>,#al
    2fc0:	00 10 00 41 	add	r2,1
    2fc4:	0d 40 75 04 	wl16	r8,0x3a4
    2fc8:	0d 60 01 03 	wh16	r8,0x3
    2fcc:	10 40 01 08 	ld32	r8,r8
    2fd0:	0d 42 a6 04 	wl16	r16,0x1524
    2fd4:	0d 60 02 03 	wh16	r16,0x3
    2fd8:	10 40 02 10 	ld32	r16,r16
    2fdc:	0d 44 d5 24 	wl16	r9,0x26a4
    2fe0:	0d 60 01 23 	wh16	r9,0x3
    2fe4:	10 40 01 29 	ld32	r9,r9
    2fe8:	00 00 01 10 	add	r8,r16
    2fec:	20 70 03 e2 	movepc	rret,8
    2ff0:	14 30 f4 08 	br	10 <compare>,#al
    2ff4:	00 10 00 41 	add	r2,1
    2ff8:	0d 40 75 08 	wl16	r8,0x3a8
    2ffc:	0d 60 01 03 	wh16	r8,0x3
    3000:	10 40 01 08 	ld32	r8,r8
    3004:	0d 42 a6 08 	wl16	r16,0x1528
    3008:	0d 60 02 03 	wh16	r16,0x3
    300c:	10 40 02 10 	ld32	r16,r16
    3010:	0d 44 d5 28 	wl16	r9,0x26a8
    3014:	0d 60 01 23 	wh16	r9,0x3
    3018:	10 40 01 29 	ld32	r9,r9
    301c:	00 00 01 10 	add	r8,r16
    3020:	20 70 03 e2 	movepc	rret,8
    3024:	14 30 f3 fb 	br	10 <compare>,#al
    3028:	00 10 00 41 	add	r2,1
    302c:	0d 40 75 0c 	wl16	r8,0x3ac
    3030:	0d 60 01 03 	wh16	r8,0x3
    3034:	10 40 01 08 	ld32	r8,r8
    3038:	0d 42 a6 0c 	wl16	r16,0x152c
    303c:	0d 60 02 03 	wh16	r16,0x3
    3040:	10 40 02 10 	ld32	r16,r16
    3044:	0d 44 d5 2c 	wl16	r9,0x26ac
    3048:	0d 60 01 23 	wh16	r9,0x3
    304c:	10 40 01 29 	ld32	r9,r9
    3050:	00 00 01 10 	add	r8,r16
    3054:	20 70 03 e2 	movepc	rret,8
    3058:	14 30 f3 ee 	br	10 <compare>,#al
    305c:	00 10 00 41 	add	r2,1
    3060:	0d 40 75 10 	wl16	r8,0x3b0
    3064:	0d 60 01 03 	wh16	r8,0x3
    3068:	10 40 01 08 	ld32	r8,r8
    306c:	0d 42 a6 10 	wl16	r16,0x1530
    3070:	0d 60 02 03 	wh16	r16,0x3
    3074:	10 40 02 10 	ld32	r16,r16
    3078:	0d 44 d5 30 	wl16	r9,0x26b0
    307c:	0d 60 01 23 	wh16	r9,0x3
    3080:	10 40 01 29 	ld32	r9,r9
    3084:	00 00 01 10 	add	r8,r16
    3088:	20 70 03 e2 	movepc	rret,8
    308c:	14 30 f3 e1 	br	10 <compare>,#al
    3090:	00 10 00 41 	add	r2,1
    3094:	0d 40 75 14 	wl16	r8,0x3b4
    3098:	0d 60 01 03 	wh16	r8,0x3
    309c:	10 40 01 08 	ld32	r8,r8
    30a0:	0d 42 a6 14 	wl16	r16,0x1534
    30a4:	0d 60 02 03 	wh16	r16,0x3
    30a8:	10 40 02 10 	ld32	r16,r16
    30ac:	0d 44 d5 34 	wl16	r9,0x26b4
    30b0:	0d 60 01 23 	wh16	r9,0x3
    30b4:	10 40 01 29 	ld32	r9,r9
    30b8:	00 00 01 10 	add	r8,r16
    30bc:	20 70 03 e2 	movepc	rret,8
    30c0:	14 30 f3 d4 	br	10 <compare>,#al
    30c4:	00 10 00 41 	add	r2,1
    30c8:	0d 40 75 18 	wl16	r8,0x3b8
    30cc:	0d 60 01 03 	wh16	r8,0x3
    30d0:	10 40 01 08 	ld32	r8,r8
    30d4:	0d 42 a6 18 	wl16	r16,0x1538
    30d8:	0d 60 02 03 	wh16	r16,0x3
    30dc:	10 40 02 10 	ld32	r16,r16
    30e0:	0d 44 d5 38 	wl16	r9,0x26b8
    30e4:	0d 60 01 23 	wh16	r9,0x3
    30e8:	10 40 01 29 	ld32	r9,r9
    30ec:	00 00 01 10 	add	r8,r16
    30f0:	20 70 03 e2 	movepc	rret,8
    30f4:	14 30 f3 c7 	br	10 <compare>,#al
    30f8:	00 10 00 41 	add	r2,1
    30fc:	0d 40 75 1c 	wl16	r8,0x3bc
    3100:	0d 60 01 03 	wh16	r8,0x3
    3104:	10 40 01 08 	ld32	r8,r8
    3108:	0d 42 a6 1c 	wl16	r16,0x153c
    310c:	0d 60 02 03 	wh16	r16,0x3
    3110:	10 40 02 10 	ld32	r16,r16
    3114:	0d 44 d5 3c 	wl16	r9,0x26bc
    3118:	0d 60 01 23 	wh16	r9,0x3
    311c:	10 40 01 29 	ld32	r9,r9
    3120:	00 00 01 10 	add	r8,r16
    3124:	20 70 03 e2 	movepc	rret,8
    3128:	14 30 f3 ba 	br	10 <compare>,#al
    312c:	00 10 00 41 	add	r2,1
    3130:	0d 40 79 00 	wl16	r8,0x3c0
    3134:	0d 60 01 03 	wh16	r8,0x3
    3138:	10 40 01 08 	ld32	r8,r8
    313c:	0d 42 aa 00 	wl16	r16,0x1540
    3140:	0d 60 02 03 	wh16	r16,0x3
    3144:	10 40 02 10 	ld32	r16,r16
    3148:	0d 44 d9 20 	wl16	r9,0x26c0
    314c:	0d 60 01 23 	wh16	r9,0x3
    3150:	10 40 01 29 	ld32	r9,r9
    3154:	00 00 01 10 	add	r8,r16
    3158:	20 70 03 e2 	movepc	rret,8
    315c:	14 30 f3 ad 	br	10 <compare>,#al
    3160:	00 10 00 41 	add	r2,1
    3164:	0d 40 79 04 	wl16	r8,0x3c4
    3168:	0d 60 01 03 	wh16	r8,0x3
    316c:	10 40 01 08 	ld32	r8,r8
    3170:	0d 42 aa 04 	wl16	r16,0x1544
    3174:	0d 60 02 03 	wh16	r16,0x3
    3178:	10 40 02 10 	ld32	r16,r16
    317c:	0d 44 d9 24 	wl16	r9,0x26c4
    3180:	0d 60 01 23 	wh16	r9,0x3
    3184:	10 40 01 29 	ld32	r9,r9
    3188:	00 00 01 10 	add	r8,r16
    318c:	20 70 03 e2 	movepc	rret,8
    3190:	14 30 f3 a0 	br	10 <compare>,#al
    3194:	00 10 00 41 	add	r2,1
    3198:	0d 40 79 08 	wl16	r8,0x3c8
    319c:	0d 60 01 03 	wh16	r8,0x3
    31a0:	10 40 01 08 	ld32	r8,r8
    31a4:	0d 42 aa 08 	wl16	r16,0x1548
    31a8:	0d 60 02 03 	wh16	r16,0x3
    31ac:	10 40 02 10 	ld32	r16,r16
    31b0:	0d 44 d9 28 	wl16	r9,0x26c8
    31b4:	0d 60 01 23 	wh16	r9,0x3
    31b8:	10 40 01 29 	ld32	r9,r9
    31bc:	00 00 01 10 	add	r8,r16
    31c0:	20 70 03 e2 	movepc	rret,8
    31c4:	14 30 f3 93 	br	10 <compare>,#al
    31c8:	00 10 00 41 	add	r2,1
    31cc:	0d 40 79 0c 	wl16	r8,0x3cc
    31d0:	0d 60 01 03 	wh16	r8,0x3
    31d4:	10 40 01 08 	ld32	r8,r8
    31d8:	0d 42 aa 0c 	wl16	r16,0x154c
    31dc:	0d 60 02 03 	wh16	r16,0x3
    31e0:	10 40 02 10 	ld32	r16,r16
    31e4:	0d 44 d9 2c 	wl16	r9,0x26cc
    31e8:	0d 60 01 23 	wh16	r9,0x3
    31ec:	10 40 01 29 	ld32	r9,r9
    31f0:	00 00 01 10 	add	r8,r16
    31f4:	20 70 03 e2 	movepc	rret,8
    31f8:	14 30 f3 86 	br	10 <compare>,#al
    31fc:	00 10 00 41 	add	r2,1
    3200:	0d 40 79 10 	wl16	r8,0x3d0
    3204:	0d 60 01 03 	wh16	r8,0x3
    3208:	10 40 01 08 	ld32	r8,r8
    320c:	0d 42 aa 10 	wl16	r16,0x1550
    3210:	0d 60 02 03 	wh16	r16,0x3
    3214:	10 40 02 10 	ld32	r16,r16
    3218:	0d 44 d9 30 	wl16	r9,0x26d0
    321c:	0d 60 01 23 	wh16	r9,0x3
    3220:	10 40 01 29 	ld32	r9,r9
    3224:	00 00 01 10 	add	r8,r16
    3228:	20 70 03 e2 	movepc	rret,8
    322c:	14 30 f3 79 	br	10 <compare>,#al
    3230:	00 10 00 41 	add	r2,1
    3234:	0d 40 79 14 	wl16	r8,0x3d4
    3238:	0d 60 01 03 	wh16	r8,0x3
    323c:	10 40 01 08 	ld32	r8,r8
    3240:	0d 42 aa 14 	wl16	r16,0x1554
    3244:	0d 60 02 03 	wh16	r16,0x3
    3248:	10 40 02 10 	ld32	r16,r16
    324c:	0d 44 d9 34 	wl16	r9,0x26d4
    3250:	0d 60 01 23 	wh16	r9,0x3
    3254:	10 40 01 29 	ld32	r9,r9
    3258:	00 00 01 10 	add	r8,r16
    325c:	20 70 03 e2 	movepc	rret,8
    3260:	14 30 f3 6c 	br	10 <compare>,#al
    3264:	00 10 00 41 	add	r2,1
    3268:	0d 40 79 18 	wl16	r8,0x3d8
    326c:	0d 60 01 03 	wh16	r8,0x3
    3270:	10 40 01 08 	ld32	r8,r8
    3274:	0d 42 aa 18 	wl16	r16,0x1558
    3278:	0d 60 02 03 	wh16	r16,0x3
    327c:	10 40 02 10 	ld32	r16,r16
    3280:	0d 44 d9 38 	wl16	r9,0x26d8
    3284:	0d 60 01 23 	wh16	r9,0x3
    3288:	10 40 01 29 	ld32	r9,r9
    328c:	00 00 01 10 	add	r8,r16
    3290:	20 70 03 e2 	movepc	rret,8
    3294:	14 30 f3 5f 	br	10 <compare>,#al
    3298:	00 10 00 41 	add	r2,1
    329c:	0d 40 79 1c 	wl16	r8,0x3dc
    32a0:	0d 60 01 03 	wh16	r8,0x3
    32a4:	10 40 01 08 	ld32	r8,r8
    32a8:	0d 42 aa 1c 	wl16	r16,0x155c
    32ac:	0d 60 02 03 	wh16	r16,0x3
    32b0:	10 40 02 10 	ld32	r16,r16
    32b4:	0d 44 d9 3c 	wl16	r9,0x26dc
    32b8:	0d 60 01 23 	wh16	r9,0x3
    32bc:	10 40 01 29 	ld32	r9,r9
    32c0:	00 00 01 10 	add	r8,r16
    32c4:	20 70 03 e2 	movepc	rret,8
    32c8:	14 30 f3 52 	br	10 <compare>,#al
    32cc:	00 10 00 41 	add	r2,1
    32d0:	0d 40 7d 00 	wl16	r8,0x3e0
    32d4:	0d 60 01 03 	wh16	r8,0x3
    32d8:	10 40 01 08 	ld32	r8,r8
    32dc:	0d 42 ae 00 	wl16	r16,0x1560
    32e0:	0d 60 02 03 	wh16	r16,0x3
    32e4:	10 40 02 10 	ld32	r16,r16
    32e8:	0d 44 dd 20 	wl16	r9,0x26e0
    32ec:	0d 60 01 23 	wh16	r9,0x3
    32f0:	10 40 01 29 	ld32	r9,r9
    32f4:	00 00 01 10 	add	r8,r16
    32f8:	20 70 03 e2 	movepc	rret,8
    32fc:	14 30 f3 45 	br	10 <compare>,#al
    3300:	00 10 00 41 	add	r2,1
    3304:	0d 40 7d 04 	wl16	r8,0x3e4
    3308:	0d 60 01 03 	wh16	r8,0x3
    330c:	10 40 01 08 	ld32	r8,r8
    3310:	0d 42 ae 04 	wl16	r16,0x1564
    3314:	0d 60 02 03 	wh16	r16,0x3
    3318:	10 40 02 10 	ld32	r16,r16
    331c:	0d 44 dd 24 	wl16	r9,0x26e4
    3320:	0d 60 01 23 	wh16	r9,0x3
    3324:	10 40 01 29 	ld32	r9,r9
    3328:	00 00 01 10 	add	r8,r16
    332c:	20 70 03 e2 	movepc	rret,8
    3330:	14 30 f3 38 	br	10 <compare>,#al
    3334:	00 10 00 41 	add	r2,1
    3338:	0d 40 7d 08 	wl16	r8,0x3e8
    333c:	0d 60 01 03 	wh16	r8,0x3
    3340:	10 40 01 08 	ld32	r8,r8
    3344:	0d 42 ae 08 	wl16	r16,0x1568
    3348:	0d 60 02 03 	wh16	r16,0x3
    334c:	10 40 02 10 	ld32	r16,r16
    3350:	0d 44 dd 28 	wl16	r9,0x26e8
    3354:	0d 60 01 23 	wh16	r9,0x3
    3358:	10 40 01 29 	ld32	r9,r9
    335c:	00 00 01 10 	add	r8,r16
    3360:	20 70 03 e2 	movepc	rret,8
    3364:	14 30 f3 2b 	br	10 <compare>,#al
    3368:	00 10 00 41 	add	r2,1
    336c:	0d 40 7d 0c 	wl16	r8,0x3ec
    3370:	0d 60 01 03 	wh16	r8,0x3
    3374:	10 40 01 08 	ld32	r8,r8
    3378:	0d 42 ae 0c 	wl16	r16,0x156c
    337c:	0d 60 02 03 	wh16	r16,0x3
    3380:	10 40 02 10 	ld32	r16,r16
    3384:	0d 44 dd 2c 	wl16	r9,0x26ec
    3388:	0d 60 01 23 	wh16	r9,0x3
    338c:	10 40 01 29 	ld32	r9,r9
    3390:	00 00 01 10 	add	r8,r16
    3394:	20 70 03 e2 	movepc	rret,8
    3398:	14 30 f3 1e 	br	10 <compare>,#al
    339c:	00 10 00 41 	add	r2,1
    33a0:	0d 40 7d 10 	wl16	r8,0x3f0
    33a4:	0d 60 01 03 	wh16	r8,0x3
    33a8:	10 40 01 08 	ld32	r8,r8
    33ac:	0d 42 ae 10 	wl16	r16,0x1570
    33b0:	0d 60 02 03 	wh16	r16,0x3
    33b4:	10 40 02 10 	ld32	r16,r16
    33b8:	0d 44 dd 30 	wl16	r9,0x26f0
    33bc:	0d 60 01 23 	wh16	r9,0x3
    33c0:	10 40 01 29 	ld32	r9,r9
    33c4:	00 00 01 10 	add	r8,r16
    33c8:	20 70 03 e2 	movepc	rret,8
    33cc:	14 30 f3 11 	br	10 <compare>,#al
    33d0:	00 10 00 41 	add	r2,1
    33d4:	0d 40 7d 14 	wl16	r8,0x3f4
    33d8:	0d 60 01 03 	wh16	r8,0x3
    33dc:	10 40 01 08 	ld32	r8,r8
    33e0:	0d 42 ae 14 	wl16	r16,0x1574
    33e4:	0d 60 02 03 	wh16	r16,0x3
    33e8:	10 40 02 10 	ld32	r16,r16
    33ec:	0d 44 dd 34 	wl16	r9,0x26f4
    33f0:	0d 60 01 23 	wh16	r9,0x3
    33f4:	10 40 01 29 	ld32	r9,r9
    33f8:	00 00 01 10 	add	r8,r16
    33fc:	20 70 03 e2 	movepc	rret,8
    3400:	14 30 f3 04 	br	10 <compare>,#al
    3404:	00 10 00 41 	add	r2,1
    3408:	0d 40 7d 18 	wl16	r8,0x3f8
    340c:	0d 60 01 03 	wh16	r8,0x3
    3410:	10 40 01 08 	ld32	r8,r8
    3414:	0d 42 ae 18 	wl16	r16,0x1578
    3418:	0d 60 02 03 	wh16	r16,0x3
    341c:	10 40 02 10 	ld32	r16,r16
    3420:	0d 44 dd 38 	wl16	r9,0x26f8
    3424:	0d 60 01 23 	wh16	r9,0x3
    3428:	10 40 01 29 	ld32	r9,r9
    342c:	00 00 01 10 	add	r8,r16
    3430:	20 70 03 e2 	movepc	rret,8
    3434:	14 30 f2 f7 	br	10 <compare>,#al
    3438:	00 10 00 41 	add	r2,1
    343c:	0d 40 7d 1c 	wl16	r8,0x3fc
    3440:	0d 60 01 03 	wh16	r8,0x3
    3444:	10 40 01 08 	ld32	r8,r8
    3448:	0d 42 ae 1c 	wl16	r16,0x157c
    344c:	0d 60 02 03 	wh16	r16,0x3
    3450:	10 40 02 10 	ld32	r16,r16
    3454:	0d 44 dd 3c 	wl16	r9,0x26fc
    3458:	0d 60 01 23 	wh16	r9,0x3
    345c:	10 40 01 29 	ld32	r9,r9
    3460:	00 00 01 10 	add	r8,r16
    3464:	20 70 03 e2 	movepc	rret,8
    3468:	14 30 f2 ea 	br	10 <compare>,#al
    346c:	00 10 00 41 	add	r2,1
    3470:	0d 40 81 00 	wl16	r8,0x400
    3474:	0d 60 01 03 	wh16	r8,0x3
    3478:	10 40 01 08 	ld32	r8,r8
    347c:	0d 42 b2 00 	wl16	r16,0x1580
    3480:	0d 60 02 03 	wh16	r16,0x3
    3484:	10 40 02 10 	ld32	r16,r16
    3488:	0d 44 e1 20 	wl16	r9,0x2700
    348c:	0d 60 01 23 	wh16	r9,0x3
    3490:	10 40 01 29 	ld32	r9,r9
    3494:	00 00 01 10 	add	r8,r16
    3498:	20 70 03 e2 	movepc	rret,8
    349c:	14 30 f2 dd 	br	10 <compare>,#al
    34a0:	00 10 00 41 	add	r2,1
    34a4:	0d 40 81 04 	wl16	r8,0x404
    34a8:	0d 60 01 03 	wh16	r8,0x3
    34ac:	10 40 01 08 	ld32	r8,r8
    34b0:	0d 42 b2 04 	wl16	r16,0x1584
    34b4:	0d 60 02 03 	wh16	r16,0x3
    34b8:	10 40 02 10 	ld32	r16,r16
    34bc:	0d 44 e1 24 	wl16	r9,0x2704
    34c0:	0d 60 01 23 	wh16	r9,0x3
    34c4:	10 40 01 29 	ld32	r9,r9
    34c8:	00 00 01 10 	add	r8,r16
    34cc:	20 70 03 e2 	movepc	rret,8
    34d0:	14 30 f2 d0 	br	10 <compare>,#al
    34d4:	00 10 00 41 	add	r2,1
    34d8:	0d 40 81 08 	wl16	r8,0x408
    34dc:	0d 60 01 03 	wh16	r8,0x3
    34e0:	10 40 01 08 	ld32	r8,r8
    34e4:	0d 42 b2 08 	wl16	r16,0x1588
    34e8:	0d 60 02 03 	wh16	r16,0x3
    34ec:	10 40 02 10 	ld32	r16,r16
    34f0:	0d 44 e1 28 	wl16	r9,0x2708
    34f4:	0d 60 01 23 	wh16	r9,0x3
    34f8:	10 40 01 29 	ld32	r9,r9
    34fc:	00 00 01 10 	add	r8,r16
    3500:	20 70 03 e2 	movepc	rret,8
    3504:	14 30 f2 c3 	br	10 <compare>,#al
    3508:	00 10 00 41 	add	r2,1
    350c:	0d 40 81 0c 	wl16	r8,0x40c
    3510:	0d 60 01 03 	wh16	r8,0x3
    3514:	10 40 01 08 	ld32	r8,r8
    3518:	0d 42 b2 0c 	wl16	r16,0x158c
    351c:	0d 60 02 03 	wh16	r16,0x3
    3520:	10 40 02 10 	ld32	r16,r16
    3524:	0d 44 e1 2c 	wl16	r9,0x270c
    3528:	0d 60 01 23 	wh16	r9,0x3
    352c:	10 40 01 29 	ld32	r9,r9
    3530:	00 00 01 10 	add	r8,r16
    3534:	20 70 03 e2 	movepc	rret,8
    3538:	14 30 f2 b6 	br	10 <compare>,#al
    353c:	00 10 00 41 	add	r2,1
    3540:	0d 40 81 10 	wl16	r8,0x410
    3544:	0d 60 01 03 	wh16	r8,0x3
    3548:	10 40 01 08 	ld32	r8,r8
    354c:	0d 42 b2 10 	wl16	r16,0x1590
    3550:	0d 60 02 03 	wh16	r16,0x3
    3554:	10 40 02 10 	ld32	r16,r16
    3558:	0d 44 e1 30 	wl16	r9,0x2710
    355c:	0d 60 01 23 	wh16	r9,0x3
    3560:	10 40 01 29 	ld32	r9,r9
    3564:	00 00 01 10 	add	r8,r16
    3568:	20 70 03 e2 	movepc	rret,8
    356c:	14 30 f2 a9 	br	10 <compare>,#al
    3570:	00 10 00 41 	add	r2,1
    3574:	0d 40 81 14 	wl16	r8,0x414
    3578:	0d 60 01 03 	wh16	r8,0x3
    357c:	10 40 01 08 	ld32	r8,r8
    3580:	0d 42 b2 14 	wl16	r16,0x1594
    3584:	0d 60 02 03 	wh16	r16,0x3
    3588:	10 40 02 10 	ld32	r16,r16
    358c:	0d 44 e1 34 	wl16	r9,0x2714
    3590:	0d 60 01 23 	wh16	r9,0x3
    3594:	10 40 01 29 	ld32	r9,r9
    3598:	00 00 01 10 	add	r8,r16
    359c:	20 70 03 e2 	movepc	rret,8
    35a0:	14 30 f2 9c 	br	10 <compare>,#al
    35a4:	00 10 00 41 	add	r2,1
    35a8:	0d 40 81 18 	wl16	r8,0x418
    35ac:	0d 60 01 03 	wh16	r8,0x3
    35b0:	10 40 01 08 	ld32	r8,r8
    35b4:	0d 42 b2 18 	wl16	r16,0x1598
    35b8:	0d 60 02 03 	wh16	r16,0x3
    35bc:	10 40 02 10 	ld32	r16,r16
    35c0:	0d 44 e1 38 	wl16	r9,0x2718
    35c4:	0d 60 01 23 	wh16	r9,0x3
    35c8:	10 40 01 29 	ld32	r9,r9
    35cc:	00 00 01 10 	add	r8,r16
    35d0:	20 70 03 e2 	movepc	rret,8
    35d4:	14 30 f2 8f 	br	10 <compare>,#al
    35d8:	00 10 00 41 	add	r2,1
    35dc:	0d 40 81 1c 	wl16	r8,0x41c
    35e0:	0d 60 01 03 	wh16	r8,0x3
    35e4:	10 40 01 08 	ld32	r8,r8
    35e8:	0d 42 b2 1c 	wl16	r16,0x159c
    35ec:	0d 60 02 03 	wh16	r16,0x3
    35f0:	10 40 02 10 	ld32	r16,r16
    35f4:	0d 44 e1 3c 	wl16	r9,0x271c
    35f8:	0d 60 01 23 	wh16	r9,0x3
    35fc:	10 40 01 29 	ld32	r9,r9
    3600:	00 00 01 10 	add	r8,r16
    3604:	20 70 03 e2 	movepc	rret,8
    3608:	14 30 f2 82 	br	10 <compare>,#al
    360c:	00 10 00 41 	add	r2,1
    3610:	0d 40 85 00 	wl16	r8,0x420
    3614:	0d 60 01 03 	wh16	r8,0x3
    3618:	10 40 01 08 	ld32	r8,r8
    361c:	0d 42 b6 00 	wl16	r16,0x15a0
    3620:	0d 60 02 03 	wh16	r16,0x3
    3624:	10 40 02 10 	ld32	r16,r16
    3628:	0d 44 e5 20 	wl16	r9,0x2720
    362c:	0d 60 01 23 	wh16	r9,0x3
    3630:	10 40 01 29 	ld32	r9,r9
    3634:	00 00 01 10 	add	r8,r16
    3638:	20 70 03 e2 	movepc	rret,8
    363c:	14 30 f2 75 	br	10 <compare>,#al
    3640:	00 10 00 41 	add	r2,1
    3644:	0d 40 85 04 	wl16	r8,0x424
    3648:	0d 60 01 03 	wh16	r8,0x3
    364c:	10 40 01 08 	ld32	r8,r8
    3650:	0d 42 b6 04 	wl16	r16,0x15a4
    3654:	0d 60 02 03 	wh16	r16,0x3
    3658:	10 40 02 10 	ld32	r16,r16
    365c:	0d 44 e5 24 	wl16	r9,0x2724
    3660:	0d 60 01 23 	wh16	r9,0x3
    3664:	10 40 01 29 	ld32	r9,r9
    3668:	00 00 01 10 	add	r8,r16
    366c:	20 70 03 e2 	movepc	rret,8
    3670:	14 30 f2 68 	br	10 <compare>,#al
    3674:	00 10 00 41 	add	r2,1
    3678:	0d 40 85 08 	wl16	r8,0x428
    367c:	0d 60 01 03 	wh16	r8,0x3
    3680:	10 40 01 08 	ld32	r8,r8
    3684:	0d 42 b6 08 	wl16	r16,0x15a8
    3688:	0d 60 02 03 	wh16	r16,0x3
    368c:	10 40 02 10 	ld32	r16,r16
    3690:	0d 44 e5 28 	wl16	r9,0x2728
    3694:	0d 60 01 23 	wh16	r9,0x3
    3698:	10 40 01 29 	ld32	r9,r9
    369c:	00 00 01 10 	add	r8,r16
    36a0:	20 70 03 e2 	movepc	rret,8
    36a4:	14 30 f2 5b 	br	10 <compare>,#al
    36a8:	00 10 00 41 	add	r2,1
    36ac:	0d 40 85 0c 	wl16	r8,0x42c
    36b0:	0d 60 01 03 	wh16	r8,0x3
    36b4:	10 40 01 08 	ld32	r8,r8
    36b8:	0d 42 b6 0c 	wl16	r16,0x15ac
    36bc:	0d 60 02 03 	wh16	r16,0x3
    36c0:	10 40 02 10 	ld32	r16,r16
    36c4:	0d 44 e5 2c 	wl16	r9,0x272c
    36c8:	0d 60 01 23 	wh16	r9,0x3
    36cc:	10 40 01 29 	ld32	r9,r9
    36d0:	00 00 01 10 	add	r8,r16
    36d4:	20 70 03 e2 	movepc	rret,8
    36d8:	14 30 f2 4e 	br	10 <compare>,#al
    36dc:	00 10 00 41 	add	r2,1
    36e0:	0d 40 85 10 	wl16	r8,0x430
    36e4:	0d 60 01 03 	wh16	r8,0x3
    36e8:	10 40 01 08 	ld32	r8,r8
    36ec:	0d 42 b6 10 	wl16	r16,0x15b0
    36f0:	0d 60 02 03 	wh16	r16,0x3
    36f4:	10 40 02 10 	ld32	r16,r16
    36f8:	0d 44 e5 30 	wl16	r9,0x2730
    36fc:	0d 60 01 23 	wh16	r9,0x3
    3700:	10 40 01 29 	ld32	r9,r9
    3704:	00 00 01 10 	add	r8,r16
    3708:	20 70 03 e2 	movepc	rret,8
    370c:	14 30 f2 41 	br	10 <compare>,#al
    3710:	00 10 00 41 	add	r2,1
    3714:	0d 40 85 14 	wl16	r8,0x434
    3718:	0d 60 01 03 	wh16	r8,0x3
    371c:	10 40 01 08 	ld32	r8,r8
    3720:	0d 42 b6 14 	wl16	r16,0x15b4
    3724:	0d 60 02 03 	wh16	r16,0x3
    3728:	10 40 02 10 	ld32	r16,r16
    372c:	0d 44 e5 34 	wl16	r9,0x2734
    3730:	0d 60 01 23 	wh16	r9,0x3
    3734:	10 40 01 29 	ld32	r9,r9
    3738:	00 00 01 10 	add	r8,r16
    373c:	20 70 03 e2 	movepc	rret,8
    3740:	14 30 f2 34 	br	10 <compare>,#al
    3744:	00 10 00 41 	add	r2,1
    3748:	0d 40 85 18 	wl16	r8,0x438
    374c:	0d 60 01 03 	wh16	r8,0x3
    3750:	10 40 01 08 	ld32	r8,r8
    3754:	0d 42 b6 18 	wl16	r16,0x15b8
    3758:	0d 60 02 03 	wh16	r16,0x3
    375c:	10 40 02 10 	ld32	r16,r16
    3760:	0d 44 e5 38 	wl16	r9,0x2738
    3764:	0d 60 01 23 	wh16	r9,0x3
    3768:	10 40 01 29 	ld32	r9,r9
    376c:	00 00 01 10 	add	r8,r16
    3770:	20 70 03 e2 	movepc	rret,8
    3774:	14 30 f2 27 	br	10 <compare>,#al
    3778:	00 10 00 41 	add	r2,1
    377c:	0d 40 85 1c 	wl16	r8,0x43c
    3780:	0d 60 01 03 	wh16	r8,0x3
    3784:	10 40 01 08 	ld32	r8,r8
    3788:	0d 42 b6 1c 	wl16	r16,0x15bc
    378c:	0d 60 02 03 	wh16	r16,0x3
    3790:	10 40 02 10 	ld32	r16,r16
    3794:	0d 44 e5 3c 	wl16	r9,0x273c
    3798:	0d 60 01 23 	wh16	r9,0x3
    379c:	10 40 01 29 	ld32	r9,r9
    37a0:	00 00 01 10 	add	r8,r16
    37a4:	20 70 03 e2 	movepc	rret,8
    37a8:	14 30 f2 1a 	br	10 <compare>,#al
    37ac:	00 10 00 41 	add	r2,1
    37b0:	0d 40 89 00 	wl16	r8,0x440
    37b4:	0d 60 01 03 	wh16	r8,0x3
    37b8:	10 40 01 08 	ld32	r8,r8
    37bc:	0d 42 ba 00 	wl16	r16,0x15c0
    37c0:	0d 60 02 03 	wh16	r16,0x3
    37c4:	10 40 02 10 	ld32	r16,r16
    37c8:	0d 44 e9 20 	wl16	r9,0x2740
    37cc:	0d 60 01 23 	wh16	r9,0x3
    37d0:	10 40 01 29 	ld32	r9,r9
    37d4:	00 00 01 10 	add	r8,r16
    37d8:	20 70 03 e2 	movepc	rret,8
    37dc:	14 30 f2 0d 	br	10 <compare>,#al
    37e0:	00 10 00 41 	add	r2,1
    37e4:	0d 40 89 04 	wl16	r8,0x444
    37e8:	0d 60 01 03 	wh16	r8,0x3
    37ec:	10 40 01 08 	ld32	r8,r8
    37f0:	0d 42 ba 04 	wl16	r16,0x15c4
    37f4:	0d 60 02 03 	wh16	r16,0x3
    37f8:	10 40 02 10 	ld32	r16,r16
    37fc:	0d 44 e9 24 	wl16	r9,0x2744
    3800:	0d 60 01 23 	wh16	r9,0x3
    3804:	10 40 01 29 	ld32	r9,r9
    3808:	00 00 01 10 	add	r8,r16
    380c:	20 70 03 e2 	movepc	rret,8
    3810:	14 30 f2 00 	br	10 <compare>,#al
    3814:	00 10 00 41 	add	r2,1
    3818:	0d 40 89 08 	wl16	r8,0x448
    381c:	0d 60 01 03 	wh16	r8,0x3
    3820:	10 40 01 08 	ld32	r8,r8
    3824:	0d 42 ba 08 	wl16	r16,0x15c8
    3828:	0d 60 02 03 	wh16	r16,0x3
    382c:	10 40 02 10 	ld32	r16,r16
    3830:	0d 44 e9 28 	wl16	r9,0x2748
    3834:	0d 60 01 23 	wh16	r9,0x3
    3838:	10 40 01 29 	ld32	r9,r9
    383c:	00 00 01 10 	add	r8,r16
    3840:	20 70 03 e2 	movepc	rret,8
    3844:	14 30 f1 f3 	br	10 <compare>,#al
    3848:	00 10 00 41 	add	r2,1
    384c:	0d 40 89 0c 	wl16	r8,0x44c
    3850:	0d 60 01 03 	wh16	r8,0x3
    3854:	10 40 01 08 	ld32	r8,r8
    3858:	0d 42 ba 0c 	wl16	r16,0x15cc
    385c:	0d 60 02 03 	wh16	r16,0x3
    3860:	10 40 02 10 	ld32	r16,r16
    3864:	0d 44 e9 2c 	wl16	r9,0x274c
    3868:	0d 60 01 23 	wh16	r9,0x3
    386c:	10 40 01 29 	ld32	r9,r9
    3870:	00 00 01 10 	add	r8,r16
    3874:	20 70 03 e2 	movepc	rret,8
    3878:	14 30 f1 e6 	br	10 <compare>,#al
    387c:	00 10 00 41 	add	r2,1
    3880:	0d 40 89 10 	wl16	r8,0x450
    3884:	0d 60 01 03 	wh16	r8,0x3
    3888:	10 40 01 08 	ld32	r8,r8
    388c:	0d 42 ba 10 	wl16	r16,0x15d0
    3890:	0d 60 02 03 	wh16	r16,0x3
    3894:	10 40 02 10 	ld32	r16,r16
    3898:	0d 44 e9 30 	wl16	r9,0x2750
    389c:	0d 60 01 23 	wh16	r9,0x3
    38a0:	10 40 01 29 	ld32	r9,r9
    38a4:	00 00 01 10 	add	r8,r16
    38a8:	20 70 03 e2 	movepc	rret,8
    38ac:	14 30 f1 d9 	br	10 <compare>,#al
    38b0:	00 10 00 41 	add	r2,1
    38b4:	0d 40 89 14 	wl16	r8,0x454
    38b8:	0d 60 01 03 	wh16	r8,0x3
    38bc:	10 40 01 08 	ld32	r8,r8
    38c0:	0d 42 ba 14 	wl16	r16,0x15d4
    38c4:	0d 60 02 03 	wh16	r16,0x3
    38c8:	10 40 02 10 	ld32	r16,r16
    38cc:	0d 44 e9 34 	wl16	r9,0x2754
    38d0:	0d 60 01 23 	wh16	r9,0x3
    38d4:	10 40 01 29 	ld32	r9,r9
    38d8:	00 00 01 10 	add	r8,r16
    38dc:	20 70 03 e2 	movepc	rret,8
    38e0:	14 30 f1 cc 	br	10 <compare>,#al
    38e4:	00 10 00 41 	add	r2,1
    38e8:	0d 40 89 18 	wl16	r8,0x458
    38ec:	0d 60 01 03 	wh16	r8,0x3
    38f0:	10 40 01 08 	ld32	r8,r8
    38f4:	0d 42 ba 18 	wl16	r16,0x15d8
    38f8:	0d 60 02 03 	wh16	r16,0x3
    38fc:	10 40 02 10 	ld32	r16,r16
    3900:	0d 44 e9 38 	wl16	r9,0x2758
    3904:	0d 60 01 23 	wh16	r9,0x3
    3908:	10 40 01 29 	ld32	r9,r9
    390c:	00 00 01 10 	add	r8,r16
    3910:	20 70 03 e2 	movepc	rret,8
    3914:	14 30 f1 bf 	br	10 <compare>,#al
    3918:	00 10 00 41 	add	r2,1
    391c:	0d 40 89 1c 	wl16	r8,0x45c
    3920:	0d 60 01 03 	wh16	r8,0x3
    3924:	10 40 01 08 	ld32	r8,r8
    3928:	0d 42 ba 1c 	wl16	r16,0x15dc
    392c:	0d 60 02 03 	wh16	r16,0x3
    3930:	10 40 02 10 	ld32	r16,r16
    3934:	0d 44 e9 3c 	wl16	r9,0x275c
    3938:	0d 60 01 23 	wh16	r9,0x3
    393c:	10 40 01 29 	ld32	r9,r9
    3940:	00 00 01 10 	add	r8,r16
    3944:	20 70 03 e2 	movepc	rret,8
    3948:	14 30 f1 b2 	br	10 <compare>,#al
    394c:	00 10 00 41 	add	r2,1
    3950:	0d 40 8d 00 	wl16	r8,0x460
    3954:	0d 60 01 03 	wh16	r8,0x3
    3958:	10 40 01 08 	ld32	r8,r8
    395c:	0d 42 be 00 	wl16	r16,0x15e0
    3960:	0d 60 02 03 	wh16	r16,0x3
    3964:	10 40 02 10 	ld32	r16,r16
    3968:	0d 44 ed 20 	wl16	r9,0x2760
    396c:	0d 60 01 23 	wh16	r9,0x3
    3970:	10 40 01 29 	ld32	r9,r9
    3974:	00 00 01 10 	add	r8,r16
    3978:	20 70 03 e2 	movepc	rret,8
    397c:	14 30 f1 a5 	br	10 <compare>,#al
    3980:	00 10 00 41 	add	r2,1
    3984:	0d 40 8d 04 	wl16	r8,0x464
    3988:	0d 60 01 03 	wh16	r8,0x3
    398c:	10 40 01 08 	ld32	r8,r8
    3990:	0d 42 be 04 	wl16	r16,0x15e4
    3994:	0d 60 02 03 	wh16	r16,0x3
    3998:	10 40 02 10 	ld32	r16,r16
    399c:	0d 44 ed 24 	wl16	r9,0x2764
    39a0:	0d 60 01 23 	wh16	r9,0x3
    39a4:	10 40 01 29 	ld32	r9,r9
    39a8:	00 00 01 10 	add	r8,r16
    39ac:	20 70 03 e2 	movepc	rret,8
    39b0:	14 30 f1 98 	br	10 <compare>,#al
    39b4:	00 10 00 41 	add	r2,1
    39b8:	0d 40 8d 08 	wl16	r8,0x468
    39bc:	0d 60 01 03 	wh16	r8,0x3
    39c0:	10 40 01 08 	ld32	r8,r8
    39c4:	0d 42 be 08 	wl16	r16,0x15e8
    39c8:	0d 60 02 03 	wh16	r16,0x3
    39cc:	10 40 02 10 	ld32	r16,r16
    39d0:	0d 44 ed 28 	wl16	r9,0x2768
    39d4:	0d 60 01 23 	wh16	r9,0x3
    39d8:	10 40 01 29 	ld32	r9,r9
    39dc:	00 00 01 10 	add	r8,r16
    39e0:	20 70 03 e2 	movepc	rret,8
    39e4:	14 30 f1 8b 	br	10 <compare>,#al
    39e8:	00 10 00 41 	add	r2,1
    39ec:	0d 40 8d 0c 	wl16	r8,0x46c
    39f0:	0d 60 01 03 	wh16	r8,0x3
    39f4:	10 40 01 08 	ld32	r8,r8
    39f8:	0d 42 be 0c 	wl16	r16,0x15ec
    39fc:	0d 60 02 03 	wh16	r16,0x3
    3a00:	10 40 02 10 	ld32	r16,r16
    3a04:	0d 44 ed 2c 	wl16	r9,0x276c
    3a08:	0d 60 01 23 	wh16	r9,0x3
    3a0c:	10 40 01 29 	ld32	r9,r9
    3a10:	00 00 01 10 	add	r8,r16
    3a14:	20 70 03 e2 	movepc	rret,8
    3a18:	14 30 f1 7e 	br	10 <compare>,#al
    3a1c:	00 10 00 41 	add	r2,1
    3a20:	0d 40 8d 10 	wl16	r8,0x470
    3a24:	0d 60 01 03 	wh16	r8,0x3
    3a28:	10 40 01 08 	ld32	r8,r8
    3a2c:	0d 42 be 10 	wl16	r16,0x15f0
    3a30:	0d 60 02 03 	wh16	r16,0x3
    3a34:	10 40 02 10 	ld32	r16,r16
    3a38:	0d 44 ed 30 	wl16	r9,0x2770
    3a3c:	0d 60 01 23 	wh16	r9,0x3
    3a40:	10 40 01 29 	ld32	r9,r9
    3a44:	00 00 01 10 	add	r8,r16
    3a48:	20 70 03 e2 	movepc	rret,8
    3a4c:	14 30 f1 71 	br	10 <compare>,#al
    3a50:	00 10 00 41 	add	r2,1
    3a54:	0d 40 8d 14 	wl16	r8,0x474
    3a58:	0d 60 01 03 	wh16	r8,0x3
    3a5c:	10 40 01 08 	ld32	r8,r8
    3a60:	0d 42 be 14 	wl16	r16,0x15f4
    3a64:	0d 60 02 03 	wh16	r16,0x3
    3a68:	10 40 02 10 	ld32	r16,r16
    3a6c:	0d 44 ed 34 	wl16	r9,0x2774
    3a70:	0d 60 01 23 	wh16	r9,0x3
    3a74:	10 40 01 29 	ld32	r9,r9
    3a78:	00 00 01 10 	add	r8,r16
    3a7c:	20 70 03 e2 	movepc	rret,8
    3a80:	14 30 f1 64 	br	10 <compare>,#al
    3a84:	00 10 00 41 	add	r2,1
    3a88:	0d 40 8d 18 	wl16	r8,0x478
    3a8c:	0d 60 01 03 	wh16	r8,0x3
    3a90:	10 40 01 08 	ld32	r8,r8
    3a94:	0d 42 be 18 	wl16	r16,0x15f8
    3a98:	0d 60 02 03 	wh16	r16,0x3
    3a9c:	10 40 02 10 	ld32	r16,r16
    3aa0:	0d 44 ed 38 	wl16	r9,0x2778
    3aa4:	0d 60 01 23 	wh16	r9,0x3
    3aa8:	10 40 01 29 	ld32	r9,r9
    3aac:	00 00 01 10 	add	r8,r16
    3ab0:	20 70 03 e2 	movepc	rret,8
    3ab4:	14 30 f1 57 	br	10 <compare>,#al
    3ab8:	00 10 00 41 	add	r2,1
    3abc:	0d 40 8d 1c 	wl16	r8,0x47c
    3ac0:	0d 60 01 03 	wh16	r8,0x3
    3ac4:	10 40 01 08 	ld32	r8,r8
    3ac8:	0d 42 be 1c 	wl16	r16,0x15fc
    3acc:	0d 60 02 03 	wh16	r16,0x3
    3ad0:	10 40 02 10 	ld32	r16,r16
    3ad4:	0d 44 ed 3c 	wl16	r9,0x277c
    3ad8:	0d 60 01 23 	wh16	r9,0x3
    3adc:	10 40 01 29 	ld32	r9,r9
    3ae0:	00 00 01 10 	add	r8,r16
    3ae4:	20 70 03 e2 	movepc	rret,8
    3ae8:	14 30 f1 4a 	br	10 <compare>,#al
    3aec:	00 10 00 41 	add	r2,1
    3af0:	0d 40 91 00 	wl16	r8,0x480
    3af4:	0d 60 01 03 	wh16	r8,0x3
    3af8:	10 40 01 08 	ld32	r8,r8
    3afc:	0d 42 c2 00 	wl16	r16,0x1600
    3b00:	0d 60 02 03 	wh16	r16,0x3
    3b04:	10 40 02 10 	ld32	r16,r16
    3b08:	0d 44 f1 20 	wl16	r9,0x2780
    3b0c:	0d 60 01 23 	wh16	r9,0x3
    3b10:	10 40 01 29 	ld32	r9,r9
    3b14:	00 00 01 10 	add	r8,r16
    3b18:	20 70 03 e2 	movepc	rret,8
    3b1c:	14 30 f1 3d 	br	10 <compare>,#al
    3b20:	00 10 00 41 	add	r2,1
    3b24:	0d 40 91 04 	wl16	r8,0x484
    3b28:	0d 60 01 03 	wh16	r8,0x3
    3b2c:	10 40 01 08 	ld32	r8,r8
    3b30:	0d 42 c2 04 	wl16	r16,0x1604
    3b34:	0d 60 02 03 	wh16	r16,0x3
    3b38:	10 40 02 10 	ld32	r16,r16
    3b3c:	0d 44 f1 24 	wl16	r9,0x2784
    3b40:	0d 60 01 23 	wh16	r9,0x3
    3b44:	10 40 01 29 	ld32	r9,r9
    3b48:	00 00 01 10 	add	r8,r16
    3b4c:	20 70 03 e2 	movepc	rret,8
    3b50:	14 30 f1 30 	br	10 <compare>,#al
    3b54:	00 10 00 41 	add	r2,1
    3b58:	0d 40 91 08 	wl16	r8,0x488
    3b5c:	0d 60 01 03 	wh16	r8,0x3
    3b60:	10 40 01 08 	ld32	r8,r8
    3b64:	0d 42 c2 08 	wl16	r16,0x1608
    3b68:	0d 60 02 03 	wh16	r16,0x3
    3b6c:	10 40 02 10 	ld32	r16,r16
    3b70:	0d 44 f1 28 	wl16	r9,0x2788
    3b74:	0d 60 01 23 	wh16	r9,0x3
    3b78:	10 40 01 29 	ld32	r9,r9
    3b7c:	00 00 01 10 	add	r8,r16
    3b80:	20 70 03 e2 	movepc	rret,8
    3b84:	14 30 f1 23 	br	10 <compare>,#al
    3b88:	00 10 00 41 	add	r2,1
    3b8c:	0d 40 91 0c 	wl16	r8,0x48c
    3b90:	0d 60 01 03 	wh16	r8,0x3
    3b94:	10 40 01 08 	ld32	r8,r8
    3b98:	0d 42 c2 0c 	wl16	r16,0x160c
    3b9c:	0d 60 02 03 	wh16	r16,0x3
    3ba0:	10 40 02 10 	ld32	r16,r16
    3ba4:	0d 44 f1 2c 	wl16	r9,0x278c
    3ba8:	0d 60 01 23 	wh16	r9,0x3
    3bac:	10 40 01 29 	ld32	r9,r9
    3bb0:	00 00 01 10 	add	r8,r16
    3bb4:	20 70 03 e2 	movepc	rret,8
    3bb8:	14 30 f1 16 	br	10 <compare>,#al
    3bbc:	00 10 00 41 	add	r2,1
    3bc0:	0d 40 91 10 	wl16	r8,0x490
    3bc4:	0d 60 01 03 	wh16	r8,0x3
    3bc8:	10 40 01 08 	ld32	r8,r8
    3bcc:	0d 42 c2 10 	wl16	r16,0x1610
    3bd0:	0d 60 02 03 	wh16	r16,0x3
    3bd4:	10 40 02 10 	ld32	r16,r16
    3bd8:	0d 44 f1 30 	wl16	r9,0x2790
    3bdc:	0d 60 01 23 	wh16	r9,0x3
    3be0:	10 40 01 29 	ld32	r9,r9
    3be4:	00 00 01 10 	add	r8,r16
    3be8:	20 70 03 e2 	movepc	rret,8
    3bec:	14 30 f1 09 	br	10 <compare>,#al
    3bf0:	00 10 00 41 	add	r2,1
    3bf4:	0d 40 91 14 	wl16	r8,0x494
    3bf8:	0d 60 01 03 	wh16	r8,0x3
    3bfc:	10 40 01 08 	ld32	r8,r8
    3c00:	0d 42 c2 14 	wl16	r16,0x1614
    3c04:	0d 60 02 03 	wh16	r16,0x3
    3c08:	10 40 02 10 	ld32	r16,r16
    3c0c:	0d 44 f1 34 	wl16	r9,0x2794
    3c10:	0d 60 01 23 	wh16	r9,0x3
    3c14:	10 40 01 29 	ld32	r9,r9
    3c18:	00 00 01 10 	add	r8,r16
    3c1c:	20 70 03 e2 	movepc	rret,8
    3c20:	14 30 f0 fc 	br	10 <compare>,#al
    3c24:	00 10 00 41 	add	r2,1
    3c28:	0d 40 91 18 	wl16	r8,0x498
    3c2c:	0d 60 01 03 	wh16	r8,0x3
    3c30:	10 40 01 08 	ld32	r8,r8
    3c34:	0d 42 c2 18 	wl16	r16,0x1618
    3c38:	0d 60 02 03 	wh16	r16,0x3
    3c3c:	10 40 02 10 	ld32	r16,r16
    3c40:	0d 44 f1 38 	wl16	r9,0x2798
    3c44:	0d 60 01 23 	wh16	r9,0x3
    3c48:	10 40 01 29 	ld32	r9,r9
    3c4c:	00 00 01 10 	add	r8,r16
    3c50:	20 70 03 e2 	movepc	rret,8
    3c54:	14 30 f0 ef 	br	10 <compare>,#al
    3c58:	00 10 00 41 	add	r2,1
    3c5c:	0d 40 91 1c 	wl16	r8,0x49c
    3c60:	0d 60 01 03 	wh16	r8,0x3
    3c64:	10 40 01 08 	ld32	r8,r8
    3c68:	0d 42 c2 1c 	wl16	r16,0x161c
    3c6c:	0d 60 02 03 	wh16	r16,0x3
    3c70:	10 40 02 10 	ld32	r16,r16
    3c74:	0d 44 f1 3c 	wl16	r9,0x279c
    3c78:	0d 60 01 23 	wh16	r9,0x3
    3c7c:	10 40 01 29 	ld32	r9,r9
    3c80:	00 00 01 10 	add	r8,r16
    3c84:	20 70 03 e2 	movepc	rret,8
    3c88:	14 30 f0 e2 	br	10 <compare>,#al
    3c8c:	00 10 00 41 	add	r2,1
    3c90:	0d 40 95 00 	wl16	r8,0x4a0
    3c94:	0d 60 01 03 	wh16	r8,0x3
    3c98:	10 40 01 08 	ld32	r8,r8
    3c9c:	0d 42 c6 00 	wl16	r16,0x1620
    3ca0:	0d 60 02 03 	wh16	r16,0x3
    3ca4:	10 40 02 10 	ld32	r16,r16
    3ca8:	0d 44 f5 20 	wl16	r9,0x27a0
    3cac:	0d 60 01 23 	wh16	r9,0x3
    3cb0:	10 40 01 29 	ld32	r9,r9
    3cb4:	00 00 01 10 	add	r8,r16
    3cb8:	20 70 03 e2 	movepc	rret,8
    3cbc:	14 30 f0 d5 	br	10 <compare>,#al
    3cc0:	00 10 00 41 	add	r2,1
    3cc4:	0d 40 95 04 	wl16	r8,0x4a4
    3cc8:	0d 60 01 03 	wh16	r8,0x3
    3ccc:	10 40 01 08 	ld32	r8,r8
    3cd0:	0d 42 c6 04 	wl16	r16,0x1624
    3cd4:	0d 60 02 03 	wh16	r16,0x3
    3cd8:	10 40 02 10 	ld32	r16,r16
    3cdc:	0d 44 f5 24 	wl16	r9,0x27a4
    3ce0:	0d 60 01 23 	wh16	r9,0x3
    3ce4:	10 40 01 29 	ld32	r9,r9
    3ce8:	00 00 01 10 	add	r8,r16
    3cec:	20 70 03 e2 	movepc	rret,8
    3cf0:	14 30 f0 c8 	br	10 <compare>,#al
    3cf4:	00 10 00 41 	add	r2,1
    3cf8:	0d 40 95 08 	wl16	r8,0x4a8
    3cfc:	0d 60 01 03 	wh16	r8,0x3
    3d00:	10 40 01 08 	ld32	r8,r8
    3d04:	0d 42 c6 08 	wl16	r16,0x1628
    3d08:	0d 60 02 03 	wh16	r16,0x3
    3d0c:	10 40 02 10 	ld32	r16,r16
    3d10:	0d 44 f5 28 	wl16	r9,0x27a8
    3d14:	0d 60 01 23 	wh16	r9,0x3
    3d18:	10 40 01 29 	ld32	r9,r9
    3d1c:	00 00 01 10 	add	r8,r16
    3d20:	20 70 03 e2 	movepc	rret,8
    3d24:	14 30 f0 bb 	br	10 <compare>,#al
    3d28:	00 10 00 41 	add	r2,1
    3d2c:	0d 40 95 0c 	wl16	r8,0x4ac
    3d30:	0d 60 01 03 	wh16	r8,0x3
    3d34:	10 40 01 08 	ld32	r8,r8
    3d38:	0d 42 c6 0c 	wl16	r16,0x162c
    3d3c:	0d 60 02 03 	wh16	r16,0x3
    3d40:	10 40 02 10 	ld32	r16,r16
    3d44:	0d 44 f5 2c 	wl16	r9,0x27ac
    3d48:	0d 60 01 23 	wh16	r9,0x3
    3d4c:	10 40 01 29 	ld32	r9,r9
    3d50:	00 00 01 10 	add	r8,r16
    3d54:	20 70 03 e2 	movepc	rret,8
    3d58:	14 30 f0 ae 	br	10 <compare>,#al
    3d5c:	00 10 00 41 	add	r2,1
    3d60:	0d 40 95 10 	wl16	r8,0x4b0
    3d64:	0d 60 01 03 	wh16	r8,0x3
    3d68:	10 40 01 08 	ld32	r8,r8
    3d6c:	0d 42 c6 10 	wl16	r16,0x1630
    3d70:	0d 60 02 03 	wh16	r16,0x3
    3d74:	10 40 02 10 	ld32	r16,r16
    3d78:	0d 44 f5 30 	wl16	r9,0x27b0
    3d7c:	0d 60 01 23 	wh16	r9,0x3
    3d80:	10 40 01 29 	ld32	r9,r9
    3d84:	00 00 01 10 	add	r8,r16
    3d88:	20 70 03 e2 	movepc	rret,8
    3d8c:	14 30 f0 a1 	br	10 <compare>,#al
    3d90:	00 10 00 41 	add	r2,1
    3d94:	0d 40 95 14 	wl16	r8,0x4b4
    3d98:	0d 60 01 03 	wh16	r8,0x3
    3d9c:	10 40 01 08 	ld32	r8,r8
    3da0:	0d 42 c6 14 	wl16	r16,0x1634
    3da4:	0d 60 02 03 	wh16	r16,0x3
    3da8:	10 40 02 10 	ld32	r16,r16
    3dac:	0d 44 f5 34 	wl16	r9,0x27b4
    3db0:	0d 60 01 23 	wh16	r9,0x3
    3db4:	10 40 01 29 	ld32	r9,r9
    3db8:	00 00 01 10 	add	r8,r16
    3dbc:	20 70 03 e2 	movepc	rret,8
    3dc0:	14 30 f0 94 	br	10 <compare>,#al
    3dc4:	00 10 00 41 	add	r2,1
    3dc8:	0d 40 95 18 	wl16	r8,0x4b8
    3dcc:	0d 60 01 03 	wh16	r8,0x3
    3dd0:	10 40 01 08 	ld32	r8,r8
    3dd4:	0d 42 c6 18 	wl16	r16,0x1638
    3dd8:	0d 60 02 03 	wh16	r16,0x3
    3ddc:	10 40 02 10 	ld32	r16,r16
    3de0:	0d 44 f5 38 	wl16	r9,0x27b8
    3de4:	0d 60 01 23 	wh16	r9,0x3
    3de8:	10 40 01 29 	ld32	r9,r9
    3dec:	00 00 01 10 	add	r8,r16
    3df0:	20 70 03 e2 	movepc	rret,8
    3df4:	14 30 f0 87 	br	10 <compare>,#al
    3df8:	00 10 00 41 	add	r2,1
    3dfc:	0d 40 95 1c 	wl16	r8,0x4bc
    3e00:	0d 60 01 03 	wh16	r8,0x3
    3e04:	10 40 01 08 	ld32	r8,r8
    3e08:	0d 42 c6 1c 	wl16	r16,0x163c
    3e0c:	0d 60 02 03 	wh16	r16,0x3
    3e10:	10 40 02 10 	ld32	r16,r16
    3e14:	0d 44 f5 3c 	wl16	r9,0x27bc
    3e18:	0d 60 01 23 	wh16	r9,0x3
    3e1c:	10 40 01 29 	ld32	r9,r9
    3e20:	00 00 01 10 	add	r8,r16
    3e24:	20 70 03 e2 	movepc	rret,8
    3e28:	14 30 f0 7a 	br	10 <compare>,#al
    3e2c:	00 10 00 41 	add	r2,1
    3e30:	0d 40 99 00 	wl16	r8,0x4c0
    3e34:	0d 60 01 03 	wh16	r8,0x3
    3e38:	10 40 01 08 	ld32	r8,r8
    3e3c:	0d 42 ca 00 	wl16	r16,0x1640
    3e40:	0d 60 02 03 	wh16	r16,0x3
    3e44:	10 40 02 10 	ld32	r16,r16
    3e48:	0d 44 f9 20 	wl16	r9,0x27c0
    3e4c:	0d 60 01 23 	wh16	r9,0x3
    3e50:	10 40 01 29 	ld32	r9,r9
    3e54:	00 00 01 10 	add	r8,r16
    3e58:	20 70 03 e2 	movepc	rret,8
    3e5c:	14 30 f0 6d 	br	10 <compare>,#al
    3e60:	00 10 00 41 	add	r2,1
    3e64:	0d 40 99 04 	wl16	r8,0x4c4
    3e68:	0d 60 01 03 	wh16	r8,0x3
    3e6c:	10 40 01 08 	ld32	r8,r8
    3e70:	0d 42 ca 04 	wl16	r16,0x1644
    3e74:	0d 60 02 03 	wh16	r16,0x3
    3e78:	10 40 02 10 	ld32	r16,r16
    3e7c:	0d 44 f9 24 	wl16	r9,0x27c4
    3e80:	0d 60 01 23 	wh16	r9,0x3
    3e84:	10 40 01 29 	ld32	r9,r9
    3e88:	00 00 01 10 	add	r8,r16
    3e8c:	20 70 03 e2 	movepc	rret,8
    3e90:	14 30 f0 60 	br	10 <compare>,#al
    3e94:	00 10 00 41 	add	r2,1
    3e98:	0d 40 99 08 	wl16	r8,0x4c8
    3e9c:	0d 60 01 03 	wh16	r8,0x3
    3ea0:	10 40 01 08 	ld32	r8,r8
    3ea4:	0d 42 ca 08 	wl16	r16,0x1648
    3ea8:	0d 60 02 03 	wh16	r16,0x3
    3eac:	10 40 02 10 	ld32	r16,r16
    3eb0:	0d 44 f9 28 	wl16	r9,0x27c8
    3eb4:	0d 60 01 23 	wh16	r9,0x3
    3eb8:	10 40 01 29 	ld32	r9,r9
    3ebc:	00 00 01 10 	add	r8,r16
    3ec0:	20 70 03 e2 	movepc	rret,8
    3ec4:	14 30 f0 53 	br	10 <compare>,#al
    3ec8:	00 10 00 41 	add	r2,1
    3ecc:	0d 40 99 0c 	wl16	r8,0x4cc
    3ed0:	0d 60 01 03 	wh16	r8,0x3
    3ed4:	10 40 01 08 	ld32	r8,r8
    3ed8:	0d 42 ca 0c 	wl16	r16,0x164c
    3edc:	0d 60 02 03 	wh16	r16,0x3
    3ee0:	10 40 02 10 	ld32	r16,r16
    3ee4:	0d 44 f9 2c 	wl16	r9,0x27cc
    3ee8:	0d 60 01 23 	wh16	r9,0x3
    3eec:	10 40 01 29 	ld32	r9,r9
    3ef0:	00 00 01 10 	add	r8,r16
    3ef4:	20 70 03 e2 	movepc	rret,8
    3ef8:	14 30 f0 46 	br	10 <compare>,#al
    3efc:	00 10 00 41 	add	r2,1
    3f00:	0d 40 99 10 	wl16	r8,0x4d0
    3f04:	0d 60 01 03 	wh16	r8,0x3
    3f08:	10 40 01 08 	ld32	r8,r8
    3f0c:	0d 42 ca 10 	wl16	r16,0x1650
    3f10:	0d 60 02 03 	wh16	r16,0x3
    3f14:	10 40 02 10 	ld32	r16,r16
    3f18:	0d 44 f9 30 	wl16	r9,0x27d0
    3f1c:	0d 60 01 23 	wh16	r9,0x3
    3f20:	10 40 01 29 	ld32	r9,r9
    3f24:	00 00 01 10 	add	r8,r16
    3f28:	20 70 03 e2 	movepc	rret,8
    3f2c:	14 30 f0 39 	br	10 <compare>,#al
    3f30:	00 10 00 41 	add	r2,1
    3f34:	0d 40 99 14 	wl16	r8,0x4d4
    3f38:	0d 60 01 03 	wh16	r8,0x3
    3f3c:	10 40 01 08 	ld32	r8,r8
    3f40:	0d 42 ca 14 	wl16	r16,0x1654
    3f44:	0d 60 02 03 	wh16	r16,0x3
    3f48:	10 40 02 10 	ld32	r16,r16
    3f4c:	0d 44 f9 34 	wl16	r9,0x27d4
    3f50:	0d 60 01 23 	wh16	r9,0x3
    3f54:	10 40 01 29 	ld32	r9,r9
    3f58:	00 00 01 10 	add	r8,r16
    3f5c:	20 70 03 e2 	movepc	rret,8
    3f60:	14 30 f0 2c 	br	10 <compare>,#al
    3f64:	00 10 00 41 	add	r2,1
    3f68:	0d 40 99 18 	wl16	r8,0x4d8
    3f6c:	0d 60 01 03 	wh16	r8,0x3
    3f70:	10 40 01 08 	ld32	r8,r8
    3f74:	0d 42 ca 18 	wl16	r16,0x1658
    3f78:	0d 60 02 03 	wh16	r16,0x3
    3f7c:	10 40 02 10 	ld32	r16,r16
    3f80:	0d 44 f9 38 	wl16	r9,0x27d8
    3f84:	0d 60 01 23 	wh16	r9,0x3
    3f88:	10 40 01 29 	ld32	r9,r9
    3f8c:	00 00 01 10 	add	r8,r16
    3f90:	20 70 03 e2 	movepc	rret,8
    3f94:	14 30 f0 1f 	br	10 <compare>,#al
    3f98:	00 10 00 41 	add	r2,1
    3f9c:	0d 40 99 1c 	wl16	r8,0x4dc
    3fa0:	0d 60 01 03 	wh16	r8,0x3
    3fa4:	10 40 01 08 	ld32	r8,r8
    3fa8:	0d 42 ca 1c 	wl16	r16,0x165c
    3fac:	0d 60 02 03 	wh16	r16,0x3
    3fb0:	10 40 02 10 	ld32	r16,r16
    3fb4:	0d 44 f9 3c 	wl16	r9,0x27dc
    3fb8:	0d 60 01 23 	wh16	r9,0x3
    3fbc:	10 40 01 29 	ld32	r9,r9
    3fc0:	00 00 01 10 	add	r8,r16
    3fc4:	20 70 03 e2 	movepc	rret,8
    3fc8:	14 30 f0 12 	br	10 <compare>,#al
    3fcc:	00 10 00 41 	add	r2,1
    3fd0:	0d 40 9d 00 	wl16	r8,0x4e0
    3fd4:	0d 60 01 03 	wh16	r8,0x3
    3fd8:	10 40 01 08 	ld32	r8,r8
    3fdc:	0d 42 ce 00 	wl16	r16,0x1660
    3fe0:	0d 60 02 03 	wh16	r16,0x3
    3fe4:	10 40 02 10 	ld32	r16,r16
    3fe8:	0d 44 fd 20 	wl16	r9,0x27e0
    3fec:	0d 60 01 23 	wh16	r9,0x3
    3ff0:	10 40 01 29 	ld32	r9,r9
    3ff4:	00 00 01 10 	add	r8,r16
    3ff8:	20 70 03 e2 	movepc	rret,8
    3ffc:	14 30 f0 05 	br	10 <compare>,#al
    4000:	00 10 00 41 	add	r2,1
    4004:	0d 40 9d 04 	wl16	r8,0x4e4
    4008:	0d 60 01 03 	wh16	r8,0x3
    400c:	10 40 01 08 	ld32	r8,r8
    4010:	0d 42 ce 04 	wl16	r16,0x1664
    4014:	0d 60 02 03 	wh16	r16,0x3
    4018:	10 40 02 10 	ld32	r16,r16
    401c:	0d 44 fd 24 	wl16	r9,0x27e4
    4020:	0d 60 01 23 	wh16	r9,0x3
    4024:	10 40 01 29 	ld32	r9,r9
    4028:	00 00 01 10 	add	r8,r16
    402c:	20 70 03 e2 	movepc	rret,8
    4030:	14 30 ef f8 	br	10 <compare>,#al
    4034:	00 10 00 41 	add	r2,1
    4038:	0d 40 9d 08 	wl16	r8,0x4e8
    403c:	0d 60 01 03 	wh16	r8,0x3
    4040:	10 40 01 08 	ld32	r8,r8
    4044:	0d 42 ce 08 	wl16	r16,0x1668
    4048:	0d 60 02 03 	wh16	r16,0x3
    404c:	10 40 02 10 	ld32	r16,r16
    4050:	0d 44 fd 28 	wl16	r9,0x27e8
    4054:	0d 60 01 23 	wh16	r9,0x3
    4058:	10 40 01 29 	ld32	r9,r9
    405c:	00 00 01 10 	add	r8,r16
    4060:	20 70 03 e2 	movepc	rret,8
    4064:	14 30 ef eb 	br	10 <compare>,#al
    4068:	00 10 00 41 	add	r2,1
    406c:	0d 40 9d 0c 	wl16	r8,0x4ec
    4070:	0d 60 01 03 	wh16	r8,0x3
    4074:	10 40 01 08 	ld32	r8,r8
    4078:	0d 42 ce 0c 	wl16	r16,0x166c
    407c:	0d 60 02 03 	wh16	r16,0x3
    4080:	10 40 02 10 	ld32	r16,r16
    4084:	0d 44 fd 2c 	wl16	r9,0x27ec
    4088:	0d 60 01 23 	wh16	r9,0x3
    408c:	10 40 01 29 	ld32	r9,r9
    4090:	00 00 01 10 	add	r8,r16
    4094:	20 70 03 e2 	movepc	rret,8
    4098:	14 30 ef de 	br	10 <compare>,#al
    409c:	00 10 00 41 	add	r2,1
    40a0:	0d 40 9d 10 	wl16	r8,0x4f0
    40a4:	0d 60 01 03 	wh16	r8,0x3
    40a8:	10 40 01 08 	ld32	r8,r8
    40ac:	0d 42 ce 10 	wl16	r16,0x1670
    40b0:	0d 60 02 03 	wh16	r16,0x3
    40b4:	10 40 02 10 	ld32	r16,r16
    40b8:	0d 44 fd 30 	wl16	r9,0x27f0
    40bc:	0d 60 01 23 	wh16	r9,0x3
    40c0:	10 40 01 29 	ld32	r9,r9
    40c4:	00 00 01 10 	add	r8,r16
    40c8:	20 70 03 e2 	movepc	rret,8
    40cc:	14 30 ef d1 	br	10 <compare>,#al
    40d0:	00 10 00 41 	add	r2,1
    40d4:	0d 40 9d 14 	wl16	r8,0x4f4
    40d8:	0d 60 01 03 	wh16	r8,0x3
    40dc:	10 40 01 08 	ld32	r8,r8
    40e0:	0d 42 ce 14 	wl16	r16,0x1674
    40e4:	0d 60 02 03 	wh16	r16,0x3
    40e8:	10 40 02 10 	ld32	r16,r16
    40ec:	0d 44 fd 34 	wl16	r9,0x27f4
    40f0:	0d 60 01 23 	wh16	r9,0x3
    40f4:	10 40 01 29 	ld32	r9,r9
    40f8:	00 00 01 10 	add	r8,r16
    40fc:	20 70 03 e2 	movepc	rret,8
    4100:	14 30 ef c4 	br	10 <compare>,#al
    4104:	00 10 00 41 	add	r2,1
    4108:	0d 40 9d 18 	wl16	r8,0x4f8
    410c:	0d 60 01 03 	wh16	r8,0x3
    4110:	10 40 01 08 	ld32	r8,r8
    4114:	0d 42 ce 18 	wl16	r16,0x1678
    4118:	0d 60 02 03 	wh16	r16,0x3
    411c:	10 40 02 10 	ld32	r16,r16
    4120:	0d 44 fd 38 	wl16	r9,0x27f8
    4124:	0d 60 01 23 	wh16	r9,0x3
    4128:	10 40 01 29 	ld32	r9,r9
    412c:	00 00 01 10 	add	r8,r16
    4130:	20 70 03 e2 	movepc	rret,8
    4134:	14 30 ef b7 	br	10 <compare>,#al
    4138:	00 10 00 41 	add	r2,1
    413c:	0d 40 9d 1c 	wl16	r8,0x4fc
    4140:	0d 60 01 03 	wh16	r8,0x3
    4144:	10 40 01 08 	ld32	r8,r8
    4148:	0d 42 ce 1c 	wl16	r16,0x167c
    414c:	0d 60 02 03 	wh16	r16,0x3
    4150:	10 40 02 10 	ld32	r16,r16
    4154:	0d 44 fd 3c 	wl16	r9,0x27fc
    4158:	0d 60 01 23 	wh16	r9,0x3
    415c:	10 40 01 29 	ld32	r9,r9
    4160:	00 00 01 10 	add	r8,r16
    4164:	20 70 03 e2 	movepc	rret,8
    4168:	14 30 ef aa 	br	10 <compare>,#al
    416c:	00 10 00 41 	add	r2,1
    4170:	0d 40 a1 00 	wl16	r8,0x500
    4174:	0d 60 01 03 	wh16	r8,0x3
    4178:	10 40 01 08 	ld32	r8,r8
    417c:	0d 42 d2 00 	wl16	r16,0x1680
    4180:	0d 60 02 03 	wh16	r16,0x3
    4184:	10 40 02 10 	ld32	r16,r16
    4188:	0d 45 01 20 	wl16	r9,0x2800
    418c:	0d 60 01 23 	wh16	r9,0x3
    4190:	10 40 01 29 	ld32	r9,r9
    4194:	00 00 01 10 	add	r8,r16
    4198:	20 70 03 e2 	movepc	rret,8
    419c:	14 30 ef 9d 	br	10 <compare>,#al
    41a0:	00 10 00 41 	add	r2,1
    41a4:	0d 40 a1 04 	wl16	r8,0x504
    41a8:	0d 60 01 03 	wh16	r8,0x3
    41ac:	10 40 01 08 	ld32	r8,r8
    41b0:	0d 42 d2 04 	wl16	r16,0x1684
    41b4:	0d 60 02 03 	wh16	r16,0x3
    41b8:	10 40 02 10 	ld32	r16,r16
    41bc:	0d 45 01 24 	wl16	r9,0x2804
    41c0:	0d 60 01 23 	wh16	r9,0x3
    41c4:	10 40 01 29 	ld32	r9,r9
    41c8:	00 00 01 10 	add	r8,r16
    41cc:	20 70 03 e2 	movepc	rret,8
    41d0:	14 30 ef 90 	br	10 <compare>,#al
    41d4:	00 10 00 41 	add	r2,1
    41d8:	0d 40 a1 08 	wl16	r8,0x508
    41dc:	0d 60 01 03 	wh16	r8,0x3
    41e0:	10 40 01 08 	ld32	r8,r8
    41e4:	0d 42 d2 08 	wl16	r16,0x1688
    41e8:	0d 60 02 03 	wh16	r16,0x3
    41ec:	10 40 02 10 	ld32	r16,r16
    41f0:	0d 45 01 28 	wl16	r9,0x2808
    41f4:	0d 60 01 23 	wh16	r9,0x3
    41f8:	10 40 01 29 	ld32	r9,r9
    41fc:	00 00 01 10 	add	r8,r16
    4200:	20 70 03 e2 	movepc	rret,8
    4204:	14 30 ef 83 	br	10 <compare>,#al
    4208:	00 10 00 41 	add	r2,1
    420c:	0d 40 a1 0c 	wl16	r8,0x50c
    4210:	0d 60 01 03 	wh16	r8,0x3
    4214:	10 40 01 08 	ld32	r8,r8
    4218:	0d 42 d2 0c 	wl16	r16,0x168c
    421c:	0d 60 02 03 	wh16	r16,0x3
    4220:	10 40 02 10 	ld32	r16,r16
    4224:	0d 45 01 2c 	wl16	r9,0x280c
    4228:	0d 60 01 23 	wh16	r9,0x3
    422c:	10 40 01 29 	ld32	r9,r9
    4230:	00 00 01 10 	add	r8,r16
    4234:	20 70 03 e2 	movepc	rret,8
    4238:	14 30 ef 76 	br	10 <compare>,#al
    423c:	00 10 00 41 	add	r2,1
    4240:	0d 40 a1 10 	wl16	r8,0x510
    4244:	0d 60 01 03 	wh16	r8,0x3
    4248:	10 40 01 08 	ld32	r8,r8
    424c:	0d 42 d2 10 	wl16	r16,0x1690
    4250:	0d 60 02 03 	wh16	r16,0x3
    4254:	10 40 02 10 	ld32	r16,r16
    4258:	0d 45 01 30 	wl16	r9,0x2810
    425c:	0d 60 01 23 	wh16	r9,0x3
    4260:	10 40 01 29 	ld32	r9,r9
    4264:	00 00 01 10 	add	r8,r16
    4268:	20 70 03 e2 	movepc	rret,8
    426c:	14 30 ef 69 	br	10 <compare>,#al
    4270:	00 10 00 41 	add	r2,1
    4274:	0d 40 a1 14 	wl16	r8,0x514
    4278:	0d 60 01 03 	wh16	r8,0x3
    427c:	10 40 01 08 	ld32	r8,r8
    4280:	0d 42 d2 14 	wl16	r16,0x1694
    4284:	0d 60 02 03 	wh16	r16,0x3
    4288:	10 40 02 10 	ld32	r16,r16
    428c:	0d 45 01 34 	wl16	r9,0x2814
    4290:	0d 60 01 23 	wh16	r9,0x3
    4294:	10 40 01 29 	ld32	r9,r9
    4298:	00 00 01 10 	add	r8,r16
    429c:	20 70 03 e2 	movepc	rret,8
    42a0:	14 30 ef 5c 	br	10 <compare>,#al
    42a4:	00 10 00 41 	add	r2,1
    42a8:	0d 40 a1 18 	wl16	r8,0x518
    42ac:	0d 60 01 03 	wh16	r8,0x3
    42b0:	10 40 01 08 	ld32	r8,r8
    42b4:	0d 42 d2 18 	wl16	r16,0x1698
    42b8:	0d 60 02 03 	wh16	r16,0x3
    42bc:	10 40 02 10 	ld32	r16,r16
    42c0:	0d 45 01 38 	wl16	r9,0x2818
    42c4:	0d 60 01 23 	wh16	r9,0x3
    42c8:	10 40 01 29 	ld32	r9,r9
    42cc:	00 00 01 10 	add	r8,r16
    42d0:	20 70 03 e2 	movepc	rret,8
    42d4:	14 30 ef 4f 	br	10 <compare>,#al
    42d8:	00 10 00 41 	add	r2,1
    42dc:	0d 40 a1 1c 	wl16	r8,0x51c
    42e0:	0d 60 01 03 	wh16	r8,0x3
    42e4:	10 40 01 08 	ld32	r8,r8
    42e8:	0d 42 d2 1c 	wl16	r16,0x169c
    42ec:	0d 60 02 03 	wh16	r16,0x3
    42f0:	10 40 02 10 	ld32	r16,r16
    42f4:	0d 45 01 3c 	wl16	r9,0x281c
    42f8:	0d 60 01 23 	wh16	r9,0x3
    42fc:	10 40 01 29 	ld32	r9,r9
    4300:	00 00 01 10 	add	r8,r16
    4304:	20 70 03 e2 	movepc	rret,8
    4308:	14 30 ef 42 	br	10 <compare>,#al
    430c:	00 10 00 41 	add	r2,1
    4310:	0d 40 a5 00 	wl16	r8,0x520
    4314:	0d 60 01 03 	wh16	r8,0x3
    4318:	10 40 01 08 	ld32	r8,r8
    431c:	0d 42 d6 00 	wl16	r16,0x16a0
    4320:	0d 60 02 03 	wh16	r16,0x3
    4324:	10 40 02 10 	ld32	r16,r16
    4328:	0d 45 05 20 	wl16	r9,0x2820
    432c:	0d 60 01 23 	wh16	r9,0x3
    4330:	10 40 01 29 	ld32	r9,r9
    4334:	00 00 01 10 	add	r8,r16
    4338:	20 70 03 e2 	movepc	rret,8
    433c:	14 30 ef 35 	br	10 <compare>,#al
    4340:	00 10 00 41 	add	r2,1
    4344:	0d 40 a5 04 	wl16	r8,0x524
    4348:	0d 60 01 03 	wh16	r8,0x3
    434c:	10 40 01 08 	ld32	r8,r8
    4350:	0d 42 d6 04 	wl16	r16,0x16a4
    4354:	0d 60 02 03 	wh16	r16,0x3
    4358:	10 40 02 10 	ld32	r16,r16
    435c:	0d 45 05 24 	wl16	r9,0x2824
    4360:	0d 60 01 23 	wh16	r9,0x3
    4364:	10 40 01 29 	ld32	r9,r9
    4368:	00 00 01 10 	add	r8,r16
    436c:	20 70 03 e2 	movepc	rret,8
    4370:	14 30 ef 28 	br	10 <compare>,#al
    4374:	00 10 00 41 	add	r2,1
    4378:	0d 40 a5 08 	wl16	r8,0x528
    437c:	0d 60 01 03 	wh16	r8,0x3
    4380:	10 40 01 08 	ld32	r8,r8
    4384:	0d 42 d6 08 	wl16	r16,0x16a8
    4388:	0d 60 02 03 	wh16	r16,0x3
    438c:	10 40 02 10 	ld32	r16,r16
    4390:	0d 45 05 28 	wl16	r9,0x2828
    4394:	0d 60 01 23 	wh16	r9,0x3
    4398:	10 40 01 29 	ld32	r9,r9
    439c:	00 00 01 10 	add	r8,r16
    43a0:	20 70 03 e2 	movepc	rret,8
    43a4:	14 30 ef 1b 	br	10 <compare>,#al
    43a8:	00 10 00 41 	add	r2,1
    43ac:	0d 40 a5 0c 	wl16	r8,0x52c
    43b0:	0d 60 01 03 	wh16	r8,0x3
    43b4:	10 40 01 08 	ld32	r8,r8
    43b8:	0d 42 d6 0c 	wl16	r16,0x16ac
    43bc:	0d 60 02 03 	wh16	r16,0x3
    43c0:	10 40 02 10 	ld32	r16,r16
    43c4:	0d 45 05 2c 	wl16	r9,0x282c
    43c8:	0d 60 01 23 	wh16	r9,0x3
    43cc:	10 40 01 29 	ld32	r9,r9
    43d0:	00 00 01 10 	add	r8,r16
    43d4:	20 70 03 e2 	movepc	rret,8
    43d8:	14 30 ef 0e 	br	10 <compare>,#al
    43dc:	00 10 00 41 	add	r2,1
    43e0:	0d 40 a5 10 	wl16	r8,0x530
    43e4:	0d 60 01 03 	wh16	r8,0x3
    43e8:	10 40 01 08 	ld32	r8,r8
    43ec:	0d 42 d6 10 	wl16	r16,0x16b0
    43f0:	0d 60 02 03 	wh16	r16,0x3
    43f4:	10 40 02 10 	ld32	r16,r16
    43f8:	0d 45 05 30 	wl16	r9,0x2830
    43fc:	0d 60 01 23 	wh16	r9,0x3
    4400:	10 40 01 29 	ld32	r9,r9
    4404:	00 00 01 10 	add	r8,r16
    4408:	20 70 03 e2 	movepc	rret,8
    440c:	14 30 ef 01 	br	10 <compare>,#al
    4410:	00 10 00 41 	add	r2,1
    4414:	0d 40 a5 14 	wl16	r8,0x534
    4418:	0d 60 01 03 	wh16	r8,0x3
    441c:	10 40 01 08 	ld32	r8,r8
    4420:	0d 42 d6 14 	wl16	r16,0x16b4
    4424:	0d 60 02 03 	wh16	r16,0x3
    4428:	10 40 02 10 	ld32	r16,r16
    442c:	0d 45 05 34 	wl16	r9,0x2834
    4430:	0d 60 01 23 	wh16	r9,0x3
    4434:	10 40 01 29 	ld32	r9,r9
    4438:	00 00 01 10 	add	r8,r16
    443c:	20 70 03 e2 	movepc	rret,8
    4440:	14 30 ee f4 	br	10 <compare>,#al
    4444:	00 10 00 41 	add	r2,1
    4448:	0d 40 a5 18 	wl16	r8,0x538
    444c:	0d 60 01 03 	wh16	r8,0x3
    4450:	10 40 01 08 	ld32	r8,r8
    4454:	0d 42 d6 18 	wl16	r16,0x16b8
    4458:	0d 60 02 03 	wh16	r16,0x3
    445c:	10 40 02 10 	ld32	r16,r16
    4460:	0d 45 05 38 	wl16	r9,0x2838
    4464:	0d 60 01 23 	wh16	r9,0x3
    4468:	10 40 01 29 	ld32	r9,r9
    446c:	00 00 01 10 	add	r8,r16
    4470:	20 70 03 e2 	movepc	rret,8
    4474:	14 30 ee e7 	br	10 <compare>,#al
    4478:	00 10 00 41 	add	r2,1
    447c:	0d 40 a5 1c 	wl16	r8,0x53c
    4480:	0d 60 01 03 	wh16	r8,0x3
    4484:	10 40 01 08 	ld32	r8,r8
    4488:	0d 42 d6 1c 	wl16	r16,0x16bc
    448c:	0d 60 02 03 	wh16	r16,0x3
    4490:	10 40 02 10 	ld32	r16,r16
    4494:	0d 45 05 3c 	wl16	r9,0x283c
    4498:	0d 60 01 23 	wh16	r9,0x3
    449c:	10 40 01 29 	ld32	r9,r9
    44a0:	00 00 01 10 	add	r8,r16
    44a4:	20 70 03 e2 	movepc	rret,8
    44a8:	14 30 ee da 	br	10 <compare>,#al
    44ac:	00 10 00 41 	add	r2,1
    44b0:	0d 40 a9 00 	wl16	r8,0x540
    44b4:	0d 60 01 03 	wh16	r8,0x3
    44b8:	10 40 01 08 	ld32	r8,r8
    44bc:	0d 42 da 00 	wl16	r16,0x16c0
    44c0:	0d 60 02 03 	wh16	r16,0x3
    44c4:	10 40 02 10 	ld32	r16,r16
    44c8:	0d 45 09 20 	wl16	r9,0x2840
    44cc:	0d 60 01 23 	wh16	r9,0x3
    44d0:	10 40 01 29 	ld32	r9,r9
    44d4:	00 00 01 10 	add	r8,r16
    44d8:	20 70 03 e2 	movepc	rret,8
    44dc:	14 30 ee cd 	br	10 <compare>,#al
    44e0:	00 10 00 41 	add	r2,1
    44e4:	0d 40 a9 04 	wl16	r8,0x544
    44e8:	0d 60 01 03 	wh16	r8,0x3
    44ec:	10 40 01 08 	ld32	r8,r8
    44f0:	0d 42 da 04 	wl16	r16,0x16c4
    44f4:	0d 60 02 03 	wh16	r16,0x3
    44f8:	10 40 02 10 	ld32	r16,r16
    44fc:	0d 45 09 24 	wl16	r9,0x2844
    4500:	0d 60 01 23 	wh16	r9,0x3
    4504:	10 40 01 29 	ld32	r9,r9
    4508:	00 00 01 10 	add	r8,r16
    450c:	20 70 03 e2 	movepc	rret,8
    4510:	14 30 ee c0 	br	10 <compare>,#al
    4514:	00 10 00 41 	add	r2,1
    4518:	0d 40 a9 08 	wl16	r8,0x548
    451c:	0d 60 01 03 	wh16	r8,0x3
    4520:	10 40 01 08 	ld32	r8,r8
    4524:	0d 42 da 08 	wl16	r16,0x16c8
    4528:	0d 60 02 03 	wh16	r16,0x3
    452c:	10 40 02 10 	ld32	r16,r16
    4530:	0d 45 09 28 	wl16	r9,0x2848
    4534:	0d 60 01 23 	wh16	r9,0x3
    4538:	10 40 01 29 	ld32	r9,r9
    453c:	00 00 01 10 	add	r8,r16
    4540:	20 70 03 e2 	movepc	rret,8
    4544:	14 30 ee b3 	br	10 <compare>,#al
    4548:	00 10 00 41 	add	r2,1
    454c:	0d 40 a9 0c 	wl16	r8,0x54c
    4550:	0d 60 01 03 	wh16	r8,0x3
    4554:	10 40 01 08 	ld32	r8,r8
    4558:	0d 42 da 0c 	wl16	r16,0x16cc
    455c:	0d 60 02 03 	wh16	r16,0x3
    4560:	10 40 02 10 	ld32	r16,r16
    4564:	0d 45 09 2c 	wl16	r9,0x284c
    4568:	0d 60 01 23 	wh16	r9,0x3
    456c:	10 40 01 29 	ld32	r9,r9
    4570:	00 00 01 10 	add	r8,r16
    4574:	20 70 03 e2 	movepc	rret,8
    4578:	14 30 ee a6 	br	10 <compare>,#al
    457c:	00 10 00 41 	add	r2,1
    4580:	0d 40 a9 10 	wl16	r8,0x550
    4584:	0d 60 01 03 	wh16	r8,0x3
    4588:	10 40 01 08 	ld32	r8,r8
    458c:	0d 42 da 10 	wl16	r16,0x16d0
    4590:	0d 60 02 03 	wh16	r16,0x3
    4594:	10 40 02 10 	ld32	r16,r16
    4598:	0d 45 09 30 	wl16	r9,0x2850
    459c:	0d 60 01 23 	wh16	r9,0x3
    45a0:	10 40 01 29 	ld32	r9,r9
    45a4:	00 00 01 10 	add	r8,r16
    45a8:	20 70 03 e2 	movepc	rret,8
    45ac:	14 30 ee 99 	br	10 <compare>,#al
    45b0:	00 10 00 41 	add	r2,1
    45b4:	0d 40 a9 14 	wl16	r8,0x554
    45b8:	0d 60 01 03 	wh16	r8,0x3
    45bc:	10 40 01 08 	ld32	r8,r8
    45c0:	0d 42 da 14 	wl16	r16,0x16d4
    45c4:	0d 60 02 03 	wh16	r16,0x3
    45c8:	10 40 02 10 	ld32	r16,r16
    45cc:	0d 45 09 34 	wl16	r9,0x2854
    45d0:	0d 60 01 23 	wh16	r9,0x3
    45d4:	10 40 01 29 	ld32	r9,r9
    45d8:	00 00 01 10 	add	r8,r16
    45dc:	20 70 03 e2 	movepc	rret,8
    45e0:	14 30 ee 8c 	br	10 <compare>,#al
    45e4:	00 10 00 41 	add	r2,1
    45e8:	0d 40 a9 18 	wl16	r8,0x558
    45ec:	0d 60 01 03 	wh16	r8,0x3
    45f0:	10 40 01 08 	ld32	r8,r8
    45f4:	0d 42 da 18 	wl16	r16,0x16d8
    45f8:	0d 60 02 03 	wh16	r16,0x3
    45fc:	10 40 02 10 	ld32	r16,r16
    4600:	0d 45 09 38 	wl16	r9,0x2858
    4604:	0d 60 01 23 	wh16	r9,0x3
    4608:	10 40 01 29 	ld32	r9,r9
    460c:	00 00 01 10 	add	r8,r16
    4610:	20 70 03 e2 	movepc	rret,8
    4614:	14 30 ee 7f 	br	10 <compare>,#al
    4618:	00 10 00 41 	add	r2,1
    461c:	0d 40 a9 1c 	wl16	r8,0x55c
    4620:	0d 60 01 03 	wh16	r8,0x3
    4624:	10 40 01 08 	ld32	r8,r8
    4628:	0d 42 da 1c 	wl16	r16,0x16dc
    462c:	0d 60 02 03 	wh16	r16,0x3
    4630:	10 40 02 10 	ld32	r16,r16
    4634:	0d 45 09 3c 	wl16	r9,0x285c
    4638:	0d 60 01 23 	wh16	r9,0x3
    463c:	10 40 01 29 	ld32	r9,r9
    4640:	00 00 01 10 	add	r8,r16
    4644:	20 70 03 e2 	movepc	rret,8
    4648:	14 30 ee 72 	br	10 <compare>,#al
    464c:	00 10 00 41 	add	r2,1
    4650:	0d 40 ad 00 	wl16	r8,0x560
    4654:	0d 60 01 03 	wh16	r8,0x3
    4658:	10 40 01 08 	ld32	r8,r8
    465c:	0d 42 de 00 	wl16	r16,0x16e0
    4660:	0d 60 02 03 	wh16	r16,0x3
    4664:	10 40 02 10 	ld32	r16,r16
    4668:	0d 45 0d 20 	wl16	r9,0x2860
    466c:	0d 60 01 23 	wh16	r9,0x3
    4670:	10 40 01 29 	ld32	r9,r9
    4674:	00 00 01 10 	add	r8,r16
    4678:	20 70 03 e2 	movepc	rret,8
    467c:	14 30 ee 65 	br	10 <compare>,#al
    4680:	00 10 00 41 	add	r2,1
    4684:	0d 40 ad 04 	wl16	r8,0x564
    4688:	0d 60 01 03 	wh16	r8,0x3
    468c:	10 40 01 08 	ld32	r8,r8
    4690:	0d 42 de 04 	wl16	r16,0x16e4
    4694:	0d 60 02 03 	wh16	r16,0x3
    4698:	10 40 02 10 	ld32	r16,r16
    469c:	0d 45 0d 24 	wl16	r9,0x2864
    46a0:	0d 60 01 23 	wh16	r9,0x3
    46a4:	10 40 01 29 	ld32	r9,r9
    46a8:	00 00 01 10 	add	r8,r16
    46ac:	20 70 03 e2 	movepc	rret,8
    46b0:	14 30 ee 58 	br	10 <compare>,#al
    46b4:	00 10 00 41 	add	r2,1
    46b8:	0d 40 ad 08 	wl16	r8,0x568
    46bc:	0d 60 01 03 	wh16	r8,0x3
    46c0:	10 40 01 08 	ld32	r8,r8
    46c4:	0d 42 de 08 	wl16	r16,0x16e8
    46c8:	0d 60 02 03 	wh16	r16,0x3
    46cc:	10 40 02 10 	ld32	r16,r16
    46d0:	0d 45 0d 28 	wl16	r9,0x2868
    46d4:	0d 60 01 23 	wh16	r9,0x3
    46d8:	10 40 01 29 	ld32	r9,r9
    46dc:	00 00 01 10 	add	r8,r16
    46e0:	20 70 03 e2 	movepc	rret,8
    46e4:	14 30 ee 4b 	br	10 <compare>,#al
    46e8:	00 10 00 41 	add	r2,1
    46ec:	0d 40 ad 0c 	wl16	r8,0x56c
    46f0:	0d 60 01 03 	wh16	r8,0x3
    46f4:	10 40 01 08 	ld32	r8,r8
    46f8:	0d 42 de 0c 	wl16	r16,0x16ec
    46fc:	0d 60 02 03 	wh16	r16,0x3
    4700:	10 40 02 10 	ld32	r16,r16
    4704:	0d 45 0d 2c 	wl16	r9,0x286c
    4708:	0d 60 01 23 	wh16	r9,0x3
    470c:	10 40 01 29 	ld32	r9,r9
    4710:	00 00 01 10 	add	r8,r16
    4714:	20 70 03 e2 	movepc	rret,8
    4718:	14 30 ee 3e 	br	10 <compare>,#al
    471c:	00 10 00 41 	add	r2,1
    4720:	0d 40 ad 10 	wl16	r8,0x570
    4724:	0d 60 01 03 	wh16	r8,0x3
    4728:	10 40 01 08 	ld32	r8,r8
    472c:	0d 42 de 10 	wl16	r16,0x16f0
    4730:	0d 60 02 03 	wh16	r16,0x3
    4734:	10 40 02 10 	ld32	r16,r16
    4738:	0d 45 0d 30 	wl16	r9,0x2870
    473c:	0d 60 01 23 	wh16	r9,0x3
    4740:	10 40 01 29 	ld32	r9,r9
    4744:	00 00 01 10 	add	r8,r16
    4748:	20 70 03 e2 	movepc	rret,8
    474c:	14 30 ee 31 	br	10 <compare>,#al
    4750:	00 10 00 41 	add	r2,1
    4754:	0d 40 ad 14 	wl16	r8,0x574
    4758:	0d 60 01 03 	wh16	r8,0x3
    475c:	10 40 01 08 	ld32	r8,r8
    4760:	0d 42 de 14 	wl16	r16,0x16f4
    4764:	0d 60 02 03 	wh16	r16,0x3
    4768:	10 40 02 10 	ld32	r16,r16
    476c:	0d 45 0d 34 	wl16	r9,0x2874
    4770:	0d 60 01 23 	wh16	r9,0x3
    4774:	10 40 01 29 	ld32	r9,r9
    4778:	00 00 01 10 	add	r8,r16
    477c:	20 70 03 e2 	movepc	rret,8
    4780:	14 30 ee 24 	br	10 <compare>,#al
    4784:	00 10 00 41 	add	r2,1
    4788:	0d 40 ad 18 	wl16	r8,0x578
    478c:	0d 60 01 03 	wh16	r8,0x3
    4790:	10 40 01 08 	ld32	r8,r8
    4794:	0d 42 de 18 	wl16	r16,0x16f8
    4798:	0d 60 02 03 	wh16	r16,0x3
    479c:	10 40 02 10 	ld32	r16,r16
    47a0:	0d 45 0d 38 	wl16	r9,0x2878
    47a4:	0d 60 01 23 	wh16	r9,0x3
    47a8:	10 40 01 29 	ld32	r9,r9
    47ac:	00 00 01 10 	add	r8,r16
    47b0:	20 70 03 e2 	movepc	rret,8
    47b4:	14 30 ee 17 	br	10 <compare>,#al
    47b8:	00 10 00 41 	add	r2,1
    47bc:	0d 40 ad 1c 	wl16	r8,0x57c
    47c0:	0d 60 01 03 	wh16	r8,0x3
    47c4:	10 40 01 08 	ld32	r8,r8
    47c8:	0d 42 de 1c 	wl16	r16,0x16fc
    47cc:	0d 60 02 03 	wh16	r16,0x3
    47d0:	10 40 02 10 	ld32	r16,r16
    47d4:	0d 45 0d 3c 	wl16	r9,0x287c
    47d8:	0d 60 01 23 	wh16	r9,0x3
    47dc:	10 40 01 29 	ld32	r9,r9
    47e0:	00 00 01 10 	add	r8,r16
    47e4:	20 70 03 e2 	movepc	rret,8
    47e8:	14 30 ee 0a 	br	10 <compare>,#al
    47ec:	00 10 00 41 	add	r2,1
    47f0:	0d 40 b1 00 	wl16	r8,0x580
    47f4:	0d 60 01 03 	wh16	r8,0x3
    47f8:	10 40 01 08 	ld32	r8,r8
    47fc:	0d 42 e2 00 	wl16	r16,0x1700
    4800:	0d 60 02 03 	wh16	r16,0x3
    4804:	10 40 02 10 	ld32	r16,r16
    4808:	0d 45 11 20 	wl16	r9,0x2880
    480c:	0d 60 01 23 	wh16	r9,0x3
    4810:	10 40 01 29 	ld32	r9,r9
    4814:	00 00 01 10 	add	r8,r16
    4818:	20 70 03 e2 	movepc	rret,8
    481c:	14 30 ed fd 	br	10 <compare>,#al
    4820:	00 10 00 41 	add	r2,1
    4824:	0d 40 b1 04 	wl16	r8,0x584
    4828:	0d 60 01 03 	wh16	r8,0x3
    482c:	10 40 01 08 	ld32	r8,r8
    4830:	0d 42 e2 04 	wl16	r16,0x1704
    4834:	0d 60 02 03 	wh16	r16,0x3
    4838:	10 40 02 10 	ld32	r16,r16
    483c:	0d 45 11 24 	wl16	r9,0x2884
    4840:	0d 60 01 23 	wh16	r9,0x3
    4844:	10 40 01 29 	ld32	r9,r9
    4848:	00 00 01 10 	add	r8,r16
    484c:	20 70 03 e2 	movepc	rret,8
    4850:	14 30 ed f0 	br	10 <compare>,#al
    4854:	00 10 00 41 	add	r2,1
    4858:	0d 40 b1 08 	wl16	r8,0x588
    485c:	0d 60 01 03 	wh16	r8,0x3
    4860:	10 40 01 08 	ld32	r8,r8
    4864:	0d 42 e2 08 	wl16	r16,0x1708
    4868:	0d 60 02 03 	wh16	r16,0x3
    486c:	10 40 02 10 	ld32	r16,r16
    4870:	0d 45 11 28 	wl16	r9,0x2888
    4874:	0d 60 01 23 	wh16	r9,0x3
    4878:	10 40 01 29 	ld32	r9,r9
    487c:	00 00 01 10 	add	r8,r16
    4880:	20 70 03 e2 	movepc	rret,8
    4884:	14 30 ed e3 	br	10 <compare>,#al
    4888:	00 10 00 41 	add	r2,1
    488c:	0d 40 b1 0c 	wl16	r8,0x58c
    4890:	0d 60 01 03 	wh16	r8,0x3
    4894:	10 40 01 08 	ld32	r8,r8
    4898:	0d 42 e2 0c 	wl16	r16,0x170c
    489c:	0d 60 02 03 	wh16	r16,0x3
    48a0:	10 40 02 10 	ld32	r16,r16
    48a4:	0d 45 11 2c 	wl16	r9,0x288c
    48a8:	0d 60 01 23 	wh16	r9,0x3
    48ac:	10 40 01 29 	ld32	r9,r9
    48b0:	00 00 01 10 	add	r8,r16
    48b4:	20 70 03 e2 	movepc	rret,8
    48b8:	14 30 ed d6 	br	10 <compare>,#al
    48bc:	00 10 00 41 	add	r2,1
    48c0:	0d 40 b1 10 	wl16	r8,0x590
    48c4:	0d 60 01 03 	wh16	r8,0x3
    48c8:	10 40 01 08 	ld32	r8,r8
    48cc:	0d 42 e2 10 	wl16	r16,0x1710
    48d0:	0d 60 02 03 	wh16	r16,0x3
    48d4:	10 40 02 10 	ld32	r16,r16
    48d8:	0d 45 11 30 	wl16	r9,0x2890
    48dc:	0d 60 01 23 	wh16	r9,0x3
    48e0:	10 40 01 29 	ld32	r9,r9
    48e4:	00 00 01 10 	add	r8,r16
    48e8:	20 70 03 e2 	movepc	rret,8
    48ec:	14 30 ed c9 	br	10 <compare>,#al
    48f0:	00 10 00 41 	add	r2,1
    48f4:	0d 40 b1 14 	wl16	r8,0x594
    48f8:	0d 60 01 03 	wh16	r8,0x3
    48fc:	10 40 01 08 	ld32	r8,r8
    4900:	0d 42 e2 14 	wl16	r16,0x1714
    4904:	0d 60 02 03 	wh16	r16,0x3
    4908:	10 40 02 10 	ld32	r16,r16
    490c:	0d 45 11 34 	wl16	r9,0x2894
    4910:	0d 60 01 23 	wh16	r9,0x3
    4914:	10 40 01 29 	ld32	r9,r9
    4918:	00 00 01 10 	add	r8,r16
    491c:	20 70 03 e2 	movepc	rret,8
    4920:	14 30 ed bc 	br	10 <compare>,#al
    4924:	00 10 00 41 	add	r2,1
    4928:	0d 40 b1 18 	wl16	r8,0x598
    492c:	0d 60 01 03 	wh16	r8,0x3
    4930:	10 40 01 08 	ld32	r8,r8
    4934:	0d 42 e2 18 	wl16	r16,0x1718
    4938:	0d 60 02 03 	wh16	r16,0x3
    493c:	10 40 02 10 	ld32	r16,r16
    4940:	0d 45 11 38 	wl16	r9,0x2898
    4944:	0d 60 01 23 	wh16	r9,0x3
    4948:	10 40 01 29 	ld32	r9,r9
    494c:	00 00 01 10 	add	r8,r16
    4950:	20 70 03 e2 	movepc	rret,8
    4954:	14 30 ed af 	br	10 <compare>,#al
    4958:	00 10 00 41 	add	r2,1
    495c:	0d 40 b1 1c 	wl16	r8,0x59c
    4960:	0d 60 01 03 	wh16	r8,0x3
    4964:	10 40 01 08 	ld32	r8,r8
    4968:	0d 42 e2 1c 	wl16	r16,0x171c
    496c:	0d 60 02 03 	wh16	r16,0x3
    4970:	10 40 02 10 	ld32	r16,r16
    4974:	0d 45 11 3c 	wl16	r9,0x289c
    4978:	0d 60 01 23 	wh16	r9,0x3
    497c:	10 40 01 29 	ld32	r9,r9
    4980:	00 00 01 10 	add	r8,r16
    4984:	20 70 03 e2 	movepc	rret,8
    4988:	14 30 ed a2 	br	10 <compare>,#al
    498c:	00 10 00 41 	add	r2,1
    4990:	0d 40 b5 00 	wl16	r8,0x5a0
    4994:	0d 60 01 03 	wh16	r8,0x3
    4998:	10 40 01 08 	ld32	r8,r8
    499c:	0d 42 e6 00 	wl16	r16,0x1720
    49a0:	0d 60 02 03 	wh16	r16,0x3
    49a4:	10 40 02 10 	ld32	r16,r16
    49a8:	0d 45 15 20 	wl16	r9,0x28a0
    49ac:	0d 60 01 23 	wh16	r9,0x3
    49b0:	10 40 01 29 	ld32	r9,r9
    49b4:	00 00 01 10 	add	r8,r16
    49b8:	20 70 03 e2 	movepc	rret,8
    49bc:	14 30 ed 95 	br	10 <compare>,#al
    49c0:	00 10 00 41 	add	r2,1
    49c4:	0d 40 b5 04 	wl16	r8,0x5a4
    49c8:	0d 60 01 03 	wh16	r8,0x3
    49cc:	10 40 01 08 	ld32	r8,r8
    49d0:	0d 42 e6 04 	wl16	r16,0x1724
    49d4:	0d 60 02 03 	wh16	r16,0x3
    49d8:	10 40 02 10 	ld32	r16,r16
    49dc:	0d 45 15 24 	wl16	r9,0x28a4
    49e0:	0d 60 01 23 	wh16	r9,0x3
    49e4:	10 40 01 29 	ld32	r9,r9
    49e8:	00 00 01 10 	add	r8,r16
    49ec:	20 70 03 e2 	movepc	rret,8
    49f0:	14 30 ed 88 	br	10 <compare>,#al
    49f4:	00 10 00 41 	add	r2,1
    49f8:	0d 40 b5 08 	wl16	r8,0x5a8
    49fc:	0d 60 01 03 	wh16	r8,0x3
    4a00:	10 40 01 08 	ld32	r8,r8
    4a04:	0d 42 e6 08 	wl16	r16,0x1728
    4a08:	0d 60 02 03 	wh16	r16,0x3
    4a0c:	10 40 02 10 	ld32	r16,r16
    4a10:	0d 45 15 28 	wl16	r9,0x28a8
    4a14:	0d 60 01 23 	wh16	r9,0x3
    4a18:	10 40 01 29 	ld32	r9,r9
    4a1c:	00 00 01 10 	add	r8,r16
    4a20:	20 70 03 e2 	movepc	rret,8
    4a24:	14 30 ed 7b 	br	10 <compare>,#al
    4a28:	00 10 00 41 	add	r2,1
    4a2c:	0d 40 b5 0c 	wl16	r8,0x5ac
    4a30:	0d 60 01 03 	wh16	r8,0x3
    4a34:	10 40 01 08 	ld32	r8,r8
    4a38:	0d 42 e6 0c 	wl16	r16,0x172c
    4a3c:	0d 60 02 03 	wh16	r16,0x3
    4a40:	10 40 02 10 	ld32	r16,r16
    4a44:	0d 45 15 2c 	wl16	r9,0x28ac
    4a48:	0d 60 01 23 	wh16	r9,0x3
    4a4c:	10 40 01 29 	ld32	r9,r9
    4a50:	00 00 01 10 	add	r8,r16
    4a54:	20 70 03 e2 	movepc	rret,8
    4a58:	14 30 ed 6e 	br	10 <compare>,#al
    4a5c:	00 10 00 41 	add	r2,1
    4a60:	0d 40 b5 10 	wl16	r8,0x5b0
    4a64:	0d 60 01 03 	wh16	r8,0x3
    4a68:	10 40 01 08 	ld32	r8,r8
    4a6c:	0d 42 e6 10 	wl16	r16,0x1730
    4a70:	0d 60 02 03 	wh16	r16,0x3
    4a74:	10 40 02 10 	ld32	r16,r16
    4a78:	0d 45 15 30 	wl16	r9,0x28b0
    4a7c:	0d 60 01 23 	wh16	r9,0x3
    4a80:	10 40 01 29 	ld32	r9,r9
    4a84:	00 00 01 10 	add	r8,r16
    4a88:	20 70 03 e2 	movepc	rret,8
    4a8c:	14 30 ed 61 	br	10 <compare>,#al
    4a90:	00 10 00 41 	add	r2,1
    4a94:	0d 40 b5 14 	wl16	r8,0x5b4
    4a98:	0d 60 01 03 	wh16	r8,0x3
    4a9c:	10 40 01 08 	ld32	r8,r8
    4aa0:	0d 42 e6 14 	wl16	r16,0x1734
    4aa4:	0d 60 02 03 	wh16	r16,0x3
    4aa8:	10 40 02 10 	ld32	r16,r16
    4aac:	0d 45 15 34 	wl16	r9,0x28b4
    4ab0:	0d 60 01 23 	wh16	r9,0x3
    4ab4:	10 40 01 29 	ld32	r9,r9
    4ab8:	00 00 01 10 	add	r8,r16
    4abc:	20 70 03 e2 	movepc	rret,8
    4ac0:	14 30 ed 54 	br	10 <compare>,#al
    4ac4:	00 10 00 41 	add	r2,1
    4ac8:	0d 40 b5 18 	wl16	r8,0x5b8
    4acc:	0d 60 01 03 	wh16	r8,0x3
    4ad0:	10 40 01 08 	ld32	r8,r8
    4ad4:	0d 42 e6 18 	wl16	r16,0x1738
    4ad8:	0d 60 02 03 	wh16	r16,0x3
    4adc:	10 40 02 10 	ld32	r16,r16
    4ae0:	0d 45 15 38 	wl16	r9,0x28b8
    4ae4:	0d 60 01 23 	wh16	r9,0x3
    4ae8:	10 40 01 29 	ld32	r9,r9
    4aec:	00 00 01 10 	add	r8,r16
    4af0:	20 70 03 e2 	movepc	rret,8
    4af4:	14 30 ed 47 	br	10 <compare>,#al
    4af8:	00 10 00 41 	add	r2,1
    4afc:	0d 40 b5 1c 	wl16	r8,0x5bc
    4b00:	0d 60 01 03 	wh16	r8,0x3
    4b04:	10 40 01 08 	ld32	r8,r8
    4b08:	0d 42 e6 1c 	wl16	r16,0x173c
    4b0c:	0d 60 02 03 	wh16	r16,0x3
    4b10:	10 40 02 10 	ld32	r16,r16
    4b14:	0d 45 15 3c 	wl16	r9,0x28bc
    4b18:	0d 60 01 23 	wh16	r9,0x3
    4b1c:	10 40 01 29 	ld32	r9,r9
    4b20:	00 00 01 10 	add	r8,r16
    4b24:	20 70 03 e2 	movepc	rret,8
    4b28:	14 30 ed 3a 	br	10 <compare>,#al
    4b2c:	00 10 00 41 	add	r2,1
    4b30:	0d 40 b9 00 	wl16	r8,0x5c0
    4b34:	0d 60 01 03 	wh16	r8,0x3
    4b38:	10 40 01 08 	ld32	r8,r8
    4b3c:	0d 42 ea 00 	wl16	r16,0x1740
    4b40:	0d 60 02 03 	wh16	r16,0x3
    4b44:	10 40 02 10 	ld32	r16,r16
    4b48:	0d 45 19 20 	wl16	r9,0x28c0
    4b4c:	0d 60 01 23 	wh16	r9,0x3
    4b50:	10 40 01 29 	ld32	r9,r9
    4b54:	00 00 01 10 	add	r8,r16
    4b58:	20 70 03 e2 	movepc	rret,8
    4b5c:	14 30 ed 2d 	br	10 <compare>,#al
    4b60:	00 10 00 41 	add	r2,1
    4b64:	0d 40 b9 04 	wl16	r8,0x5c4
    4b68:	0d 60 01 03 	wh16	r8,0x3
    4b6c:	10 40 01 08 	ld32	r8,r8
    4b70:	0d 42 ea 04 	wl16	r16,0x1744
    4b74:	0d 60 02 03 	wh16	r16,0x3
    4b78:	10 40 02 10 	ld32	r16,r16
    4b7c:	0d 45 19 24 	wl16	r9,0x28c4
    4b80:	0d 60 01 23 	wh16	r9,0x3
    4b84:	10 40 01 29 	ld32	r9,r9
    4b88:	00 00 01 10 	add	r8,r16
    4b8c:	20 70 03 e2 	movepc	rret,8
    4b90:	14 30 ed 20 	br	10 <compare>,#al
    4b94:	00 10 00 41 	add	r2,1
    4b98:	0d 40 b9 08 	wl16	r8,0x5c8
    4b9c:	0d 60 01 03 	wh16	r8,0x3
    4ba0:	10 40 01 08 	ld32	r8,r8
    4ba4:	0d 42 ea 08 	wl16	r16,0x1748
    4ba8:	0d 60 02 03 	wh16	r16,0x3
    4bac:	10 40 02 10 	ld32	r16,r16
    4bb0:	0d 45 19 28 	wl16	r9,0x28c8
    4bb4:	0d 60 01 23 	wh16	r9,0x3
    4bb8:	10 40 01 29 	ld32	r9,r9
    4bbc:	00 00 01 10 	add	r8,r16
    4bc0:	20 70 03 e2 	movepc	rret,8
    4bc4:	14 30 ed 13 	br	10 <compare>,#al
    4bc8:	00 10 00 41 	add	r2,1
    4bcc:	0d 40 b9 0c 	wl16	r8,0x5cc
    4bd0:	0d 60 01 03 	wh16	r8,0x3
    4bd4:	10 40 01 08 	ld32	r8,r8
    4bd8:	0d 42 ea 0c 	wl16	r16,0x174c
    4bdc:	0d 60 02 03 	wh16	r16,0x3
    4be0:	10 40 02 10 	ld32	r16,r16
    4be4:	0d 45 19 2c 	wl16	r9,0x28cc
    4be8:	0d 60 01 23 	wh16	r9,0x3
    4bec:	10 40 01 29 	ld32	r9,r9
    4bf0:	00 00 01 10 	add	r8,r16
    4bf4:	20 70 03 e2 	movepc	rret,8
    4bf8:	14 30 ed 06 	br	10 <compare>,#al
    4bfc:	00 10 00 41 	add	r2,1
    4c00:	0d 40 b9 10 	wl16	r8,0x5d0
    4c04:	0d 60 01 03 	wh16	r8,0x3
    4c08:	10 40 01 08 	ld32	r8,r8
    4c0c:	0d 42 ea 10 	wl16	r16,0x1750
    4c10:	0d 60 02 03 	wh16	r16,0x3
    4c14:	10 40 02 10 	ld32	r16,r16
    4c18:	0d 45 19 30 	wl16	r9,0x28d0
    4c1c:	0d 60 01 23 	wh16	r9,0x3
    4c20:	10 40 01 29 	ld32	r9,r9
    4c24:	00 00 01 10 	add	r8,r16
    4c28:	20 70 03 e2 	movepc	rret,8
    4c2c:	14 30 ec f9 	br	10 <compare>,#al
    4c30:	00 10 00 41 	add	r2,1
    4c34:	0d 40 b9 14 	wl16	r8,0x5d4
    4c38:	0d 60 01 03 	wh16	r8,0x3
    4c3c:	10 40 01 08 	ld32	r8,r8
    4c40:	0d 42 ea 14 	wl16	r16,0x1754
    4c44:	0d 60 02 03 	wh16	r16,0x3
    4c48:	10 40 02 10 	ld32	r16,r16
    4c4c:	0d 45 19 34 	wl16	r9,0x28d4
    4c50:	0d 60 01 23 	wh16	r9,0x3
    4c54:	10 40 01 29 	ld32	r9,r9
    4c58:	00 00 01 10 	add	r8,r16
    4c5c:	20 70 03 e2 	movepc	rret,8
    4c60:	14 30 ec ec 	br	10 <compare>,#al
    4c64:	00 10 00 41 	add	r2,1
    4c68:	0d 40 b9 18 	wl16	r8,0x5d8
    4c6c:	0d 60 01 03 	wh16	r8,0x3
    4c70:	10 40 01 08 	ld32	r8,r8
    4c74:	0d 42 ea 18 	wl16	r16,0x1758
    4c78:	0d 60 02 03 	wh16	r16,0x3
    4c7c:	10 40 02 10 	ld32	r16,r16
    4c80:	0d 45 19 38 	wl16	r9,0x28d8
    4c84:	0d 60 01 23 	wh16	r9,0x3
    4c88:	10 40 01 29 	ld32	r9,r9
    4c8c:	00 00 01 10 	add	r8,r16
    4c90:	20 70 03 e2 	movepc	rret,8
    4c94:	14 30 ec df 	br	10 <compare>,#al
    4c98:	00 10 00 41 	add	r2,1
    4c9c:	0d 40 b9 1c 	wl16	r8,0x5dc
    4ca0:	0d 60 01 03 	wh16	r8,0x3
    4ca4:	10 40 01 08 	ld32	r8,r8
    4ca8:	0d 42 ea 1c 	wl16	r16,0x175c
    4cac:	0d 60 02 03 	wh16	r16,0x3
    4cb0:	10 40 02 10 	ld32	r16,r16
    4cb4:	0d 45 19 3c 	wl16	r9,0x28dc
    4cb8:	0d 60 01 23 	wh16	r9,0x3
    4cbc:	10 40 01 29 	ld32	r9,r9
    4cc0:	00 00 01 10 	add	r8,r16
    4cc4:	20 70 03 e2 	movepc	rret,8
    4cc8:	14 30 ec d2 	br	10 <compare>,#al
    4ccc:	00 10 00 41 	add	r2,1
    4cd0:	0d 40 bd 00 	wl16	r8,0x5e0
    4cd4:	0d 60 01 03 	wh16	r8,0x3
    4cd8:	10 40 01 08 	ld32	r8,r8
    4cdc:	0d 42 ee 00 	wl16	r16,0x1760
    4ce0:	0d 60 02 03 	wh16	r16,0x3
    4ce4:	10 40 02 10 	ld32	r16,r16
    4ce8:	0d 45 1d 20 	wl16	r9,0x28e0
    4cec:	0d 60 01 23 	wh16	r9,0x3
    4cf0:	10 40 01 29 	ld32	r9,r9
    4cf4:	00 00 01 10 	add	r8,r16
    4cf8:	20 70 03 e2 	movepc	rret,8
    4cfc:	14 30 ec c5 	br	10 <compare>,#al
    4d00:	00 10 00 41 	add	r2,1
    4d04:	0d 40 bd 04 	wl16	r8,0x5e4
    4d08:	0d 60 01 03 	wh16	r8,0x3
    4d0c:	10 40 01 08 	ld32	r8,r8
    4d10:	0d 42 ee 04 	wl16	r16,0x1764
    4d14:	0d 60 02 03 	wh16	r16,0x3
    4d18:	10 40 02 10 	ld32	r16,r16
    4d1c:	0d 45 1d 24 	wl16	r9,0x28e4
    4d20:	0d 60 01 23 	wh16	r9,0x3
    4d24:	10 40 01 29 	ld32	r9,r9
    4d28:	00 00 01 10 	add	r8,r16
    4d2c:	20 70 03 e2 	movepc	rret,8
    4d30:	14 30 ec b8 	br	10 <compare>,#al
    4d34:	00 10 00 41 	add	r2,1
    4d38:	0d 40 bd 08 	wl16	r8,0x5e8
    4d3c:	0d 60 01 03 	wh16	r8,0x3
    4d40:	10 40 01 08 	ld32	r8,r8
    4d44:	0d 42 ee 08 	wl16	r16,0x1768
    4d48:	0d 60 02 03 	wh16	r16,0x3
    4d4c:	10 40 02 10 	ld32	r16,r16
    4d50:	0d 45 1d 28 	wl16	r9,0x28e8
    4d54:	0d 60 01 23 	wh16	r9,0x3
    4d58:	10 40 01 29 	ld32	r9,r9
    4d5c:	00 00 01 10 	add	r8,r16
    4d60:	20 70 03 e2 	movepc	rret,8
    4d64:	14 30 ec ab 	br	10 <compare>,#al
    4d68:	00 10 00 41 	add	r2,1
    4d6c:	0d 40 bd 0c 	wl16	r8,0x5ec
    4d70:	0d 60 01 03 	wh16	r8,0x3
    4d74:	10 40 01 08 	ld32	r8,r8
    4d78:	0d 42 ee 0c 	wl16	r16,0x176c
    4d7c:	0d 60 02 03 	wh16	r16,0x3
    4d80:	10 40 02 10 	ld32	r16,r16
    4d84:	0d 45 1d 2c 	wl16	r9,0x28ec
    4d88:	0d 60 01 23 	wh16	r9,0x3
    4d8c:	10 40 01 29 	ld32	r9,r9
    4d90:	00 00 01 10 	add	r8,r16
    4d94:	20 70 03 e2 	movepc	rret,8
    4d98:	14 30 ec 9e 	br	10 <compare>,#al
    4d9c:	00 10 00 41 	add	r2,1
    4da0:	0d 40 bd 10 	wl16	r8,0x5f0
    4da4:	0d 60 01 03 	wh16	r8,0x3
    4da8:	10 40 01 08 	ld32	r8,r8
    4dac:	0d 42 ee 10 	wl16	r16,0x1770
    4db0:	0d 60 02 03 	wh16	r16,0x3
    4db4:	10 40 02 10 	ld32	r16,r16
    4db8:	0d 45 1d 30 	wl16	r9,0x28f0
    4dbc:	0d 60 01 23 	wh16	r9,0x3
    4dc0:	10 40 01 29 	ld32	r9,r9
    4dc4:	00 00 01 10 	add	r8,r16
    4dc8:	20 70 03 e2 	movepc	rret,8
    4dcc:	14 30 ec 91 	br	10 <compare>,#al
    4dd0:	00 10 00 41 	add	r2,1
    4dd4:	0d 40 bd 14 	wl16	r8,0x5f4
    4dd8:	0d 60 01 03 	wh16	r8,0x3
    4ddc:	10 40 01 08 	ld32	r8,r8
    4de0:	0d 42 ee 14 	wl16	r16,0x1774
    4de4:	0d 60 02 03 	wh16	r16,0x3
    4de8:	10 40 02 10 	ld32	r16,r16
    4dec:	0d 45 1d 34 	wl16	r9,0x28f4
    4df0:	0d 60 01 23 	wh16	r9,0x3
    4df4:	10 40 01 29 	ld32	r9,r9
    4df8:	00 00 01 10 	add	r8,r16
    4dfc:	20 70 03 e2 	movepc	rret,8
    4e00:	14 30 ec 84 	br	10 <compare>,#al
    4e04:	00 10 00 41 	add	r2,1
    4e08:	0d 40 bd 18 	wl16	r8,0x5f8
    4e0c:	0d 60 01 03 	wh16	r8,0x3
    4e10:	10 40 01 08 	ld32	r8,r8
    4e14:	0d 42 ee 18 	wl16	r16,0x1778
    4e18:	0d 60 02 03 	wh16	r16,0x3
    4e1c:	10 40 02 10 	ld32	r16,r16
    4e20:	0d 45 1d 38 	wl16	r9,0x28f8
    4e24:	0d 60 01 23 	wh16	r9,0x3
    4e28:	10 40 01 29 	ld32	r9,r9
    4e2c:	00 00 01 10 	add	r8,r16
    4e30:	20 70 03 e2 	movepc	rret,8
    4e34:	14 30 ec 77 	br	10 <compare>,#al
    4e38:	00 10 00 41 	add	r2,1
    4e3c:	0d 40 bd 1c 	wl16	r8,0x5fc
    4e40:	0d 60 01 03 	wh16	r8,0x3
    4e44:	10 40 01 08 	ld32	r8,r8
    4e48:	0d 42 ee 1c 	wl16	r16,0x177c
    4e4c:	0d 60 02 03 	wh16	r16,0x3
    4e50:	10 40 02 10 	ld32	r16,r16
    4e54:	0d 45 1d 3c 	wl16	r9,0x28fc
    4e58:	0d 60 01 23 	wh16	r9,0x3
    4e5c:	10 40 01 29 	ld32	r9,r9
    4e60:	00 00 01 10 	add	r8,r16
    4e64:	20 70 03 e2 	movepc	rret,8
    4e68:	14 30 ec 6a 	br	10 <compare>,#al
    4e6c:	00 10 00 41 	add	r2,1
    4e70:	0d 40 c1 00 	wl16	r8,0x600
    4e74:	0d 60 01 03 	wh16	r8,0x3
    4e78:	10 40 01 08 	ld32	r8,r8
    4e7c:	0d 42 f2 00 	wl16	r16,0x1780
    4e80:	0d 60 02 03 	wh16	r16,0x3
    4e84:	10 40 02 10 	ld32	r16,r16
    4e88:	0d 45 21 20 	wl16	r9,0x2900
    4e8c:	0d 60 01 23 	wh16	r9,0x3
    4e90:	10 40 01 29 	ld32	r9,r9
    4e94:	00 00 01 10 	add	r8,r16
    4e98:	20 70 03 e2 	movepc	rret,8
    4e9c:	14 30 ec 5d 	br	10 <compare>,#al
    4ea0:	00 10 00 41 	add	r2,1
    4ea4:	0d 40 c1 04 	wl16	r8,0x604
    4ea8:	0d 60 01 03 	wh16	r8,0x3
    4eac:	10 40 01 08 	ld32	r8,r8
    4eb0:	0d 42 f2 04 	wl16	r16,0x1784
    4eb4:	0d 60 02 03 	wh16	r16,0x3
    4eb8:	10 40 02 10 	ld32	r16,r16
    4ebc:	0d 45 21 24 	wl16	r9,0x2904
    4ec0:	0d 60 01 23 	wh16	r9,0x3
    4ec4:	10 40 01 29 	ld32	r9,r9
    4ec8:	00 00 01 10 	add	r8,r16
    4ecc:	20 70 03 e2 	movepc	rret,8
    4ed0:	14 30 ec 50 	br	10 <compare>,#al
    4ed4:	00 10 00 41 	add	r2,1
    4ed8:	0d 40 c1 08 	wl16	r8,0x608
    4edc:	0d 60 01 03 	wh16	r8,0x3
    4ee0:	10 40 01 08 	ld32	r8,r8
    4ee4:	0d 42 f2 08 	wl16	r16,0x1788
    4ee8:	0d 60 02 03 	wh16	r16,0x3
    4eec:	10 40 02 10 	ld32	r16,r16
    4ef0:	0d 45 21 28 	wl16	r9,0x2908
    4ef4:	0d 60 01 23 	wh16	r9,0x3
    4ef8:	10 40 01 29 	ld32	r9,r9
    4efc:	00 00 01 10 	add	r8,r16
    4f00:	20 70 03 e2 	movepc	rret,8
    4f04:	14 30 ec 43 	br	10 <compare>,#al
    4f08:	00 10 00 41 	add	r2,1
    4f0c:	0d 40 c1 0c 	wl16	r8,0x60c
    4f10:	0d 60 01 03 	wh16	r8,0x3
    4f14:	10 40 01 08 	ld32	r8,r8
    4f18:	0d 42 f2 0c 	wl16	r16,0x178c
    4f1c:	0d 60 02 03 	wh16	r16,0x3
    4f20:	10 40 02 10 	ld32	r16,r16
    4f24:	0d 45 21 2c 	wl16	r9,0x290c
    4f28:	0d 60 01 23 	wh16	r9,0x3
    4f2c:	10 40 01 29 	ld32	r9,r9
    4f30:	00 00 01 10 	add	r8,r16
    4f34:	20 70 03 e2 	movepc	rret,8
    4f38:	14 30 ec 36 	br	10 <compare>,#al
    4f3c:	00 10 00 41 	add	r2,1
    4f40:	0d 40 c1 10 	wl16	r8,0x610
    4f44:	0d 60 01 03 	wh16	r8,0x3
    4f48:	10 40 01 08 	ld32	r8,r8
    4f4c:	0d 42 f2 10 	wl16	r16,0x1790
    4f50:	0d 60 02 03 	wh16	r16,0x3
    4f54:	10 40 02 10 	ld32	r16,r16
    4f58:	0d 45 21 30 	wl16	r9,0x2910
    4f5c:	0d 60 01 23 	wh16	r9,0x3
    4f60:	10 40 01 29 	ld32	r9,r9
    4f64:	00 00 01 10 	add	r8,r16
    4f68:	20 70 03 e2 	movepc	rret,8
    4f6c:	14 30 ec 29 	br	10 <compare>,#al
    4f70:	00 10 00 41 	add	r2,1
    4f74:	0d 40 c1 14 	wl16	r8,0x614
    4f78:	0d 60 01 03 	wh16	r8,0x3
    4f7c:	10 40 01 08 	ld32	r8,r8
    4f80:	0d 42 f2 14 	wl16	r16,0x1794
    4f84:	0d 60 02 03 	wh16	r16,0x3
    4f88:	10 40 02 10 	ld32	r16,r16
    4f8c:	0d 45 21 34 	wl16	r9,0x2914
    4f90:	0d 60 01 23 	wh16	r9,0x3
    4f94:	10 40 01 29 	ld32	r9,r9
    4f98:	00 00 01 10 	add	r8,r16
    4f9c:	20 70 03 e2 	movepc	rret,8
    4fa0:	14 30 ec 1c 	br	10 <compare>,#al
    4fa4:	00 10 00 41 	add	r2,1
    4fa8:	0d 40 c1 18 	wl16	r8,0x618
    4fac:	0d 60 01 03 	wh16	r8,0x3
    4fb0:	10 40 01 08 	ld32	r8,r8
    4fb4:	0d 42 f2 18 	wl16	r16,0x1798
    4fb8:	0d 60 02 03 	wh16	r16,0x3
    4fbc:	10 40 02 10 	ld32	r16,r16
    4fc0:	0d 45 21 38 	wl16	r9,0x2918
    4fc4:	0d 60 01 23 	wh16	r9,0x3
    4fc8:	10 40 01 29 	ld32	r9,r9
    4fcc:	00 00 01 10 	add	r8,r16
    4fd0:	20 70 03 e2 	movepc	rret,8
    4fd4:	14 30 ec 0f 	br	10 <compare>,#al
    4fd8:	00 10 00 41 	add	r2,1
    4fdc:	0d 40 c1 1c 	wl16	r8,0x61c
    4fe0:	0d 60 01 03 	wh16	r8,0x3
    4fe4:	10 40 01 08 	ld32	r8,r8
    4fe8:	0d 42 f2 1c 	wl16	r16,0x179c
    4fec:	0d 60 02 03 	wh16	r16,0x3
    4ff0:	10 40 02 10 	ld32	r16,r16
    4ff4:	0d 45 21 3c 	wl16	r9,0x291c
    4ff8:	0d 60 01 23 	wh16	r9,0x3
    4ffc:	10 40 01 29 	ld32	r9,r9
    5000:	00 00 01 10 	add	r8,r16
    5004:	20 70 03 e2 	movepc	rret,8
    5008:	14 30 ec 02 	br	10 <compare>,#al
    500c:	00 10 00 41 	add	r2,1
    5010:	0d 40 c5 00 	wl16	r8,0x620
    5014:	0d 60 01 03 	wh16	r8,0x3
    5018:	10 40 01 08 	ld32	r8,r8
    501c:	0d 42 f6 00 	wl16	r16,0x17a0
    5020:	0d 60 02 03 	wh16	r16,0x3
    5024:	10 40 02 10 	ld32	r16,r16
    5028:	0d 45 25 20 	wl16	r9,0x2920
    502c:	0d 60 01 23 	wh16	r9,0x3
    5030:	10 40 01 29 	ld32	r9,r9
    5034:	00 00 01 10 	add	r8,r16
    5038:	20 70 03 e2 	movepc	rret,8
    503c:	14 30 eb f5 	br	10 <compare>,#al
    5040:	00 10 00 41 	add	r2,1
    5044:	0d 40 c5 04 	wl16	r8,0x624
    5048:	0d 60 01 03 	wh16	r8,0x3
    504c:	10 40 01 08 	ld32	r8,r8
    5050:	0d 42 f6 04 	wl16	r16,0x17a4
    5054:	0d 60 02 03 	wh16	r16,0x3
    5058:	10 40 02 10 	ld32	r16,r16
    505c:	0d 45 25 24 	wl16	r9,0x2924
    5060:	0d 60 01 23 	wh16	r9,0x3
    5064:	10 40 01 29 	ld32	r9,r9
    5068:	00 00 01 10 	add	r8,r16
    506c:	20 70 03 e2 	movepc	rret,8
    5070:	14 30 eb e8 	br	10 <compare>,#al
    5074:	00 10 00 41 	add	r2,1
    5078:	0d 40 c5 08 	wl16	r8,0x628
    507c:	0d 60 01 03 	wh16	r8,0x3
    5080:	10 40 01 08 	ld32	r8,r8
    5084:	0d 42 f6 08 	wl16	r16,0x17a8
    5088:	0d 60 02 03 	wh16	r16,0x3
    508c:	10 40 02 10 	ld32	r16,r16
    5090:	0d 45 25 28 	wl16	r9,0x2928
    5094:	0d 60 01 23 	wh16	r9,0x3
    5098:	10 40 01 29 	ld32	r9,r9
    509c:	00 00 01 10 	add	r8,r16
    50a0:	20 70 03 e2 	movepc	rret,8
    50a4:	14 30 eb db 	br	10 <compare>,#al
    50a8:	00 10 00 41 	add	r2,1
    50ac:	0d 40 c5 0c 	wl16	r8,0x62c
    50b0:	0d 60 01 03 	wh16	r8,0x3
    50b4:	10 40 01 08 	ld32	r8,r8
    50b8:	0d 42 f6 0c 	wl16	r16,0x17ac
    50bc:	0d 60 02 03 	wh16	r16,0x3
    50c0:	10 40 02 10 	ld32	r16,r16
    50c4:	0d 45 25 2c 	wl16	r9,0x292c
    50c8:	0d 60 01 23 	wh16	r9,0x3
    50cc:	10 40 01 29 	ld32	r9,r9
    50d0:	00 00 01 10 	add	r8,r16
    50d4:	20 70 03 e2 	movepc	rret,8
    50d8:	14 30 eb ce 	br	10 <compare>,#al
    50dc:	00 10 00 41 	add	r2,1
    50e0:	0d 40 c5 10 	wl16	r8,0x630
    50e4:	0d 60 01 03 	wh16	r8,0x3
    50e8:	10 40 01 08 	ld32	r8,r8
    50ec:	0d 42 f6 10 	wl16	r16,0x17b0
    50f0:	0d 60 02 03 	wh16	r16,0x3
    50f4:	10 40 02 10 	ld32	r16,r16
    50f8:	0d 45 25 30 	wl16	r9,0x2930
    50fc:	0d 60 01 23 	wh16	r9,0x3
    5100:	10 40 01 29 	ld32	r9,r9
    5104:	00 00 01 10 	add	r8,r16
    5108:	20 70 03 e2 	movepc	rret,8
    510c:	14 30 eb c1 	br	10 <compare>,#al
    5110:	00 10 00 41 	add	r2,1
    5114:	0d 40 c5 14 	wl16	r8,0x634
    5118:	0d 60 01 03 	wh16	r8,0x3
    511c:	10 40 01 08 	ld32	r8,r8
    5120:	0d 42 f6 14 	wl16	r16,0x17b4
    5124:	0d 60 02 03 	wh16	r16,0x3
    5128:	10 40 02 10 	ld32	r16,r16
    512c:	0d 45 25 34 	wl16	r9,0x2934
    5130:	0d 60 01 23 	wh16	r9,0x3
    5134:	10 40 01 29 	ld32	r9,r9
    5138:	00 00 01 10 	add	r8,r16
    513c:	20 70 03 e2 	movepc	rret,8
    5140:	14 30 eb b4 	br	10 <compare>,#al
    5144:	00 10 00 41 	add	r2,1
    5148:	0d 40 c5 18 	wl16	r8,0x638
    514c:	0d 60 01 03 	wh16	r8,0x3
    5150:	10 40 01 08 	ld32	r8,r8
    5154:	0d 42 f6 18 	wl16	r16,0x17b8
    5158:	0d 60 02 03 	wh16	r16,0x3
    515c:	10 40 02 10 	ld32	r16,r16
    5160:	0d 45 25 38 	wl16	r9,0x2938
    5164:	0d 60 01 23 	wh16	r9,0x3
    5168:	10 40 01 29 	ld32	r9,r9
    516c:	00 00 01 10 	add	r8,r16
    5170:	20 70 03 e2 	movepc	rret,8
    5174:	14 30 eb a7 	br	10 <compare>,#al
    5178:	00 10 00 41 	add	r2,1
    517c:	0d 40 c5 1c 	wl16	r8,0x63c
    5180:	0d 60 01 03 	wh16	r8,0x3
    5184:	10 40 01 08 	ld32	r8,r8
    5188:	0d 42 f6 1c 	wl16	r16,0x17bc
    518c:	0d 60 02 03 	wh16	r16,0x3
    5190:	10 40 02 10 	ld32	r16,r16
    5194:	0d 45 25 3c 	wl16	r9,0x293c
    5198:	0d 60 01 23 	wh16	r9,0x3
    519c:	10 40 01 29 	ld32	r9,r9
    51a0:	00 00 01 10 	add	r8,r16
    51a4:	20 70 03 e2 	movepc	rret,8
    51a8:	14 30 eb 9a 	br	10 <compare>,#al
    51ac:	00 10 00 41 	add	r2,1
    51b0:	0d 40 c9 00 	wl16	r8,0x640
    51b4:	0d 60 01 03 	wh16	r8,0x3
    51b8:	10 40 01 08 	ld32	r8,r8
    51bc:	0d 42 fa 00 	wl16	r16,0x17c0
    51c0:	0d 60 02 03 	wh16	r16,0x3
    51c4:	10 40 02 10 	ld32	r16,r16
    51c8:	0d 45 29 20 	wl16	r9,0x2940
    51cc:	0d 60 01 23 	wh16	r9,0x3
    51d0:	10 40 01 29 	ld32	r9,r9
    51d4:	00 00 01 10 	add	r8,r16
    51d8:	20 70 03 e2 	movepc	rret,8
    51dc:	14 30 eb 8d 	br	10 <compare>,#al
    51e0:	00 10 00 41 	add	r2,1
    51e4:	0d 40 c9 04 	wl16	r8,0x644
    51e8:	0d 60 01 03 	wh16	r8,0x3
    51ec:	10 40 01 08 	ld32	r8,r8
    51f0:	0d 42 fa 04 	wl16	r16,0x17c4
    51f4:	0d 60 02 03 	wh16	r16,0x3
    51f8:	10 40 02 10 	ld32	r16,r16
    51fc:	0d 45 29 24 	wl16	r9,0x2944
    5200:	0d 60 01 23 	wh16	r9,0x3
    5204:	10 40 01 29 	ld32	r9,r9
    5208:	00 00 01 10 	add	r8,r16
    520c:	20 70 03 e2 	movepc	rret,8
    5210:	14 30 eb 80 	br	10 <compare>,#al
    5214:	00 10 00 41 	add	r2,1
    5218:	0d 40 c9 08 	wl16	r8,0x648
    521c:	0d 60 01 03 	wh16	r8,0x3
    5220:	10 40 01 08 	ld32	r8,r8
    5224:	0d 42 fa 08 	wl16	r16,0x17c8
    5228:	0d 60 02 03 	wh16	r16,0x3
    522c:	10 40 02 10 	ld32	r16,r16
    5230:	0d 45 29 28 	wl16	r9,0x2948
    5234:	0d 60 01 23 	wh16	r9,0x3
    5238:	10 40 01 29 	ld32	r9,r9
    523c:	00 00 01 10 	add	r8,r16
    5240:	20 70 03 e2 	movepc	rret,8
    5244:	14 30 eb 73 	br	10 <compare>,#al
    5248:	00 10 00 41 	add	r2,1
    524c:	0d 40 c9 0c 	wl16	r8,0x64c
    5250:	0d 60 01 03 	wh16	r8,0x3
    5254:	10 40 01 08 	ld32	r8,r8
    5258:	0d 42 fa 0c 	wl16	r16,0x17cc
    525c:	0d 60 02 03 	wh16	r16,0x3
    5260:	10 40 02 10 	ld32	r16,r16
    5264:	0d 45 29 2c 	wl16	r9,0x294c
    5268:	0d 60 01 23 	wh16	r9,0x3
    526c:	10 40 01 29 	ld32	r9,r9
    5270:	00 00 01 10 	add	r8,r16
    5274:	20 70 03 e2 	movepc	rret,8
    5278:	14 30 eb 66 	br	10 <compare>,#al
    527c:	00 10 00 41 	add	r2,1
    5280:	0d 40 c9 10 	wl16	r8,0x650
    5284:	0d 60 01 03 	wh16	r8,0x3
    5288:	10 40 01 08 	ld32	r8,r8
    528c:	0d 42 fa 10 	wl16	r16,0x17d0
    5290:	0d 60 02 03 	wh16	r16,0x3
    5294:	10 40 02 10 	ld32	r16,r16
    5298:	0d 45 29 30 	wl16	r9,0x2950
    529c:	0d 60 01 23 	wh16	r9,0x3
    52a0:	10 40 01 29 	ld32	r9,r9
    52a4:	00 00 01 10 	add	r8,r16
    52a8:	20 70 03 e2 	movepc	rret,8
    52ac:	14 30 eb 59 	br	10 <compare>,#al
    52b0:	00 10 00 41 	add	r2,1
    52b4:	0d 40 c9 14 	wl16	r8,0x654
    52b8:	0d 60 01 03 	wh16	r8,0x3
    52bc:	10 40 01 08 	ld32	r8,r8
    52c0:	0d 42 fa 14 	wl16	r16,0x17d4
    52c4:	0d 60 02 03 	wh16	r16,0x3
    52c8:	10 40 02 10 	ld32	r16,r16
    52cc:	0d 45 29 34 	wl16	r9,0x2954
    52d0:	0d 60 01 23 	wh16	r9,0x3
    52d4:	10 40 01 29 	ld32	r9,r9
    52d8:	00 00 01 10 	add	r8,r16
    52dc:	20 70 03 e2 	movepc	rret,8
    52e0:	14 30 eb 4c 	br	10 <compare>,#al
    52e4:	00 10 00 41 	add	r2,1
    52e8:	0d 40 c9 18 	wl16	r8,0x658
    52ec:	0d 60 01 03 	wh16	r8,0x3
    52f0:	10 40 01 08 	ld32	r8,r8
    52f4:	0d 42 fa 18 	wl16	r16,0x17d8
    52f8:	0d 60 02 03 	wh16	r16,0x3
    52fc:	10 40 02 10 	ld32	r16,r16
    5300:	0d 45 29 38 	wl16	r9,0x2958
    5304:	0d 60 01 23 	wh16	r9,0x3
    5308:	10 40 01 29 	ld32	r9,r9
    530c:	00 00 01 10 	add	r8,r16
    5310:	20 70 03 e2 	movepc	rret,8
    5314:	14 30 eb 3f 	br	10 <compare>,#al
    5318:	00 10 00 41 	add	r2,1
    531c:	0d 40 c9 1c 	wl16	r8,0x65c
    5320:	0d 60 01 03 	wh16	r8,0x3
    5324:	10 40 01 08 	ld32	r8,r8
    5328:	0d 42 fa 1c 	wl16	r16,0x17dc
    532c:	0d 60 02 03 	wh16	r16,0x3
    5330:	10 40 02 10 	ld32	r16,r16
    5334:	0d 45 29 3c 	wl16	r9,0x295c
    5338:	0d 60 01 23 	wh16	r9,0x3
    533c:	10 40 01 29 	ld32	r9,r9
    5340:	00 00 01 10 	add	r8,r16
    5344:	20 70 03 e2 	movepc	rret,8
    5348:	14 30 eb 32 	br	10 <compare>,#al
    534c:	00 10 00 41 	add	r2,1
    5350:	0d 40 cd 00 	wl16	r8,0x660
    5354:	0d 60 01 03 	wh16	r8,0x3
    5358:	10 40 01 08 	ld32	r8,r8
    535c:	0d 42 fe 00 	wl16	r16,0x17e0
    5360:	0d 60 02 03 	wh16	r16,0x3
    5364:	10 40 02 10 	ld32	r16,r16
    5368:	0d 45 2d 20 	wl16	r9,0x2960
    536c:	0d 60 01 23 	wh16	r9,0x3
    5370:	10 40 01 29 	ld32	r9,r9
    5374:	00 00 01 10 	add	r8,r16
    5378:	20 70 03 e2 	movepc	rret,8
    537c:	14 30 eb 25 	br	10 <compare>,#al
    5380:	00 10 00 41 	add	r2,1
    5384:	0d 40 cd 04 	wl16	r8,0x664
    5388:	0d 60 01 03 	wh16	r8,0x3
    538c:	10 40 01 08 	ld32	r8,r8
    5390:	0d 42 fe 04 	wl16	r16,0x17e4
    5394:	0d 60 02 03 	wh16	r16,0x3
    5398:	10 40 02 10 	ld32	r16,r16
    539c:	0d 45 2d 24 	wl16	r9,0x2964
    53a0:	0d 60 01 23 	wh16	r9,0x3
    53a4:	10 40 01 29 	ld32	r9,r9
    53a8:	00 00 01 10 	add	r8,r16
    53ac:	20 70 03 e2 	movepc	rret,8
    53b0:	14 30 eb 18 	br	10 <compare>,#al
    53b4:	00 10 00 41 	add	r2,1
    53b8:	0d 40 cd 08 	wl16	r8,0x668
    53bc:	0d 60 01 03 	wh16	r8,0x3
    53c0:	10 40 01 08 	ld32	r8,r8
    53c4:	0d 42 fe 08 	wl16	r16,0x17e8
    53c8:	0d 60 02 03 	wh16	r16,0x3
    53cc:	10 40 02 10 	ld32	r16,r16
    53d0:	0d 45 2d 28 	wl16	r9,0x2968
    53d4:	0d 60 01 23 	wh16	r9,0x3
    53d8:	10 40 01 29 	ld32	r9,r9
    53dc:	00 00 01 10 	add	r8,r16
    53e0:	20 70 03 e2 	movepc	rret,8
    53e4:	14 30 eb 0b 	br	10 <compare>,#al
    53e8:	00 10 00 41 	add	r2,1
    53ec:	0d 40 cd 0c 	wl16	r8,0x66c
    53f0:	0d 60 01 03 	wh16	r8,0x3
    53f4:	10 40 01 08 	ld32	r8,r8
    53f8:	0d 42 fe 0c 	wl16	r16,0x17ec
    53fc:	0d 60 02 03 	wh16	r16,0x3
    5400:	10 40 02 10 	ld32	r16,r16
    5404:	0d 45 2d 2c 	wl16	r9,0x296c
    5408:	0d 60 01 23 	wh16	r9,0x3
    540c:	10 40 01 29 	ld32	r9,r9
    5410:	00 00 01 10 	add	r8,r16
    5414:	20 70 03 e2 	movepc	rret,8
    5418:	14 30 ea fe 	br	10 <compare>,#al
    541c:	00 10 00 41 	add	r2,1
    5420:	0d 40 cd 10 	wl16	r8,0x670
    5424:	0d 60 01 03 	wh16	r8,0x3
    5428:	10 40 01 08 	ld32	r8,r8
    542c:	0d 42 fe 10 	wl16	r16,0x17f0
    5430:	0d 60 02 03 	wh16	r16,0x3
    5434:	10 40 02 10 	ld32	r16,r16
    5438:	0d 45 2d 30 	wl16	r9,0x2970
    543c:	0d 60 01 23 	wh16	r9,0x3
    5440:	10 40 01 29 	ld32	r9,r9
    5444:	00 00 01 10 	add	r8,r16
    5448:	20 70 03 e2 	movepc	rret,8
    544c:	14 30 ea f1 	br	10 <compare>,#al
    5450:	00 10 00 41 	add	r2,1
    5454:	0d 40 cd 14 	wl16	r8,0x674
    5458:	0d 60 01 03 	wh16	r8,0x3
    545c:	10 40 01 08 	ld32	r8,r8
    5460:	0d 42 fe 14 	wl16	r16,0x17f4
    5464:	0d 60 02 03 	wh16	r16,0x3
    5468:	10 40 02 10 	ld32	r16,r16
    546c:	0d 45 2d 34 	wl16	r9,0x2974
    5470:	0d 60 01 23 	wh16	r9,0x3
    5474:	10 40 01 29 	ld32	r9,r9
    5478:	00 00 01 10 	add	r8,r16
    547c:	20 70 03 e2 	movepc	rret,8
    5480:	14 30 ea e4 	br	10 <compare>,#al
    5484:	00 10 00 41 	add	r2,1
    5488:	0d 40 cd 18 	wl16	r8,0x678
    548c:	0d 60 01 03 	wh16	r8,0x3
    5490:	10 40 01 08 	ld32	r8,r8
    5494:	0d 42 fe 18 	wl16	r16,0x17f8
    5498:	0d 60 02 03 	wh16	r16,0x3
    549c:	10 40 02 10 	ld32	r16,r16
    54a0:	0d 45 2d 38 	wl16	r9,0x2978
    54a4:	0d 60 01 23 	wh16	r9,0x3
    54a8:	10 40 01 29 	ld32	r9,r9
    54ac:	00 00 01 10 	add	r8,r16
    54b0:	20 70 03 e2 	movepc	rret,8
    54b4:	14 30 ea d7 	br	10 <compare>,#al
    54b8:	00 10 00 41 	add	r2,1
    54bc:	0d 40 cd 1c 	wl16	r8,0x67c
    54c0:	0d 60 01 03 	wh16	r8,0x3
    54c4:	10 40 01 08 	ld32	r8,r8
    54c8:	0d 42 fe 1c 	wl16	r16,0x17fc
    54cc:	0d 60 02 03 	wh16	r16,0x3
    54d0:	10 40 02 10 	ld32	r16,r16
    54d4:	0d 45 2d 3c 	wl16	r9,0x297c
    54d8:	0d 60 01 23 	wh16	r9,0x3
    54dc:	10 40 01 29 	ld32	r9,r9
    54e0:	00 00 01 10 	add	r8,r16
    54e4:	20 70 03 e2 	movepc	rret,8
    54e8:	14 30 ea ca 	br	10 <compare>,#al
    54ec:	00 10 00 41 	add	r2,1
    54f0:	0d 40 d1 00 	wl16	r8,0x680
    54f4:	0d 60 01 03 	wh16	r8,0x3
    54f8:	10 40 01 08 	ld32	r8,r8
    54fc:	0d 43 02 00 	wl16	r16,0x1800
    5500:	0d 60 02 03 	wh16	r16,0x3
    5504:	10 40 02 10 	ld32	r16,r16
    5508:	0d 45 31 20 	wl16	r9,0x2980
    550c:	0d 60 01 23 	wh16	r9,0x3
    5510:	10 40 01 29 	ld32	r9,r9
    5514:	00 00 01 10 	add	r8,r16
    5518:	20 70 03 e2 	movepc	rret,8
    551c:	14 30 ea bd 	br	10 <compare>,#al
    5520:	00 10 00 41 	add	r2,1
    5524:	0d 40 d1 04 	wl16	r8,0x684
    5528:	0d 60 01 03 	wh16	r8,0x3
    552c:	10 40 01 08 	ld32	r8,r8
    5530:	0d 43 02 04 	wl16	r16,0x1804
    5534:	0d 60 02 03 	wh16	r16,0x3
    5538:	10 40 02 10 	ld32	r16,r16
    553c:	0d 45 31 24 	wl16	r9,0x2984
    5540:	0d 60 01 23 	wh16	r9,0x3
    5544:	10 40 01 29 	ld32	r9,r9
    5548:	00 00 01 10 	add	r8,r16
    554c:	20 70 03 e2 	movepc	rret,8
    5550:	14 30 ea b0 	br	10 <compare>,#al
    5554:	00 10 00 41 	add	r2,1
    5558:	0d 40 d1 08 	wl16	r8,0x688
    555c:	0d 60 01 03 	wh16	r8,0x3
    5560:	10 40 01 08 	ld32	r8,r8
    5564:	0d 43 02 08 	wl16	r16,0x1808
    5568:	0d 60 02 03 	wh16	r16,0x3
    556c:	10 40 02 10 	ld32	r16,r16
    5570:	0d 45 31 28 	wl16	r9,0x2988
    5574:	0d 60 01 23 	wh16	r9,0x3
    5578:	10 40 01 29 	ld32	r9,r9
    557c:	00 00 01 10 	add	r8,r16
    5580:	20 70 03 e2 	movepc	rret,8
    5584:	14 30 ea a3 	br	10 <compare>,#al
    5588:	00 10 00 41 	add	r2,1
    558c:	0d 40 d1 0c 	wl16	r8,0x68c
    5590:	0d 60 01 03 	wh16	r8,0x3
    5594:	10 40 01 08 	ld32	r8,r8
    5598:	0d 43 02 0c 	wl16	r16,0x180c
    559c:	0d 60 02 03 	wh16	r16,0x3
    55a0:	10 40 02 10 	ld32	r16,r16
    55a4:	0d 45 31 2c 	wl16	r9,0x298c
    55a8:	0d 60 01 23 	wh16	r9,0x3
    55ac:	10 40 01 29 	ld32	r9,r9
    55b0:	00 00 01 10 	add	r8,r16
    55b4:	20 70 03 e2 	movepc	rret,8
    55b8:	14 30 ea 96 	br	10 <compare>,#al
    55bc:	00 10 00 41 	add	r2,1
    55c0:	0d 40 d1 10 	wl16	r8,0x690
    55c4:	0d 60 01 03 	wh16	r8,0x3
    55c8:	10 40 01 08 	ld32	r8,r8
    55cc:	0d 43 02 10 	wl16	r16,0x1810
    55d0:	0d 60 02 03 	wh16	r16,0x3
    55d4:	10 40 02 10 	ld32	r16,r16
    55d8:	0d 45 31 30 	wl16	r9,0x2990
    55dc:	0d 60 01 23 	wh16	r9,0x3
    55e0:	10 40 01 29 	ld32	r9,r9
    55e4:	00 00 01 10 	add	r8,r16
    55e8:	20 70 03 e2 	movepc	rret,8
    55ec:	14 30 ea 89 	br	10 <compare>,#al
    55f0:	00 10 00 41 	add	r2,1
    55f4:	0d 40 d1 14 	wl16	r8,0x694
    55f8:	0d 60 01 03 	wh16	r8,0x3
    55fc:	10 40 01 08 	ld32	r8,r8
    5600:	0d 43 02 14 	wl16	r16,0x1814
    5604:	0d 60 02 03 	wh16	r16,0x3
    5608:	10 40 02 10 	ld32	r16,r16
    560c:	0d 45 31 34 	wl16	r9,0x2994
    5610:	0d 60 01 23 	wh16	r9,0x3
    5614:	10 40 01 29 	ld32	r9,r9
    5618:	00 00 01 10 	add	r8,r16
    561c:	20 70 03 e2 	movepc	rret,8
    5620:	14 30 ea 7c 	br	10 <compare>,#al
    5624:	00 10 00 41 	add	r2,1
    5628:	0d 40 d1 18 	wl16	r8,0x698
    562c:	0d 60 01 03 	wh16	r8,0x3
    5630:	10 40 01 08 	ld32	r8,r8
    5634:	0d 43 02 18 	wl16	r16,0x1818
    5638:	0d 60 02 03 	wh16	r16,0x3
    563c:	10 40 02 10 	ld32	r16,r16
    5640:	0d 45 31 38 	wl16	r9,0x2998
    5644:	0d 60 01 23 	wh16	r9,0x3
    5648:	10 40 01 29 	ld32	r9,r9
    564c:	00 00 01 10 	add	r8,r16
    5650:	20 70 03 e2 	movepc	rret,8
    5654:	14 30 ea 6f 	br	10 <compare>,#al
    5658:	00 10 00 41 	add	r2,1
    565c:	0d 40 d1 1c 	wl16	r8,0x69c
    5660:	0d 60 01 03 	wh16	r8,0x3
    5664:	10 40 01 08 	ld32	r8,r8
    5668:	0d 43 02 1c 	wl16	r16,0x181c
    566c:	0d 60 02 03 	wh16	r16,0x3
    5670:	10 40 02 10 	ld32	r16,r16
    5674:	0d 45 31 3c 	wl16	r9,0x299c
    5678:	0d 60 01 23 	wh16	r9,0x3
    567c:	10 40 01 29 	ld32	r9,r9
    5680:	00 00 01 10 	add	r8,r16
    5684:	20 70 03 e2 	movepc	rret,8
    5688:	14 30 ea 62 	br	10 <compare>,#al
    568c:	00 10 00 41 	add	r2,1
    5690:	0d 40 d5 00 	wl16	r8,0x6a0
    5694:	0d 60 01 03 	wh16	r8,0x3
    5698:	10 40 01 08 	ld32	r8,r8
    569c:	0d 43 06 00 	wl16	r16,0x1820
    56a0:	0d 60 02 03 	wh16	r16,0x3
    56a4:	10 40 02 10 	ld32	r16,r16
    56a8:	0d 45 35 20 	wl16	r9,0x29a0
    56ac:	0d 60 01 23 	wh16	r9,0x3
    56b0:	10 40 01 29 	ld32	r9,r9
    56b4:	00 00 01 10 	add	r8,r16
    56b8:	20 70 03 e2 	movepc	rret,8
    56bc:	14 30 ea 55 	br	10 <compare>,#al
    56c0:	00 10 00 41 	add	r2,1
    56c4:	0d 40 d5 04 	wl16	r8,0x6a4
    56c8:	0d 60 01 03 	wh16	r8,0x3
    56cc:	10 40 01 08 	ld32	r8,r8
    56d0:	0d 43 06 04 	wl16	r16,0x1824
    56d4:	0d 60 02 03 	wh16	r16,0x3
    56d8:	10 40 02 10 	ld32	r16,r16
    56dc:	0d 45 35 24 	wl16	r9,0x29a4
    56e0:	0d 60 01 23 	wh16	r9,0x3
    56e4:	10 40 01 29 	ld32	r9,r9
    56e8:	00 00 01 10 	add	r8,r16
    56ec:	20 70 03 e2 	movepc	rret,8
    56f0:	14 30 ea 48 	br	10 <compare>,#al
    56f4:	00 10 00 41 	add	r2,1
    56f8:	0d 40 d5 08 	wl16	r8,0x6a8
    56fc:	0d 60 01 03 	wh16	r8,0x3
    5700:	10 40 01 08 	ld32	r8,r8
    5704:	0d 43 06 08 	wl16	r16,0x1828
    5708:	0d 60 02 03 	wh16	r16,0x3
    570c:	10 40 02 10 	ld32	r16,r16
    5710:	0d 45 35 28 	wl16	r9,0x29a8
    5714:	0d 60 01 23 	wh16	r9,0x3
    5718:	10 40 01 29 	ld32	r9,r9
    571c:	00 00 01 10 	add	r8,r16
    5720:	20 70 03 e2 	movepc	rret,8
    5724:	14 30 ea 3b 	br	10 <compare>,#al
    5728:	00 10 00 41 	add	r2,1
    572c:	0d 40 d5 0c 	wl16	r8,0x6ac
    5730:	0d 60 01 03 	wh16	r8,0x3
    5734:	10 40 01 08 	ld32	r8,r8
    5738:	0d 43 06 0c 	wl16	r16,0x182c
    573c:	0d 60 02 03 	wh16	r16,0x3
    5740:	10 40 02 10 	ld32	r16,r16
    5744:	0d 45 35 2c 	wl16	r9,0x29ac
    5748:	0d 60 01 23 	wh16	r9,0x3
    574c:	10 40 01 29 	ld32	r9,r9
    5750:	00 00 01 10 	add	r8,r16
    5754:	20 70 03 e2 	movepc	rret,8
    5758:	14 30 ea 2e 	br	10 <compare>,#al
    575c:	00 10 00 41 	add	r2,1
    5760:	0d 40 d5 10 	wl16	r8,0x6b0
    5764:	0d 60 01 03 	wh16	r8,0x3
    5768:	10 40 01 08 	ld32	r8,r8
    576c:	0d 43 06 10 	wl16	r16,0x1830
    5770:	0d 60 02 03 	wh16	r16,0x3
    5774:	10 40 02 10 	ld32	r16,r16
    5778:	0d 45 35 30 	wl16	r9,0x29b0
    577c:	0d 60 01 23 	wh16	r9,0x3
    5780:	10 40 01 29 	ld32	r9,r9
    5784:	00 00 01 10 	add	r8,r16
    5788:	20 70 03 e2 	movepc	rret,8
    578c:	14 30 ea 21 	br	10 <compare>,#al
    5790:	00 10 00 41 	add	r2,1
    5794:	0d 40 d5 14 	wl16	r8,0x6b4
    5798:	0d 60 01 03 	wh16	r8,0x3
    579c:	10 40 01 08 	ld32	r8,r8
    57a0:	0d 43 06 14 	wl16	r16,0x1834
    57a4:	0d 60 02 03 	wh16	r16,0x3
    57a8:	10 40 02 10 	ld32	r16,r16
    57ac:	0d 45 35 34 	wl16	r9,0x29b4
    57b0:	0d 60 01 23 	wh16	r9,0x3
    57b4:	10 40 01 29 	ld32	r9,r9
    57b8:	00 00 01 10 	add	r8,r16
    57bc:	20 70 03 e2 	movepc	rret,8
    57c0:	14 30 ea 14 	br	10 <compare>,#al
    57c4:	00 10 00 41 	add	r2,1
    57c8:	0d 40 d5 18 	wl16	r8,0x6b8
    57cc:	0d 60 01 03 	wh16	r8,0x3
    57d0:	10 40 01 08 	ld32	r8,r8
    57d4:	0d 43 06 18 	wl16	r16,0x1838
    57d8:	0d 60 02 03 	wh16	r16,0x3
    57dc:	10 40 02 10 	ld32	r16,r16
    57e0:	0d 45 35 38 	wl16	r9,0x29b8
    57e4:	0d 60 01 23 	wh16	r9,0x3
    57e8:	10 40 01 29 	ld32	r9,r9
    57ec:	00 00 01 10 	add	r8,r16
    57f0:	20 70 03 e2 	movepc	rret,8
    57f4:	14 30 ea 07 	br	10 <compare>,#al
    57f8:	00 10 00 41 	add	r2,1
    57fc:	0d 40 d5 1c 	wl16	r8,0x6bc
    5800:	0d 60 01 03 	wh16	r8,0x3
    5804:	10 40 01 08 	ld32	r8,r8
    5808:	0d 43 06 1c 	wl16	r16,0x183c
    580c:	0d 60 02 03 	wh16	r16,0x3
    5810:	10 40 02 10 	ld32	r16,r16
    5814:	0d 45 35 3c 	wl16	r9,0x29bc
    5818:	0d 60 01 23 	wh16	r9,0x3
    581c:	10 40 01 29 	ld32	r9,r9
    5820:	00 00 01 10 	add	r8,r16
    5824:	20 70 03 e2 	movepc	rret,8
    5828:	14 30 e9 fa 	br	10 <compare>,#al
    582c:	00 10 00 41 	add	r2,1
    5830:	0d 40 d9 00 	wl16	r8,0x6c0
    5834:	0d 60 01 03 	wh16	r8,0x3
    5838:	10 40 01 08 	ld32	r8,r8
    583c:	0d 43 0a 00 	wl16	r16,0x1840
    5840:	0d 60 02 03 	wh16	r16,0x3
    5844:	10 40 02 10 	ld32	r16,r16
    5848:	0d 45 39 20 	wl16	r9,0x29c0
    584c:	0d 60 01 23 	wh16	r9,0x3
    5850:	10 40 01 29 	ld32	r9,r9
    5854:	00 00 01 10 	add	r8,r16
    5858:	20 70 03 e2 	movepc	rret,8
    585c:	14 30 e9 ed 	br	10 <compare>,#al
    5860:	00 10 00 41 	add	r2,1
    5864:	0d 40 d9 04 	wl16	r8,0x6c4
    5868:	0d 60 01 03 	wh16	r8,0x3
    586c:	10 40 01 08 	ld32	r8,r8
    5870:	0d 43 0a 04 	wl16	r16,0x1844
    5874:	0d 60 02 03 	wh16	r16,0x3
    5878:	10 40 02 10 	ld32	r16,r16
    587c:	0d 45 39 24 	wl16	r9,0x29c4
    5880:	0d 60 01 23 	wh16	r9,0x3
    5884:	10 40 01 29 	ld32	r9,r9
    5888:	00 00 01 10 	add	r8,r16
    588c:	20 70 03 e2 	movepc	rret,8
    5890:	14 30 e9 e0 	br	10 <compare>,#al
    5894:	00 10 00 41 	add	r2,1
    5898:	0d 40 d9 08 	wl16	r8,0x6c8
    589c:	0d 60 01 03 	wh16	r8,0x3
    58a0:	10 40 01 08 	ld32	r8,r8
    58a4:	0d 43 0a 08 	wl16	r16,0x1848
    58a8:	0d 60 02 03 	wh16	r16,0x3
    58ac:	10 40 02 10 	ld32	r16,r16
    58b0:	0d 45 39 28 	wl16	r9,0x29c8
    58b4:	0d 60 01 23 	wh16	r9,0x3
    58b8:	10 40 01 29 	ld32	r9,r9
    58bc:	00 00 01 10 	add	r8,r16
    58c0:	20 70 03 e2 	movepc	rret,8
    58c4:	14 30 e9 d3 	br	10 <compare>,#al
    58c8:	00 10 00 41 	add	r2,1
    58cc:	0d 40 d9 0c 	wl16	r8,0x6cc
    58d0:	0d 60 01 03 	wh16	r8,0x3
    58d4:	10 40 01 08 	ld32	r8,r8
    58d8:	0d 43 0a 0c 	wl16	r16,0x184c
    58dc:	0d 60 02 03 	wh16	r16,0x3
    58e0:	10 40 02 10 	ld32	r16,r16
    58e4:	0d 45 39 2c 	wl16	r9,0x29cc
    58e8:	0d 60 01 23 	wh16	r9,0x3
    58ec:	10 40 01 29 	ld32	r9,r9
    58f0:	00 00 01 10 	add	r8,r16
    58f4:	20 70 03 e2 	movepc	rret,8
    58f8:	14 30 e9 c6 	br	10 <compare>,#al
    58fc:	00 10 00 41 	add	r2,1
    5900:	0d 40 d9 10 	wl16	r8,0x6d0
    5904:	0d 60 01 03 	wh16	r8,0x3
    5908:	10 40 01 08 	ld32	r8,r8
    590c:	0d 43 0a 10 	wl16	r16,0x1850
    5910:	0d 60 02 03 	wh16	r16,0x3
    5914:	10 40 02 10 	ld32	r16,r16
    5918:	0d 45 39 30 	wl16	r9,0x29d0
    591c:	0d 60 01 23 	wh16	r9,0x3
    5920:	10 40 01 29 	ld32	r9,r9
    5924:	00 00 01 10 	add	r8,r16
    5928:	20 70 03 e2 	movepc	rret,8
    592c:	14 30 e9 b9 	br	10 <compare>,#al
    5930:	00 10 00 41 	add	r2,1
    5934:	0d 40 d9 14 	wl16	r8,0x6d4
    5938:	0d 60 01 03 	wh16	r8,0x3
    593c:	10 40 01 08 	ld32	r8,r8
    5940:	0d 43 0a 14 	wl16	r16,0x1854
    5944:	0d 60 02 03 	wh16	r16,0x3
    5948:	10 40 02 10 	ld32	r16,r16
    594c:	0d 45 39 34 	wl16	r9,0x29d4
    5950:	0d 60 01 23 	wh16	r9,0x3
    5954:	10 40 01 29 	ld32	r9,r9
    5958:	00 00 01 10 	add	r8,r16
    595c:	20 70 03 e2 	movepc	rret,8
    5960:	14 30 e9 ac 	br	10 <compare>,#al
    5964:	00 10 00 41 	add	r2,1
    5968:	0d 40 d9 18 	wl16	r8,0x6d8
    596c:	0d 60 01 03 	wh16	r8,0x3
    5970:	10 40 01 08 	ld32	r8,r8
    5974:	0d 43 0a 18 	wl16	r16,0x1858
    5978:	0d 60 02 03 	wh16	r16,0x3
    597c:	10 40 02 10 	ld32	r16,r16
    5980:	0d 45 39 38 	wl16	r9,0x29d8
    5984:	0d 60 01 23 	wh16	r9,0x3
    5988:	10 40 01 29 	ld32	r9,r9
    598c:	00 00 01 10 	add	r8,r16
    5990:	20 70 03 e2 	movepc	rret,8
    5994:	14 30 e9 9f 	br	10 <compare>,#al
    5998:	00 10 00 41 	add	r2,1
    599c:	0d 40 d9 1c 	wl16	r8,0x6dc
    59a0:	0d 60 01 03 	wh16	r8,0x3
    59a4:	10 40 01 08 	ld32	r8,r8
    59a8:	0d 43 0a 1c 	wl16	r16,0x185c
    59ac:	0d 60 02 03 	wh16	r16,0x3
    59b0:	10 40 02 10 	ld32	r16,r16
    59b4:	0d 45 39 3c 	wl16	r9,0x29dc
    59b8:	0d 60 01 23 	wh16	r9,0x3
    59bc:	10 40 01 29 	ld32	r9,r9
    59c0:	00 00 01 10 	add	r8,r16
    59c4:	20 70 03 e2 	movepc	rret,8
    59c8:	14 30 e9 92 	br	10 <compare>,#al
    59cc:	00 10 00 41 	add	r2,1
    59d0:	0d 40 dd 00 	wl16	r8,0x6e0
    59d4:	0d 60 01 03 	wh16	r8,0x3
    59d8:	10 40 01 08 	ld32	r8,r8
    59dc:	0d 43 0e 00 	wl16	r16,0x1860
    59e0:	0d 60 02 03 	wh16	r16,0x3
    59e4:	10 40 02 10 	ld32	r16,r16
    59e8:	0d 45 3d 20 	wl16	r9,0x29e0
    59ec:	0d 60 01 23 	wh16	r9,0x3
    59f0:	10 40 01 29 	ld32	r9,r9
    59f4:	00 00 01 10 	add	r8,r16
    59f8:	20 70 03 e2 	movepc	rret,8
    59fc:	14 30 e9 85 	br	10 <compare>,#al
    5a00:	00 10 00 41 	add	r2,1
    5a04:	0d 40 dd 04 	wl16	r8,0x6e4
    5a08:	0d 60 01 03 	wh16	r8,0x3
    5a0c:	10 40 01 08 	ld32	r8,r8
    5a10:	0d 43 0e 04 	wl16	r16,0x1864
    5a14:	0d 60 02 03 	wh16	r16,0x3
    5a18:	10 40 02 10 	ld32	r16,r16
    5a1c:	0d 45 3d 24 	wl16	r9,0x29e4
    5a20:	0d 60 01 23 	wh16	r9,0x3
    5a24:	10 40 01 29 	ld32	r9,r9
    5a28:	00 00 01 10 	add	r8,r16
    5a2c:	20 70 03 e2 	movepc	rret,8
    5a30:	14 30 e9 78 	br	10 <compare>,#al
    5a34:	00 10 00 41 	add	r2,1
    5a38:	0d 40 dd 08 	wl16	r8,0x6e8
    5a3c:	0d 60 01 03 	wh16	r8,0x3
    5a40:	10 40 01 08 	ld32	r8,r8
    5a44:	0d 43 0e 08 	wl16	r16,0x1868
    5a48:	0d 60 02 03 	wh16	r16,0x3
    5a4c:	10 40 02 10 	ld32	r16,r16
    5a50:	0d 45 3d 28 	wl16	r9,0x29e8
    5a54:	0d 60 01 23 	wh16	r9,0x3
    5a58:	10 40 01 29 	ld32	r9,r9
    5a5c:	00 00 01 10 	add	r8,r16
    5a60:	20 70 03 e2 	movepc	rret,8
    5a64:	14 30 e9 6b 	br	10 <compare>,#al
    5a68:	00 10 00 41 	add	r2,1
    5a6c:	0d 40 dd 0c 	wl16	r8,0x6ec
    5a70:	0d 60 01 03 	wh16	r8,0x3
    5a74:	10 40 01 08 	ld32	r8,r8
    5a78:	0d 43 0e 0c 	wl16	r16,0x186c
    5a7c:	0d 60 02 03 	wh16	r16,0x3
    5a80:	10 40 02 10 	ld32	r16,r16
    5a84:	0d 45 3d 2c 	wl16	r9,0x29ec
    5a88:	0d 60 01 23 	wh16	r9,0x3
    5a8c:	10 40 01 29 	ld32	r9,r9
    5a90:	00 00 01 10 	add	r8,r16
    5a94:	20 70 03 e2 	movepc	rret,8
    5a98:	14 30 e9 5e 	br	10 <compare>,#al
    5a9c:	00 10 00 41 	add	r2,1
    5aa0:	0d 40 dd 10 	wl16	r8,0x6f0
    5aa4:	0d 60 01 03 	wh16	r8,0x3
    5aa8:	10 40 01 08 	ld32	r8,r8
    5aac:	0d 43 0e 10 	wl16	r16,0x1870
    5ab0:	0d 60 02 03 	wh16	r16,0x3
    5ab4:	10 40 02 10 	ld32	r16,r16
    5ab8:	0d 45 3d 30 	wl16	r9,0x29f0
    5abc:	0d 60 01 23 	wh16	r9,0x3
    5ac0:	10 40 01 29 	ld32	r9,r9
    5ac4:	00 00 01 10 	add	r8,r16
    5ac8:	20 70 03 e2 	movepc	rret,8
    5acc:	14 30 e9 51 	br	10 <compare>,#al
    5ad0:	00 10 00 41 	add	r2,1
    5ad4:	0d 40 dd 14 	wl16	r8,0x6f4
    5ad8:	0d 60 01 03 	wh16	r8,0x3
    5adc:	10 40 01 08 	ld32	r8,r8
    5ae0:	0d 43 0e 14 	wl16	r16,0x1874
    5ae4:	0d 60 02 03 	wh16	r16,0x3
    5ae8:	10 40 02 10 	ld32	r16,r16
    5aec:	0d 45 3d 34 	wl16	r9,0x29f4
    5af0:	0d 60 01 23 	wh16	r9,0x3
    5af4:	10 40 01 29 	ld32	r9,r9
    5af8:	00 00 01 10 	add	r8,r16
    5afc:	20 70 03 e2 	movepc	rret,8
    5b00:	14 30 e9 44 	br	10 <compare>,#al
    5b04:	00 10 00 41 	add	r2,1
    5b08:	0d 40 dd 18 	wl16	r8,0x6f8
    5b0c:	0d 60 01 03 	wh16	r8,0x3
    5b10:	10 40 01 08 	ld32	r8,r8
    5b14:	0d 43 0e 18 	wl16	r16,0x1878
    5b18:	0d 60 02 03 	wh16	r16,0x3
    5b1c:	10 40 02 10 	ld32	r16,r16
    5b20:	0d 45 3d 38 	wl16	r9,0x29f8
    5b24:	0d 60 01 23 	wh16	r9,0x3
    5b28:	10 40 01 29 	ld32	r9,r9
    5b2c:	00 00 01 10 	add	r8,r16
    5b30:	20 70 03 e2 	movepc	rret,8
    5b34:	14 30 e9 37 	br	10 <compare>,#al
    5b38:	00 10 00 41 	add	r2,1
    5b3c:	0d 40 dd 1c 	wl16	r8,0x6fc
    5b40:	0d 60 01 03 	wh16	r8,0x3
    5b44:	10 40 01 08 	ld32	r8,r8
    5b48:	0d 43 0e 1c 	wl16	r16,0x187c
    5b4c:	0d 60 02 03 	wh16	r16,0x3
    5b50:	10 40 02 10 	ld32	r16,r16
    5b54:	0d 45 3d 3c 	wl16	r9,0x29fc
    5b58:	0d 60 01 23 	wh16	r9,0x3
    5b5c:	10 40 01 29 	ld32	r9,r9
    5b60:	00 00 01 10 	add	r8,r16
    5b64:	20 70 03 e2 	movepc	rret,8
    5b68:	14 30 e9 2a 	br	10 <compare>,#al
    5b6c:	00 10 00 41 	add	r2,1
    5b70:	0d 40 e1 00 	wl16	r8,0x700
    5b74:	0d 60 01 03 	wh16	r8,0x3
    5b78:	10 40 01 08 	ld32	r8,r8
    5b7c:	0d 43 12 00 	wl16	r16,0x1880
    5b80:	0d 60 02 03 	wh16	r16,0x3
    5b84:	10 40 02 10 	ld32	r16,r16
    5b88:	0d 45 41 20 	wl16	r9,0x2a00
    5b8c:	0d 60 01 23 	wh16	r9,0x3
    5b90:	10 40 01 29 	ld32	r9,r9
    5b94:	00 00 01 10 	add	r8,r16
    5b98:	20 70 03 e2 	movepc	rret,8
    5b9c:	14 30 e9 1d 	br	10 <compare>,#al
    5ba0:	00 10 00 41 	add	r2,1
    5ba4:	0d 40 e1 04 	wl16	r8,0x704
    5ba8:	0d 60 01 03 	wh16	r8,0x3
    5bac:	10 40 01 08 	ld32	r8,r8
    5bb0:	0d 43 12 04 	wl16	r16,0x1884
    5bb4:	0d 60 02 03 	wh16	r16,0x3
    5bb8:	10 40 02 10 	ld32	r16,r16
    5bbc:	0d 45 41 24 	wl16	r9,0x2a04
    5bc0:	0d 60 01 23 	wh16	r9,0x3
    5bc4:	10 40 01 29 	ld32	r9,r9
    5bc8:	00 00 01 10 	add	r8,r16
    5bcc:	20 70 03 e2 	movepc	rret,8
    5bd0:	14 30 e9 10 	br	10 <compare>,#al
    5bd4:	00 10 00 41 	add	r2,1
    5bd8:	0d 40 e1 08 	wl16	r8,0x708
    5bdc:	0d 60 01 03 	wh16	r8,0x3
    5be0:	10 40 01 08 	ld32	r8,r8
    5be4:	0d 43 12 08 	wl16	r16,0x1888
    5be8:	0d 60 02 03 	wh16	r16,0x3
    5bec:	10 40 02 10 	ld32	r16,r16
    5bf0:	0d 45 41 28 	wl16	r9,0x2a08
    5bf4:	0d 60 01 23 	wh16	r9,0x3
    5bf8:	10 40 01 29 	ld32	r9,r9
    5bfc:	00 00 01 10 	add	r8,r16
    5c00:	20 70 03 e2 	movepc	rret,8
    5c04:	14 30 e9 03 	br	10 <compare>,#al
    5c08:	00 10 00 41 	add	r2,1
    5c0c:	0d 40 e1 0c 	wl16	r8,0x70c
    5c10:	0d 60 01 03 	wh16	r8,0x3
    5c14:	10 40 01 08 	ld32	r8,r8
    5c18:	0d 43 12 0c 	wl16	r16,0x188c
    5c1c:	0d 60 02 03 	wh16	r16,0x3
    5c20:	10 40 02 10 	ld32	r16,r16
    5c24:	0d 45 41 2c 	wl16	r9,0x2a0c
    5c28:	0d 60 01 23 	wh16	r9,0x3
    5c2c:	10 40 01 29 	ld32	r9,r9
    5c30:	00 00 01 10 	add	r8,r16
    5c34:	20 70 03 e2 	movepc	rret,8
    5c38:	14 30 e8 f6 	br	10 <compare>,#al
    5c3c:	00 10 00 41 	add	r2,1
    5c40:	0d 40 e1 10 	wl16	r8,0x710
    5c44:	0d 60 01 03 	wh16	r8,0x3
    5c48:	10 40 01 08 	ld32	r8,r8
    5c4c:	0d 43 12 10 	wl16	r16,0x1890
    5c50:	0d 60 02 03 	wh16	r16,0x3
    5c54:	10 40 02 10 	ld32	r16,r16
    5c58:	0d 45 41 30 	wl16	r9,0x2a10
    5c5c:	0d 60 01 23 	wh16	r9,0x3
    5c60:	10 40 01 29 	ld32	r9,r9
    5c64:	00 00 01 10 	add	r8,r16
    5c68:	20 70 03 e2 	movepc	rret,8
    5c6c:	14 30 e8 e9 	br	10 <compare>,#al
    5c70:	00 10 00 41 	add	r2,1
    5c74:	0d 40 e1 14 	wl16	r8,0x714
    5c78:	0d 60 01 03 	wh16	r8,0x3
    5c7c:	10 40 01 08 	ld32	r8,r8
    5c80:	0d 43 12 14 	wl16	r16,0x1894
    5c84:	0d 60 02 03 	wh16	r16,0x3
    5c88:	10 40 02 10 	ld32	r16,r16
    5c8c:	0d 45 41 34 	wl16	r9,0x2a14
    5c90:	0d 60 01 23 	wh16	r9,0x3
    5c94:	10 40 01 29 	ld32	r9,r9
    5c98:	00 00 01 10 	add	r8,r16
    5c9c:	20 70 03 e2 	movepc	rret,8
    5ca0:	14 30 e8 dc 	br	10 <compare>,#al
    5ca4:	00 10 00 41 	add	r2,1
    5ca8:	0d 40 e1 18 	wl16	r8,0x718
    5cac:	0d 60 01 03 	wh16	r8,0x3
    5cb0:	10 40 01 08 	ld32	r8,r8
    5cb4:	0d 43 12 18 	wl16	r16,0x1898
    5cb8:	0d 60 02 03 	wh16	r16,0x3
    5cbc:	10 40 02 10 	ld32	r16,r16
    5cc0:	0d 45 41 38 	wl16	r9,0x2a18
    5cc4:	0d 60 01 23 	wh16	r9,0x3
    5cc8:	10 40 01 29 	ld32	r9,r9
    5ccc:	00 00 01 10 	add	r8,r16
    5cd0:	20 70 03 e2 	movepc	rret,8
    5cd4:	14 30 e8 cf 	br	10 <compare>,#al
    5cd8:	00 10 00 41 	add	r2,1
    5cdc:	0d 40 e1 1c 	wl16	r8,0x71c
    5ce0:	0d 60 01 03 	wh16	r8,0x3
    5ce4:	10 40 01 08 	ld32	r8,r8
    5ce8:	0d 43 12 1c 	wl16	r16,0x189c
    5cec:	0d 60 02 03 	wh16	r16,0x3
    5cf0:	10 40 02 10 	ld32	r16,r16
    5cf4:	0d 45 41 3c 	wl16	r9,0x2a1c
    5cf8:	0d 60 01 23 	wh16	r9,0x3
    5cfc:	10 40 01 29 	ld32	r9,r9
    5d00:	00 00 01 10 	add	r8,r16
    5d04:	20 70 03 e2 	movepc	rret,8
    5d08:	14 30 e8 c2 	br	10 <compare>,#al
    5d0c:	00 10 00 41 	add	r2,1
    5d10:	0d 40 e5 00 	wl16	r8,0x720
    5d14:	0d 60 01 03 	wh16	r8,0x3
    5d18:	10 40 01 08 	ld32	r8,r8
    5d1c:	0d 43 16 00 	wl16	r16,0x18a0
    5d20:	0d 60 02 03 	wh16	r16,0x3
    5d24:	10 40 02 10 	ld32	r16,r16
    5d28:	0d 45 45 20 	wl16	r9,0x2a20
    5d2c:	0d 60 01 23 	wh16	r9,0x3
    5d30:	10 40 01 29 	ld32	r9,r9
    5d34:	00 00 01 10 	add	r8,r16
    5d38:	20 70 03 e2 	movepc	rret,8
    5d3c:	14 30 e8 b5 	br	10 <compare>,#al
    5d40:	00 10 00 41 	add	r2,1
    5d44:	0d 40 e5 04 	wl16	r8,0x724
    5d48:	0d 60 01 03 	wh16	r8,0x3
    5d4c:	10 40 01 08 	ld32	r8,r8
    5d50:	0d 43 16 04 	wl16	r16,0x18a4
    5d54:	0d 60 02 03 	wh16	r16,0x3
    5d58:	10 40 02 10 	ld32	r16,r16
    5d5c:	0d 45 45 24 	wl16	r9,0x2a24
    5d60:	0d 60 01 23 	wh16	r9,0x3
    5d64:	10 40 01 29 	ld32	r9,r9
    5d68:	00 00 01 10 	add	r8,r16
    5d6c:	20 70 03 e2 	movepc	rret,8
    5d70:	14 30 e8 a8 	br	10 <compare>,#al
    5d74:	00 10 00 41 	add	r2,1
    5d78:	0d 40 e5 08 	wl16	r8,0x728
    5d7c:	0d 60 01 03 	wh16	r8,0x3
    5d80:	10 40 01 08 	ld32	r8,r8
    5d84:	0d 43 16 08 	wl16	r16,0x18a8
    5d88:	0d 60 02 03 	wh16	r16,0x3
    5d8c:	10 40 02 10 	ld32	r16,r16
    5d90:	0d 45 45 28 	wl16	r9,0x2a28
    5d94:	0d 60 01 23 	wh16	r9,0x3
    5d98:	10 40 01 29 	ld32	r9,r9
    5d9c:	00 00 01 10 	add	r8,r16
    5da0:	20 70 03 e2 	movepc	rret,8
    5da4:	14 30 e8 9b 	br	10 <compare>,#al
    5da8:	00 10 00 41 	add	r2,1
    5dac:	0d 40 e5 0c 	wl16	r8,0x72c
    5db0:	0d 60 01 03 	wh16	r8,0x3
    5db4:	10 40 01 08 	ld32	r8,r8
    5db8:	0d 43 16 0c 	wl16	r16,0x18ac
    5dbc:	0d 60 02 03 	wh16	r16,0x3
    5dc0:	10 40 02 10 	ld32	r16,r16
    5dc4:	0d 45 45 2c 	wl16	r9,0x2a2c
    5dc8:	0d 60 01 23 	wh16	r9,0x3
    5dcc:	10 40 01 29 	ld32	r9,r9
    5dd0:	00 00 01 10 	add	r8,r16
    5dd4:	20 70 03 e2 	movepc	rret,8
    5dd8:	14 30 e8 8e 	br	10 <compare>,#al
    5ddc:	00 10 00 41 	add	r2,1
    5de0:	0d 40 e5 10 	wl16	r8,0x730
    5de4:	0d 60 01 03 	wh16	r8,0x3
    5de8:	10 40 01 08 	ld32	r8,r8
    5dec:	0d 43 16 10 	wl16	r16,0x18b0
    5df0:	0d 60 02 03 	wh16	r16,0x3
    5df4:	10 40 02 10 	ld32	r16,r16
    5df8:	0d 45 45 30 	wl16	r9,0x2a30
    5dfc:	0d 60 01 23 	wh16	r9,0x3
    5e00:	10 40 01 29 	ld32	r9,r9
    5e04:	00 00 01 10 	add	r8,r16
    5e08:	20 70 03 e2 	movepc	rret,8
    5e0c:	14 30 e8 81 	br	10 <compare>,#al
    5e10:	00 10 00 41 	add	r2,1
    5e14:	0d 40 e5 14 	wl16	r8,0x734
    5e18:	0d 60 01 03 	wh16	r8,0x3
    5e1c:	10 40 01 08 	ld32	r8,r8
    5e20:	0d 43 16 14 	wl16	r16,0x18b4
    5e24:	0d 60 02 03 	wh16	r16,0x3
    5e28:	10 40 02 10 	ld32	r16,r16
    5e2c:	0d 45 45 34 	wl16	r9,0x2a34
    5e30:	0d 60 01 23 	wh16	r9,0x3
    5e34:	10 40 01 29 	ld32	r9,r9
    5e38:	00 00 01 10 	add	r8,r16
    5e3c:	20 70 03 e2 	movepc	rret,8
    5e40:	14 30 e8 74 	br	10 <compare>,#al
    5e44:	00 10 00 41 	add	r2,1
    5e48:	0d 40 e5 18 	wl16	r8,0x738
    5e4c:	0d 60 01 03 	wh16	r8,0x3
    5e50:	10 40 01 08 	ld32	r8,r8
    5e54:	0d 43 16 18 	wl16	r16,0x18b8
    5e58:	0d 60 02 03 	wh16	r16,0x3
    5e5c:	10 40 02 10 	ld32	r16,r16
    5e60:	0d 45 45 38 	wl16	r9,0x2a38
    5e64:	0d 60 01 23 	wh16	r9,0x3
    5e68:	10 40 01 29 	ld32	r9,r9
    5e6c:	00 00 01 10 	add	r8,r16
    5e70:	20 70 03 e2 	movepc	rret,8
    5e74:	14 30 e8 67 	br	10 <compare>,#al
    5e78:	00 10 00 41 	add	r2,1
    5e7c:	0d 40 e5 1c 	wl16	r8,0x73c
    5e80:	0d 60 01 03 	wh16	r8,0x3
    5e84:	10 40 01 08 	ld32	r8,r8
    5e88:	0d 43 16 1c 	wl16	r16,0x18bc
    5e8c:	0d 60 02 03 	wh16	r16,0x3
    5e90:	10 40 02 10 	ld32	r16,r16
    5e94:	0d 45 45 3c 	wl16	r9,0x2a3c
    5e98:	0d 60 01 23 	wh16	r9,0x3
    5e9c:	10 40 01 29 	ld32	r9,r9
    5ea0:	00 00 01 10 	add	r8,r16
    5ea4:	20 70 03 e2 	movepc	rret,8
    5ea8:	14 30 e8 5a 	br	10 <compare>,#al
    5eac:	00 10 00 41 	add	r2,1
    5eb0:	0d 40 e9 00 	wl16	r8,0x740
    5eb4:	0d 60 01 03 	wh16	r8,0x3
    5eb8:	10 40 01 08 	ld32	r8,r8
    5ebc:	0d 43 1a 00 	wl16	r16,0x18c0
    5ec0:	0d 60 02 03 	wh16	r16,0x3
    5ec4:	10 40 02 10 	ld32	r16,r16
    5ec8:	0d 45 49 20 	wl16	r9,0x2a40
    5ecc:	0d 60 01 23 	wh16	r9,0x3
    5ed0:	10 40 01 29 	ld32	r9,r9
    5ed4:	00 00 01 10 	add	r8,r16
    5ed8:	20 70 03 e2 	movepc	rret,8
    5edc:	14 30 e8 4d 	br	10 <compare>,#al
    5ee0:	00 10 00 41 	add	r2,1
    5ee4:	0d 40 e9 04 	wl16	r8,0x744
    5ee8:	0d 60 01 03 	wh16	r8,0x3
    5eec:	10 40 01 08 	ld32	r8,r8
    5ef0:	0d 43 1a 04 	wl16	r16,0x18c4
    5ef4:	0d 60 02 03 	wh16	r16,0x3
    5ef8:	10 40 02 10 	ld32	r16,r16
    5efc:	0d 45 49 24 	wl16	r9,0x2a44
    5f00:	0d 60 01 23 	wh16	r9,0x3
    5f04:	10 40 01 29 	ld32	r9,r9
    5f08:	00 00 01 10 	add	r8,r16
    5f0c:	20 70 03 e2 	movepc	rret,8
    5f10:	14 30 e8 40 	br	10 <compare>,#al
    5f14:	00 10 00 41 	add	r2,1
    5f18:	0d 40 e9 08 	wl16	r8,0x748
    5f1c:	0d 60 01 03 	wh16	r8,0x3
    5f20:	10 40 01 08 	ld32	r8,r8
    5f24:	0d 43 1a 08 	wl16	r16,0x18c8
    5f28:	0d 60 02 03 	wh16	r16,0x3
    5f2c:	10 40 02 10 	ld32	r16,r16
    5f30:	0d 45 49 28 	wl16	r9,0x2a48
    5f34:	0d 60 01 23 	wh16	r9,0x3
    5f38:	10 40 01 29 	ld32	r9,r9
    5f3c:	00 00 01 10 	add	r8,r16
    5f40:	20 70 03 e2 	movepc	rret,8
    5f44:	14 30 e8 33 	br	10 <compare>,#al
    5f48:	00 10 00 41 	add	r2,1
    5f4c:	0d 40 e9 0c 	wl16	r8,0x74c
    5f50:	0d 60 01 03 	wh16	r8,0x3
    5f54:	10 40 01 08 	ld32	r8,r8
    5f58:	0d 43 1a 0c 	wl16	r16,0x18cc
    5f5c:	0d 60 02 03 	wh16	r16,0x3
    5f60:	10 40 02 10 	ld32	r16,r16
    5f64:	0d 45 49 2c 	wl16	r9,0x2a4c
    5f68:	0d 60 01 23 	wh16	r9,0x3
    5f6c:	10 40 01 29 	ld32	r9,r9
    5f70:	00 00 01 10 	add	r8,r16
    5f74:	20 70 03 e2 	movepc	rret,8
    5f78:	14 30 e8 26 	br	10 <compare>,#al
    5f7c:	00 10 00 41 	add	r2,1
    5f80:	0d 40 e9 10 	wl16	r8,0x750
    5f84:	0d 60 01 03 	wh16	r8,0x3
    5f88:	10 40 01 08 	ld32	r8,r8
    5f8c:	0d 43 1a 10 	wl16	r16,0x18d0
    5f90:	0d 60 02 03 	wh16	r16,0x3
    5f94:	10 40 02 10 	ld32	r16,r16
    5f98:	0d 45 49 30 	wl16	r9,0x2a50
    5f9c:	0d 60 01 23 	wh16	r9,0x3
    5fa0:	10 40 01 29 	ld32	r9,r9
    5fa4:	00 00 01 10 	add	r8,r16
    5fa8:	20 70 03 e2 	movepc	rret,8
    5fac:	14 30 e8 19 	br	10 <compare>,#al
    5fb0:	00 10 00 41 	add	r2,1
    5fb4:	0d 40 e9 14 	wl16	r8,0x754
    5fb8:	0d 60 01 03 	wh16	r8,0x3
    5fbc:	10 40 01 08 	ld32	r8,r8
    5fc0:	0d 43 1a 14 	wl16	r16,0x18d4
    5fc4:	0d 60 02 03 	wh16	r16,0x3
    5fc8:	10 40 02 10 	ld32	r16,r16
    5fcc:	0d 45 49 34 	wl16	r9,0x2a54
    5fd0:	0d 60 01 23 	wh16	r9,0x3
    5fd4:	10 40 01 29 	ld32	r9,r9
    5fd8:	00 00 01 10 	add	r8,r16
    5fdc:	20 70 03 e2 	movepc	rret,8
    5fe0:	14 30 e8 0c 	br	10 <compare>,#al
    5fe4:	00 10 00 41 	add	r2,1
    5fe8:	0d 40 e9 18 	wl16	r8,0x758
    5fec:	0d 60 01 03 	wh16	r8,0x3
    5ff0:	10 40 01 08 	ld32	r8,r8
    5ff4:	0d 43 1a 18 	wl16	r16,0x18d8
    5ff8:	0d 60 02 03 	wh16	r16,0x3
    5ffc:	10 40 02 10 	ld32	r16,r16
    6000:	0d 45 49 38 	wl16	r9,0x2a58
    6004:	0d 60 01 23 	wh16	r9,0x3
    6008:	10 40 01 29 	ld32	r9,r9
    600c:	00 00 01 10 	add	r8,r16
    6010:	20 70 03 e2 	movepc	rret,8
    6014:	14 30 e7 ff 	br	10 <compare>,#al
    6018:	00 10 00 41 	add	r2,1
    601c:	0d 40 e9 1c 	wl16	r8,0x75c
    6020:	0d 60 01 03 	wh16	r8,0x3
    6024:	10 40 01 08 	ld32	r8,r8
    6028:	0d 43 1a 1c 	wl16	r16,0x18dc
    602c:	0d 60 02 03 	wh16	r16,0x3
    6030:	10 40 02 10 	ld32	r16,r16
    6034:	0d 45 49 3c 	wl16	r9,0x2a5c
    6038:	0d 60 01 23 	wh16	r9,0x3
    603c:	10 40 01 29 	ld32	r9,r9
    6040:	00 00 01 10 	add	r8,r16
    6044:	20 70 03 e2 	movepc	rret,8
    6048:	14 30 e7 f2 	br	10 <compare>,#al
    604c:	00 10 00 41 	add	r2,1
    6050:	0d 40 ed 00 	wl16	r8,0x760
    6054:	0d 60 01 03 	wh16	r8,0x3
    6058:	10 40 01 08 	ld32	r8,r8
    605c:	0d 43 1e 00 	wl16	r16,0x18e0
    6060:	0d 60 02 03 	wh16	r16,0x3
    6064:	10 40 02 10 	ld32	r16,r16
    6068:	0d 45 4d 20 	wl16	r9,0x2a60
    606c:	0d 60 01 23 	wh16	r9,0x3
    6070:	10 40 01 29 	ld32	r9,r9
    6074:	00 00 01 10 	add	r8,r16
    6078:	20 70 03 e2 	movepc	rret,8
    607c:	14 30 e7 e5 	br	10 <compare>,#al
    6080:	00 10 00 41 	add	r2,1
    6084:	0d 40 ed 04 	wl16	r8,0x764
    6088:	0d 60 01 03 	wh16	r8,0x3
    608c:	10 40 01 08 	ld32	r8,r8
    6090:	0d 43 1e 04 	wl16	r16,0x18e4
    6094:	0d 60 02 03 	wh16	r16,0x3
    6098:	10 40 02 10 	ld32	r16,r16
    609c:	0d 45 4d 24 	wl16	r9,0x2a64
    60a0:	0d 60 01 23 	wh16	r9,0x3
    60a4:	10 40 01 29 	ld32	r9,r9
    60a8:	00 00 01 10 	add	r8,r16
    60ac:	20 70 03 e2 	movepc	rret,8
    60b0:	14 30 e7 d8 	br	10 <compare>,#al
    60b4:	00 10 00 41 	add	r2,1
    60b8:	0d 40 ed 08 	wl16	r8,0x768
    60bc:	0d 60 01 03 	wh16	r8,0x3
    60c0:	10 40 01 08 	ld32	r8,r8
    60c4:	0d 43 1e 08 	wl16	r16,0x18e8
    60c8:	0d 60 02 03 	wh16	r16,0x3
    60cc:	10 40 02 10 	ld32	r16,r16
    60d0:	0d 45 4d 28 	wl16	r9,0x2a68
    60d4:	0d 60 01 23 	wh16	r9,0x3
    60d8:	10 40 01 29 	ld32	r9,r9
    60dc:	00 00 01 10 	add	r8,r16
    60e0:	20 70 03 e2 	movepc	rret,8
    60e4:	14 30 e7 cb 	br	10 <compare>,#al
    60e8:	00 10 00 41 	add	r2,1
    60ec:	0d 40 ed 0c 	wl16	r8,0x76c
    60f0:	0d 60 01 03 	wh16	r8,0x3
    60f4:	10 40 01 08 	ld32	r8,r8
    60f8:	0d 43 1e 0c 	wl16	r16,0x18ec
    60fc:	0d 60 02 03 	wh16	r16,0x3
    6100:	10 40 02 10 	ld32	r16,r16
    6104:	0d 45 4d 2c 	wl16	r9,0x2a6c
    6108:	0d 60 01 23 	wh16	r9,0x3
    610c:	10 40 01 29 	ld32	r9,r9
    6110:	00 00 01 10 	add	r8,r16
    6114:	20 70 03 e2 	movepc	rret,8
    6118:	14 30 e7 be 	br	10 <compare>,#al
    611c:	00 10 00 41 	add	r2,1
    6120:	0d 40 ed 10 	wl16	r8,0x770
    6124:	0d 60 01 03 	wh16	r8,0x3
    6128:	10 40 01 08 	ld32	r8,r8
    612c:	0d 43 1e 10 	wl16	r16,0x18f0
    6130:	0d 60 02 03 	wh16	r16,0x3
    6134:	10 40 02 10 	ld32	r16,r16
    6138:	0d 45 4d 30 	wl16	r9,0x2a70
    613c:	0d 60 01 23 	wh16	r9,0x3
    6140:	10 40 01 29 	ld32	r9,r9
    6144:	00 00 01 10 	add	r8,r16
    6148:	20 70 03 e2 	movepc	rret,8
    614c:	14 30 e7 b1 	br	10 <compare>,#al
    6150:	00 10 00 41 	add	r2,1
    6154:	0d 40 ed 14 	wl16	r8,0x774
    6158:	0d 60 01 03 	wh16	r8,0x3
    615c:	10 40 01 08 	ld32	r8,r8
    6160:	0d 43 1e 14 	wl16	r16,0x18f4
    6164:	0d 60 02 03 	wh16	r16,0x3
    6168:	10 40 02 10 	ld32	r16,r16
    616c:	0d 45 4d 34 	wl16	r9,0x2a74
    6170:	0d 60 01 23 	wh16	r9,0x3
    6174:	10 40 01 29 	ld32	r9,r9
    6178:	00 00 01 10 	add	r8,r16
    617c:	20 70 03 e2 	movepc	rret,8
    6180:	14 30 e7 a4 	br	10 <compare>,#al
    6184:	00 10 00 41 	add	r2,1
    6188:	0d 40 ed 18 	wl16	r8,0x778
    618c:	0d 60 01 03 	wh16	r8,0x3
    6190:	10 40 01 08 	ld32	r8,r8
    6194:	0d 43 1e 18 	wl16	r16,0x18f8
    6198:	0d 60 02 03 	wh16	r16,0x3
    619c:	10 40 02 10 	ld32	r16,r16
    61a0:	0d 45 4d 38 	wl16	r9,0x2a78
    61a4:	0d 60 01 23 	wh16	r9,0x3
    61a8:	10 40 01 29 	ld32	r9,r9
    61ac:	00 00 01 10 	add	r8,r16
    61b0:	20 70 03 e2 	movepc	rret,8
    61b4:	14 30 e7 97 	br	10 <compare>,#al
    61b8:	00 10 00 41 	add	r2,1
    61bc:	0d 40 ed 1c 	wl16	r8,0x77c
    61c0:	0d 60 01 03 	wh16	r8,0x3
    61c4:	10 40 01 08 	ld32	r8,r8
    61c8:	0d 43 1e 1c 	wl16	r16,0x18fc
    61cc:	0d 60 02 03 	wh16	r16,0x3
    61d0:	10 40 02 10 	ld32	r16,r16
    61d4:	0d 45 4d 3c 	wl16	r9,0x2a7c
    61d8:	0d 60 01 23 	wh16	r9,0x3
    61dc:	10 40 01 29 	ld32	r9,r9
    61e0:	00 00 01 10 	add	r8,r16
    61e4:	20 70 03 e2 	movepc	rret,8
    61e8:	14 30 e7 8a 	br	10 <compare>,#al
    61ec:	00 10 00 41 	add	r2,1
    61f0:	0d 40 f1 00 	wl16	r8,0x780
    61f4:	0d 60 01 03 	wh16	r8,0x3
    61f8:	10 40 01 08 	ld32	r8,r8
    61fc:	0d 43 22 00 	wl16	r16,0x1900
    6200:	0d 60 02 03 	wh16	r16,0x3
    6204:	10 40 02 10 	ld32	r16,r16
    6208:	0d 45 51 20 	wl16	r9,0x2a80
    620c:	0d 60 01 23 	wh16	r9,0x3
    6210:	10 40 01 29 	ld32	r9,r9
    6214:	00 00 01 10 	add	r8,r16
    6218:	20 70 03 e2 	movepc	rret,8
    621c:	14 30 e7 7d 	br	10 <compare>,#al
    6220:	00 10 00 41 	add	r2,1
    6224:	0d 40 f1 04 	wl16	r8,0x784
    6228:	0d 60 01 03 	wh16	r8,0x3
    622c:	10 40 01 08 	ld32	r8,r8
    6230:	0d 43 22 04 	wl16	r16,0x1904
    6234:	0d 60 02 03 	wh16	r16,0x3
    6238:	10 40 02 10 	ld32	r16,r16
    623c:	0d 45 51 24 	wl16	r9,0x2a84
    6240:	0d 60 01 23 	wh16	r9,0x3
    6244:	10 40 01 29 	ld32	r9,r9
    6248:	00 00 01 10 	add	r8,r16
    624c:	20 70 03 e2 	movepc	rret,8
    6250:	14 30 e7 70 	br	10 <compare>,#al
    6254:	00 10 00 41 	add	r2,1
    6258:	0d 40 f1 08 	wl16	r8,0x788
    625c:	0d 60 01 03 	wh16	r8,0x3
    6260:	10 40 01 08 	ld32	r8,r8
    6264:	0d 43 22 08 	wl16	r16,0x1908
    6268:	0d 60 02 03 	wh16	r16,0x3
    626c:	10 40 02 10 	ld32	r16,r16
    6270:	0d 45 51 28 	wl16	r9,0x2a88
    6274:	0d 60 01 23 	wh16	r9,0x3
    6278:	10 40 01 29 	ld32	r9,r9
    627c:	00 00 01 10 	add	r8,r16
    6280:	20 70 03 e2 	movepc	rret,8
    6284:	14 30 e7 63 	br	10 <compare>,#al
    6288:	00 10 00 41 	add	r2,1
    628c:	0d 40 f1 0c 	wl16	r8,0x78c
    6290:	0d 60 01 03 	wh16	r8,0x3
    6294:	10 40 01 08 	ld32	r8,r8
    6298:	0d 43 22 0c 	wl16	r16,0x190c
    629c:	0d 60 02 03 	wh16	r16,0x3
    62a0:	10 40 02 10 	ld32	r16,r16
    62a4:	0d 45 51 2c 	wl16	r9,0x2a8c
    62a8:	0d 60 01 23 	wh16	r9,0x3
    62ac:	10 40 01 29 	ld32	r9,r9
    62b0:	00 00 01 10 	add	r8,r16
    62b4:	20 70 03 e2 	movepc	rret,8
    62b8:	14 30 e7 56 	br	10 <compare>,#al
    62bc:	00 10 00 41 	add	r2,1
    62c0:	0d 40 f1 10 	wl16	r8,0x790
    62c4:	0d 60 01 03 	wh16	r8,0x3
    62c8:	10 40 01 08 	ld32	r8,r8
    62cc:	0d 43 22 10 	wl16	r16,0x1910
    62d0:	0d 60 02 03 	wh16	r16,0x3
    62d4:	10 40 02 10 	ld32	r16,r16
    62d8:	0d 45 51 30 	wl16	r9,0x2a90
    62dc:	0d 60 01 23 	wh16	r9,0x3
    62e0:	10 40 01 29 	ld32	r9,r9
    62e4:	00 00 01 10 	add	r8,r16
    62e8:	20 70 03 e2 	movepc	rret,8
    62ec:	14 30 e7 49 	br	10 <compare>,#al
    62f0:	00 10 00 41 	add	r2,1
    62f4:	0d 40 f1 14 	wl16	r8,0x794
    62f8:	0d 60 01 03 	wh16	r8,0x3
    62fc:	10 40 01 08 	ld32	r8,r8
    6300:	0d 43 22 14 	wl16	r16,0x1914
    6304:	0d 60 02 03 	wh16	r16,0x3
    6308:	10 40 02 10 	ld32	r16,r16
    630c:	0d 45 51 34 	wl16	r9,0x2a94
    6310:	0d 60 01 23 	wh16	r9,0x3
    6314:	10 40 01 29 	ld32	r9,r9
    6318:	00 00 01 10 	add	r8,r16
    631c:	20 70 03 e2 	movepc	rret,8
    6320:	14 30 e7 3c 	br	10 <compare>,#al
    6324:	00 10 00 41 	add	r2,1
    6328:	0d 40 f1 18 	wl16	r8,0x798
    632c:	0d 60 01 03 	wh16	r8,0x3
    6330:	10 40 01 08 	ld32	r8,r8
    6334:	0d 43 22 18 	wl16	r16,0x1918
    6338:	0d 60 02 03 	wh16	r16,0x3
    633c:	10 40 02 10 	ld32	r16,r16
    6340:	0d 45 51 38 	wl16	r9,0x2a98
    6344:	0d 60 01 23 	wh16	r9,0x3
    6348:	10 40 01 29 	ld32	r9,r9
    634c:	00 00 01 10 	add	r8,r16
    6350:	20 70 03 e2 	movepc	rret,8
    6354:	14 30 e7 2f 	br	10 <compare>,#al
    6358:	00 10 00 41 	add	r2,1
    635c:	0d 40 f1 1c 	wl16	r8,0x79c
    6360:	0d 60 01 03 	wh16	r8,0x3
    6364:	10 40 01 08 	ld32	r8,r8
    6368:	0d 43 22 1c 	wl16	r16,0x191c
    636c:	0d 60 02 03 	wh16	r16,0x3
    6370:	10 40 02 10 	ld32	r16,r16
    6374:	0d 45 51 3c 	wl16	r9,0x2a9c
    6378:	0d 60 01 23 	wh16	r9,0x3
    637c:	10 40 01 29 	ld32	r9,r9
    6380:	00 00 01 10 	add	r8,r16
    6384:	20 70 03 e2 	movepc	rret,8
    6388:	14 30 e7 22 	br	10 <compare>,#al
    638c:	00 10 00 41 	add	r2,1
    6390:	0d 40 f5 00 	wl16	r8,0x7a0
    6394:	0d 60 01 03 	wh16	r8,0x3
    6398:	10 40 01 08 	ld32	r8,r8
    639c:	0d 43 26 00 	wl16	r16,0x1920
    63a0:	0d 60 02 03 	wh16	r16,0x3
    63a4:	10 40 02 10 	ld32	r16,r16
    63a8:	0d 45 55 20 	wl16	r9,0x2aa0
    63ac:	0d 60 01 23 	wh16	r9,0x3
    63b0:	10 40 01 29 	ld32	r9,r9
    63b4:	00 00 01 10 	add	r8,r16
    63b8:	20 70 03 e2 	movepc	rret,8
    63bc:	14 30 e7 15 	br	10 <compare>,#al
    63c0:	00 10 00 41 	add	r2,1
    63c4:	0d 40 f5 04 	wl16	r8,0x7a4
    63c8:	0d 60 01 03 	wh16	r8,0x3
    63cc:	10 40 01 08 	ld32	r8,r8
    63d0:	0d 43 26 04 	wl16	r16,0x1924
    63d4:	0d 60 02 03 	wh16	r16,0x3
    63d8:	10 40 02 10 	ld32	r16,r16
    63dc:	0d 45 55 24 	wl16	r9,0x2aa4
    63e0:	0d 60 01 23 	wh16	r9,0x3
    63e4:	10 40 01 29 	ld32	r9,r9
    63e8:	00 00 01 10 	add	r8,r16
    63ec:	20 70 03 e2 	movepc	rret,8
    63f0:	14 30 e7 08 	br	10 <compare>,#al
    63f4:	00 10 00 41 	add	r2,1
    63f8:	0d 40 f5 08 	wl16	r8,0x7a8
    63fc:	0d 60 01 03 	wh16	r8,0x3
    6400:	10 40 01 08 	ld32	r8,r8
    6404:	0d 43 26 08 	wl16	r16,0x1928
    6408:	0d 60 02 03 	wh16	r16,0x3
    640c:	10 40 02 10 	ld32	r16,r16
    6410:	0d 45 55 28 	wl16	r9,0x2aa8
    6414:	0d 60 01 23 	wh16	r9,0x3
    6418:	10 40 01 29 	ld32	r9,r9
    641c:	00 00 01 10 	add	r8,r16
    6420:	20 70 03 e2 	movepc	rret,8
    6424:	14 30 e6 fb 	br	10 <compare>,#al
    6428:	00 10 00 41 	add	r2,1
    642c:	0d 40 f5 0c 	wl16	r8,0x7ac
    6430:	0d 60 01 03 	wh16	r8,0x3
    6434:	10 40 01 08 	ld32	r8,r8
    6438:	0d 43 26 0c 	wl16	r16,0x192c
    643c:	0d 60 02 03 	wh16	r16,0x3
    6440:	10 40 02 10 	ld32	r16,r16
    6444:	0d 45 55 2c 	wl16	r9,0x2aac
    6448:	0d 60 01 23 	wh16	r9,0x3
    644c:	10 40 01 29 	ld32	r9,r9
    6450:	00 00 01 10 	add	r8,r16
    6454:	20 70 03 e2 	movepc	rret,8
    6458:	14 30 e6 ee 	br	10 <compare>,#al
    645c:	00 10 00 41 	add	r2,1
    6460:	0d 40 f5 10 	wl16	r8,0x7b0
    6464:	0d 60 01 03 	wh16	r8,0x3
    6468:	10 40 01 08 	ld32	r8,r8
    646c:	0d 43 26 10 	wl16	r16,0x1930
    6470:	0d 60 02 03 	wh16	r16,0x3
    6474:	10 40 02 10 	ld32	r16,r16
    6478:	0d 45 55 30 	wl16	r9,0x2ab0
    647c:	0d 60 01 23 	wh16	r9,0x3
    6480:	10 40 01 29 	ld32	r9,r9
    6484:	00 00 01 10 	add	r8,r16
    6488:	20 70 03 e2 	movepc	rret,8
    648c:	14 30 e6 e1 	br	10 <compare>,#al
    6490:	00 10 00 41 	add	r2,1
    6494:	0d 40 f5 14 	wl16	r8,0x7b4
    6498:	0d 60 01 03 	wh16	r8,0x3
    649c:	10 40 01 08 	ld32	r8,r8
    64a0:	0d 43 26 14 	wl16	r16,0x1934
    64a4:	0d 60 02 03 	wh16	r16,0x3
    64a8:	10 40 02 10 	ld32	r16,r16
    64ac:	0d 45 55 34 	wl16	r9,0x2ab4
    64b0:	0d 60 01 23 	wh16	r9,0x3
    64b4:	10 40 01 29 	ld32	r9,r9
    64b8:	00 00 01 10 	add	r8,r16
    64bc:	20 70 03 e2 	movepc	rret,8
    64c0:	14 30 e6 d4 	br	10 <compare>,#al
    64c4:	00 10 00 41 	add	r2,1
    64c8:	0d 40 f5 18 	wl16	r8,0x7b8
    64cc:	0d 60 01 03 	wh16	r8,0x3
    64d0:	10 40 01 08 	ld32	r8,r8
    64d4:	0d 43 26 18 	wl16	r16,0x1938
    64d8:	0d 60 02 03 	wh16	r16,0x3
    64dc:	10 40 02 10 	ld32	r16,r16
    64e0:	0d 45 55 38 	wl16	r9,0x2ab8
    64e4:	0d 60 01 23 	wh16	r9,0x3
    64e8:	10 40 01 29 	ld32	r9,r9
    64ec:	00 00 01 10 	add	r8,r16
    64f0:	20 70 03 e2 	movepc	rret,8
    64f4:	14 30 e6 c7 	br	10 <compare>,#al
    64f8:	00 10 00 41 	add	r2,1
    64fc:	0d 40 f5 1c 	wl16	r8,0x7bc
    6500:	0d 60 01 03 	wh16	r8,0x3
    6504:	10 40 01 08 	ld32	r8,r8
    6508:	0d 43 26 1c 	wl16	r16,0x193c
    650c:	0d 60 02 03 	wh16	r16,0x3
    6510:	10 40 02 10 	ld32	r16,r16
    6514:	0d 45 55 3c 	wl16	r9,0x2abc
    6518:	0d 60 01 23 	wh16	r9,0x3
    651c:	10 40 01 29 	ld32	r9,r9
    6520:	00 00 01 10 	add	r8,r16
    6524:	20 70 03 e2 	movepc	rret,8
    6528:	14 30 e6 ba 	br	10 <compare>,#al
    652c:	00 10 00 41 	add	r2,1
    6530:	0d 40 f9 00 	wl16	r8,0x7c0
    6534:	0d 60 01 03 	wh16	r8,0x3
    6538:	10 40 01 08 	ld32	r8,r8
    653c:	0d 43 2a 00 	wl16	r16,0x1940
    6540:	0d 60 02 03 	wh16	r16,0x3
    6544:	10 40 02 10 	ld32	r16,r16
    6548:	0d 45 59 20 	wl16	r9,0x2ac0
    654c:	0d 60 01 23 	wh16	r9,0x3
    6550:	10 40 01 29 	ld32	r9,r9
    6554:	00 00 01 10 	add	r8,r16
    6558:	20 70 03 e2 	movepc	rret,8
    655c:	14 30 e6 ad 	br	10 <compare>,#al
    6560:	00 10 00 41 	add	r2,1
    6564:	0d 40 f9 04 	wl16	r8,0x7c4
    6568:	0d 60 01 03 	wh16	r8,0x3
    656c:	10 40 01 08 	ld32	r8,r8
    6570:	0d 43 2a 04 	wl16	r16,0x1944
    6574:	0d 60 02 03 	wh16	r16,0x3
    6578:	10 40 02 10 	ld32	r16,r16
    657c:	0d 45 59 24 	wl16	r9,0x2ac4
    6580:	0d 60 01 23 	wh16	r9,0x3
    6584:	10 40 01 29 	ld32	r9,r9
    6588:	00 00 01 10 	add	r8,r16
    658c:	20 70 03 e2 	movepc	rret,8
    6590:	14 30 e6 a0 	br	10 <compare>,#al
    6594:	00 10 00 41 	add	r2,1
    6598:	0d 40 f9 08 	wl16	r8,0x7c8
    659c:	0d 60 01 03 	wh16	r8,0x3
    65a0:	10 40 01 08 	ld32	r8,r8
    65a4:	0d 43 2a 08 	wl16	r16,0x1948
    65a8:	0d 60 02 03 	wh16	r16,0x3
    65ac:	10 40 02 10 	ld32	r16,r16
    65b0:	0d 45 59 28 	wl16	r9,0x2ac8
    65b4:	0d 60 01 23 	wh16	r9,0x3
    65b8:	10 40 01 29 	ld32	r9,r9
    65bc:	00 00 01 10 	add	r8,r16
    65c0:	20 70 03 e2 	movepc	rret,8
    65c4:	14 30 e6 93 	br	10 <compare>,#al
    65c8:	00 10 00 41 	add	r2,1
    65cc:	0d 40 f9 0c 	wl16	r8,0x7cc
    65d0:	0d 60 01 03 	wh16	r8,0x3
    65d4:	10 40 01 08 	ld32	r8,r8
    65d8:	0d 43 2a 0c 	wl16	r16,0x194c
    65dc:	0d 60 02 03 	wh16	r16,0x3
    65e0:	10 40 02 10 	ld32	r16,r16
    65e4:	0d 45 59 2c 	wl16	r9,0x2acc
    65e8:	0d 60 01 23 	wh16	r9,0x3
    65ec:	10 40 01 29 	ld32	r9,r9
    65f0:	00 00 01 10 	add	r8,r16
    65f4:	20 70 03 e2 	movepc	rret,8
    65f8:	14 30 e6 86 	br	10 <compare>,#al
    65fc:	00 10 00 41 	add	r2,1
    6600:	0d 40 f9 10 	wl16	r8,0x7d0
    6604:	0d 60 01 03 	wh16	r8,0x3
    6608:	10 40 01 08 	ld32	r8,r8
    660c:	0d 43 2a 10 	wl16	r16,0x1950
    6610:	0d 60 02 03 	wh16	r16,0x3
    6614:	10 40 02 10 	ld32	r16,r16
    6618:	0d 45 59 30 	wl16	r9,0x2ad0
    661c:	0d 60 01 23 	wh16	r9,0x3
    6620:	10 40 01 29 	ld32	r9,r9
    6624:	00 00 01 10 	add	r8,r16
    6628:	20 70 03 e2 	movepc	rret,8
    662c:	14 30 e6 79 	br	10 <compare>,#al
    6630:	00 10 00 41 	add	r2,1
    6634:	0d 40 f9 14 	wl16	r8,0x7d4
    6638:	0d 60 01 03 	wh16	r8,0x3
    663c:	10 40 01 08 	ld32	r8,r8
    6640:	0d 43 2a 14 	wl16	r16,0x1954
    6644:	0d 60 02 03 	wh16	r16,0x3
    6648:	10 40 02 10 	ld32	r16,r16
    664c:	0d 45 59 34 	wl16	r9,0x2ad4
    6650:	0d 60 01 23 	wh16	r9,0x3
    6654:	10 40 01 29 	ld32	r9,r9
    6658:	00 00 01 10 	add	r8,r16
    665c:	20 70 03 e2 	movepc	rret,8
    6660:	14 30 e6 6c 	br	10 <compare>,#al
    6664:	00 10 00 41 	add	r2,1
    6668:	0d 40 f9 18 	wl16	r8,0x7d8
    666c:	0d 60 01 03 	wh16	r8,0x3
    6670:	10 40 01 08 	ld32	r8,r8
    6674:	0d 43 2a 18 	wl16	r16,0x1958
    6678:	0d 60 02 03 	wh16	r16,0x3
    667c:	10 40 02 10 	ld32	r16,r16
    6680:	0d 45 59 38 	wl16	r9,0x2ad8
    6684:	0d 60 01 23 	wh16	r9,0x3
    6688:	10 40 01 29 	ld32	r9,r9
    668c:	00 00 01 10 	add	r8,r16
    6690:	20 70 03 e2 	movepc	rret,8
    6694:	14 30 e6 5f 	br	10 <compare>,#al
    6698:	00 10 00 41 	add	r2,1
    669c:	0d 40 f9 1c 	wl16	r8,0x7dc
    66a0:	0d 60 01 03 	wh16	r8,0x3
    66a4:	10 40 01 08 	ld32	r8,r8
    66a8:	0d 43 2a 1c 	wl16	r16,0x195c
    66ac:	0d 60 02 03 	wh16	r16,0x3
    66b0:	10 40 02 10 	ld32	r16,r16
    66b4:	0d 45 59 3c 	wl16	r9,0x2adc
    66b8:	0d 60 01 23 	wh16	r9,0x3
    66bc:	10 40 01 29 	ld32	r9,r9
    66c0:	00 00 01 10 	add	r8,r16
    66c4:	20 70 03 e2 	movepc	rret,8
    66c8:	14 30 e6 52 	br	10 <compare>,#al
    66cc:	00 10 00 41 	add	r2,1
    66d0:	0d 40 fd 00 	wl16	r8,0x7e0
    66d4:	0d 60 01 03 	wh16	r8,0x3
    66d8:	10 40 01 08 	ld32	r8,r8
    66dc:	0d 43 2e 00 	wl16	r16,0x1960
    66e0:	0d 60 02 03 	wh16	r16,0x3
    66e4:	10 40 02 10 	ld32	r16,r16
    66e8:	0d 45 5d 20 	wl16	r9,0x2ae0
    66ec:	0d 60 01 23 	wh16	r9,0x3
    66f0:	10 40 01 29 	ld32	r9,r9
    66f4:	00 00 01 10 	add	r8,r16
    66f8:	20 70 03 e2 	movepc	rret,8
    66fc:	14 30 e6 45 	br	10 <compare>,#al
    6700:	00 10 00 41 	add	r2,1
    6704:	0d 40 fd 04 	wl16	r8,0x7e4
    6708:	0d 60 01 03 	wh16	r8,0x3
    670c:	10 40 01 08 	ld32	r8,r8
    6710:	0d 43 2e 04 	wl16	r16,0x1964
    6714:	0d 60 02 03 	wh16	r16,0x3
    6718:	10 40 02 10 	ld32	r16,r16
    671c:	0d 45 5d 24 	wl16	r9,0x2ae4
    6720:	0d 60 01 23 	wh16	r9,0x3
    6724:	10 40 01 29 	ld32	r9,r9
    6728:	00 00 01 10 	add	r8,r16
    672c:	20 70 03 e2 	movepc	rret,8
    6730:	14 30 e6 38 	br	10 <compare>,#al
    6734:	00 10 00 41 	add	r2,1
    6738:	0d 40 fd 08 	wl16	r8,0x7e8
    673c:	0d 60 01 03 	wh16	r8,0x3
    6740:	10 40 01 08 	ld32	r8,r8
    6744:	0d 43 2e 08 	wl16	r16,0x1968
    6748:	0d 60 02 03 	wh16	r16,0x3
    674c:	10 40 02 10 	ld32	r16,r16
    6750:	0d 45 5d 28 	wl16	r9,0x2ae8
    6754:	0d 60 01 23 	wh16	r9,0x3
    6758:	10 40 01 29 	ld32	r9,r9
    675c:	00 00 01 10 	add	r8,r16
    6760:	20 70 03 e2 	movepc	rret,8
    6764:	14 30 e6 2b 	br	10 <compare>,#al
    6768:	00 10 00 41 	add	r2,1
    676c:	0d 40 fd 0c 	wl16	r8,0x7ec
    6770:	0d 60 01 03 	wh16	r8,0x3
    6774:	10 40 01 08 	ld32	r8,r8
    6778:	0d 43 2e 0c 	wl16	r16,0x196c
    677c:	0d 60 02 03 	wh16	r16,0x3
    6780:	10 40 02 10 	ld32	r16,r16
    6784:	0d 45 5d 2c 	wl16	r9,0x2aec
    6788:	0d 60 01 23 	wh16	r9,0x3
    678c:	10 40 01 29 	ld32	r9,r9
    6790:	00 00 01 10 	add	r8,r16
    6794:	20 70 03 e2 	movepc	rret,8
    6798:	14 30 e6 1e 	br	10 <compare>,#al
    679c:	00 10 00 41 	add	r2,1
    67a0:	0d 40 fd 10 	wl16	r8,0x7f0
    67a4:	0d 60 01 03 	wh16	r8,0x3
    67a8:	10 40 01 08 	ld32	r8,r8
    67ac:	0d 43 2e 10 	wl16	r16,0x1970
    67b0:	0d 60 02 03 	wh16	r16,0x3
    67b4:	10 40 02 10 	ld32	r16,r16
    67b8:	0d 45 5d 30 	wl16	r9,0x2af0
    67bc:	0d 60 01 23 	wh16	r9,0x3
    67c0:	10 40 01 29 	ld32	r9,r9
    67c4:	00 00 01 10 	add	r8,r16
    67c8:	20 70 03 e2 	movepc	rret,8
    67cc:	14 30 e6 11 	br	10 <compare>,#al
    67d0:	00 10 00 41 	add	r2,1
    67d4:	0d 40 fd 14 	wl16	r8,0x7f4
    67d8:	0d 60 01 03 	wh16	r8,0x3
    67dc:	10 40 01 08 	ld32	r8,r8
    67e0:	0d 43 2e 14 	wl16	r16,0x1974
    67e4:	0d 60 02 03 	wh16	r16,0x3
    67e8:	10 40 02 10 	ld32	r16,r16
    67ec:	0d 45 5d 34 	wl16	r9,0x2af4
    67f0:	0d 60 01 23 	wh16	r9,0x3
    67f4:	10 40 01 29 	ld32	r9,r9
    67f8:	00 00 01 10 	add	r8,r16
    67fc:	20 70 03 e2 	movepc	rret,8
    6800:	14 30 e6 04 	br	10 <compare>,#al
    6804:	00 10 00 41 	add	r2,1
    6808:	0d 40 fd 18 	wl16	r8,0x7f8
    680c:	0d 60 01 03 	wh16	r8,0x3
    6810:	10 40 01 08 	ld32	r8,r8
    6814:	0d 43 2e 18 	wl16	r16,0x1978
    6818:	0d 60 02 03 	wh16	r16,0x3
    681c:	10 40 02 10 	ld32	r16,r16
    6820:	0d 45 5d 38 	wl16	r9,0x2af8
    6824:	0d 60 01 23 	wh16	r9,0x3
    6828:	10 40 01 29 	ld32	r9,r9
    682c:	00 00 01 10 	add	r8,r16
    6830:	20 70 03 e2 	movepc	rret,8
    6834:	14 30 e5 f7 	br	10 <compare>,#al
    6838:	00 10 00 41 	add	r2,1
    683c:	0d 40 fd 1c 	wl16	r8,0x7fc
    6840:	0d 60 01 03 	wh16	r8,0x3
    6844:	10 40 01 08 	ld32	r8,r8
    6848:	0d 43 2e 1c 	wl16	r16,0x197c
    684c:	0d 60 02 03 	wh16	r16,0x3
    6850:	10 40 02 10 	ld32	r16,r16
    6854:	0d 45 5d 3c 	wl16	r9,0x2afc
    6858:	0d 60 01 23 	wh16	r9,0x3
    685c:	10 40 01 29 	ld32	r9,r9
    6860:	00 00 01 10 	add	r8,r16
    6864:	20 70 03 e2 	movepc	rret,8
    6868:	14 30 e5 ea 	br	10 <compare>,#al
    686c:	00 10 00 41 	add	r2,1
    6870:	0d 41 01 00 	wl16	r8,0x800
    6874:	0d 60 01 03 	wh16	r8,0x3
    6878:	10 40 01 08 	ld32	r8,r8
    687c:	0d 43 32 00 	wl16	r16,0x1980
    6880:	0d 60 02 03 	wh16	r16,0x3
    6884:	10 40 02 10 	ld32	r16,r16
    6888:	0d 45 61 20 	wl16	r9,0x2b00
    688c:	0d 60 01 23 	wh16	r9,0x3
    6890:	10 40 01 29 	ld32	r9,r9
    6894:	00 00 01 10 	add	r8,r16
    6898:	20 70 03 e2 	movepc	rret,8
    689c:	14 30 e5 dd 	br	10 <compare>,#al
    68a0:	00 10 00 41 	add	r2,1
    68a4:	0d 41 01 04 	wl16	r8,0x804
    68a8:	0d 60 01 03 	wh16	r8,0x3
    68ac:	10 40 01 08 	ld32	r8,r8
    68b0:	0d 43 32 04 	wl16	r16,0x1984
    68b4:	0d 60 02 03 	wh16	r16,0x3
    68b8:	10 40 02 10 	ld32	r16,r16
    68bc:	0d 45 61 24 	wl16	r9,0x2b04
    68c0:	0d 60 01 23 	wh16	r9,0x3
    68c4:	10 40 01 29 	ld32	r9,r9
    68c8:	00 00 01 10 	add	r8,r16
    68cc:	20 70 03 e2 	movepc	rret,8
    68d0:	14 30 e5 d0 	br	10 <compare>,#al
    68d4:	00 10 00 41 	add	r2,1
    68d8:	0d 41 01 08 	wl16	r8,0x808
    68dc:	0d 60 01 03 	wh16	r8,0x3
    68e0:	10 40 01 08 	ld32	r8,r8
    68e4:	0d 43 32 08 	wl16	r16,0x1988
    68e8:	0d 60 02 03 	wh16	r16,0x3
    68ec:	10 40 02 10 	ld32	r16,r16
    68f0:	0d 45 61 28 	wl16	r9,0x2b08
    68f4:	0d 60 01 23 	wh16	r9,0x3
    68f8:	10 40 01 29 	ld32	r9,r9
    68fc:	00 00 01 10 	add	r8,r16
    6900:	20 70 03 e2 	movepc	rret,8
    6904:	14 30 e5 c3 	br	10 <compare>,#al
    6908:	00 10 00 41 	add	r2,1
    690c:	0d 41 01 0c 	wl16	r8,0x80c
    6910:	0d 60 01 03 	wh16	r8,0x3
    6914:	10 40 01 08 	ld32	r8,r8
    6918:	0d 43 32 0c 	wl16	r16,0x198c
    691c:	0d 60 02 03 	wh16	r16,0x3
    6920:	10 40 02 10 	ld32	r16,r16
    6924:	0d 45 61 2c 	wl16	r9,0x2b0c
    6928:	0d 60 01 23 	wh16	r9,0x3
    692c:	10 40 01 29 	ld32	r9,r9
    6930:	00 00 01 10 	add	r8,r16
    6934:	20 70 03 e2 	movepc	rret,8
    6938:	14 30 e5 b6 	br	10 <compare>,#al
    693c:	00 10 00 41 	add	r2,1
    6940:	0d 41 01 10 	wl16	r8,0x810
    6944:	0d 60 01 03 	wh16	r8,0x3
    6948:	10 40 01 08 	ld32	r8,r8
    694c:	0d 43 32 10 	wl16	r16,0x1990
    6950:	0d 60 02 03 	wh16	r16,0x3
    6954:	10 40 02 10 	ld32	r16,r16
    6958:	0d 45 61 30 	wl16	r9,0x2b10
    695c:	0d 60 01 23 	wh16	r9,0x3
    6960:	10 40 01 29 	ld32	r9,r9
    6964:	00 00 01 10 	add	r8,r16
    6968:	20 70 03 e2 	movepc	rret,8
    696c:	14 30 e5 a9 	br	10 <compare>,#al
    6970:	00 10 00 41 	add	r2,1
    6974:	0d 41 01 14 	wl16	r8,0x814
    6978:	0d 60 01 03 	wh16	r8,0x3
    697c:	10 40 01 08 	ld32	r8,r8
    6980:	0d 43 32 14 	wl16	r16,0x1994
    6984:	0d 60 02 03 	wh16	r16,0x3
    6988:	10 40 02 10 	ld32	r16,r16
    698c:	0d 45 61 34 	wl16	r9,0x2b14
    6990:	0d 60 01 23 	wh16	r9,0x3
    6994:	10 40 01 29 	ld32	r9,r9
    6998:	00 00 01 10 	add	r8,r16
    699c:	20 70 03 e2 	movepc	rret,8
    69a0:	14 30 e5 9c 	br	10 <compare>,#al
    69a4:	00 10 00 41 	add	r2,1
    69a8:	0d 41 01 18 	wl16	r8,0x818
    69ac:	0d 60 01 03 	wh16	r8,0x3
    69b0:	10 40 01 08 	ld32	r8,r8
    69b4:	0d 43 32 18 	wl16	r16,0x1998
    69b8:	0d 60 02 03 	wh16	r16,0x3
    69bc:	10 40 02 10 	ld32	r16,r16
    69c0:	0d 45 61 38 	wl16	r9,0x2b18
    69c4:	0d 60 01 23 	wh16	r9,0x3
    69c8:	10 40 01 29 	ld32	r9,r9
    69cc:	00 00 01 10 	add	r8,r16
    69d0:	20 70 03 e2 	movepc	rret,8
    69d4:	14 30 e5 8f 	br	10 <compare>,#al
    69d8:	00 10 00 41 	add	r2,1
    69dc:	0d 41 01 1c 	wl16	r8,0x81c
    69e0:	0d 60 01 03 	wh16	r8,0x3
    69e4:	10 40 01 08 	ld32	r8,r8
    69e8:	0d 43 32 1c 	wl16	r16,0x199c
    69ec:	0d 60 02 03 	wh16	r16,0x3
    69f0:	10 40 02 10 	ld32	r16,r16
    69f4:	0d 45 61 3c 	wl16	r9,0x2b1c
    69f8:	0d 60 01 23 	wh16	r9,0x3
    69fc:	10 40 01 29 	ld32	r9,r9
    6a00:	00 00 01 10 	add	r8,r16
    6a04:	20 70 03 e2 	movepc	rret,8
    6a08:	14 30 e5 82 	br	10 <compare>,#al
    6a0c:	00 10 00 41 	add	r2,1
    6a10:	0d 41 05 00 	wl16	r8,0x820
    6a14:	0d 60 01 03 	wh16	r8,0x3
    6a18:	10 40 01 08 	ld32	r8,r8
    6a1c:	0d 43 36 00 	wl16	r16,0x19a0
    6a20:	0d 60 02 03 	wh16	r16,0x3
    6a24:	10 40 02 10 	ld32	r16,r16
    6a28:	0d 45 65 20 	wl16	r9,0x2b20
    6a2c:	0d 60 01 23 	wh16	r9,0x3
    6a30:	10 40 01 29 	ld32	r9,r9
    6a34:	00 00 01 10 	add	r8,r16
    6a38:	20 70 03 e2 	movepc	rret,8
    6a3c:	14 30 e5 75 	br	10 <compare>,#al
    6a40:	00 10 00 41 	add	r2,1
    6a44:	0d 41 05 04 	wl16	r8,0x824
    6a48:	0d 60 01 03 	wh16	r8,0x3
    6a4c:	10 40 01 08 	ld32	r8,r8
    6a50:	0d 43 36 04 	wl16	r16,0x19a4
    6a54:	0d 60 02 03 	wh16	r16,0x3
    6a58:	10 40 02 10 	ld32	r16,r16
    6a5c:	0d 45 65 24 	wl16	r9,0x2b24
    6a60:	0d 60 01 23 	wh16	r9,0x3
    6a64:	10 40 01 29 	ld32	r9,r9
    6a68:	00 00 01 10 	add	r8,r16
    6a6c:	20 70 03 e2 	movepc	rret,8
    6a70:	14 30 e5 68 	br	10 <compare>,#al
    6a74:	00 10 00 41 	add	r2,1
    6a78:	0d 41 05 08 	wl16	r8,0x828
    6a7c:	0d 60 01 03 	wh16	r8,0x3
    6a80:	10 40 01 08 	ld32	r8,r8
    6a84:	0d 43 36 08 	wl16	r16,0x19a8
    6a88:	0d 60 02 03 	wh16	r16,0x3
    6a8c:	10 40 02 10 	ld32	r16,r16
    6a90:	0d 45 65 28 	wl16	r9,0x2b28
    6a94:	0d 60 01 23 	wh16	r9,0x3
    6a98:	10 40 01 29 	ld32	r9,r9
    6a9c:	00 00 01 10 	add	r8,r16
    6aa0:	20 70 03 e2 	movepc	rret,8
    6aa4:	14 30 e5 5b 	br	10 <compare>,#al
    6aa8:	00 10 00 41 	add	r2,1
    6aac:	0d 41 05 0c 	wl16	r8,0x82c
    6ab0:	0d 60 01 03 	wh16	r8,0x3
    6ab4:	10 40 01 08 	ld32	r8,r8
    6ab8:	0d 43 36 0c 	wl16	r16,0x19ac
    6abc:	0d 60 02 03 	wh16	r16,0x3
    6ac0:	10 40 02 10 	ld32	r16,r16
    6ac4:	0d 45 65 2c 	wl16	r9,0x2b2c
    6ac8:	0d 60 01 23 	wh16	r9,0x3
    6acc:	10 40 01 29 	ld32	r9,r9
    6ad0:	00 00 01 10 	add	r8,r16
    6ad4:	20 70 03 e2 	movepc	rret,8
    6ad8:	14 30 e5 4e 	br	10 <compare>,#al
    6adc:	00 10 00 41 	add	r2,1
    6ae0:	0d 41 05 10 	wl16	r8,0x830
    6ae4:	0d 60 01 03 	wh16	r8,0x3
    6ae8:	10 40 01 08 	ld32	r8,r8
    6aec:	0d 43 36 10 	wl16	r16,0x19b0
    6af0:	0d 60 02 03 	wh16	r16,0x3
    6af4:	10 40 02 10 	ld32	r16,r16
    6af8:	0d 45 65 30 	wl16	r9,0x2b30
    6afc:	0d 60 01 23 	wh16	r9,0x3
    6b00:	10 40 01 29 	ld32	r9,r9
    6b04:	00 00 01 10 	add	r8,r16
    6b08:	20 70 03 e2 	movepc	rret,8
    6b0c:	14 30 e5 41 	br	10 <compare>,#al
    6b10:	00 10 00 41 	add	r2,1
    6b14:	0d 41 05 14 	wl16	r8,0x834
    6b18:	0d 60 01 03 	wh16	r8,0x3
    6b1c:	10 40 01 08 	ld32	r8,r8
    6b20:	0d 43 36 14 	wl16	r16,0x19b4
    6b24:	0d 60 02 03 	wh16	r16,0x3
    6b28:	10 40 02 10 	ld32	r16,r16
    6b2c:	0d 45 65 34 	wl16	r9,0x2b34
    6b30:	0d 60 01 23 	wh16	r9,0x3
    6b34:	10 40 01 29 	ld32	r9,r9
    6b38:	00 00 01 10 	add	r8,r16
    6b3c:	20 70 03 e2 	movepc	rret,8
    6b40:	14 30 e5 34 	br	10 <compare>,#al
    6b44:	00 10 00 41 	add	r2,1
    6b48:	0d 41 05 18 	wl16	r8,0x838
    6b4c:	0d 60 01 03 	wh16	r8,0x3
    6b50:	10 40 01 08 	ld32	r8,r8
    6b54:	0d 43 36 18 	wl16	r16,0x19b8
    6b58:	0d 60 02 03 	wh16	r16,0x3
    6b5c:	10 40 02 10 	ld32	r16,r16
    6b60:	0d 45 65 38 	wl16	r9,0x2b38
    6b64:	0d 60 01 23 	wh16	r9,0x3
    6b68:	10 40 01 29 	ld32	r9,r9
    6b6c:	00 00 01 10 	add	r8,r16
    6b70:	20 70 03 e2 	movepc	rret,8
    6b74:	14 30 e5 27 	br	10 <compare>,#al
    6b78:	00 10 00 41 	add	r2,1
    6b7c:	0d 41 05 1c 	wl16	r8,0x83c
    6b80:	0d 60 01 03 	wh16	r8,0x3
    6b84:	10 40 01 08 	ld32	r8,r8
    6b88:	0d 43 36 1c 	wl16	r16,0x19bc
    6b8c:	0d 60 02 03 	wh16	r16,0x3
    6b90:	10 40 02 10 	ld32	r16,r16
    6b94:	0d 45 65 3c 	wl16	r9,0x2b3c
    6b98:	0d 60 01 23 	wh16	r9,0x3
    6b9c:	10 40 01 29 	ld32	r9,r9
    6ba0:	00 00 01 10 	add	r8,r16
    6ba4:	20 70 03 e2 	movepc	rret,8
    6ba8:	14 30 e5 1a 	br	10 <compare>,#al
    6bac:	00 10 00 41 	add	r2,1
    6bb0:	0d 41 09 00 	wl16	r8,0x840
    6bb4:	0d 60 01 03 	wh16	r8,0x3
    6bb8:	10 40 01 08 	ld32	r8,r8
    6bbc:	0d 43 3a 00 	wl16	r16,0x19c0
    6bc0:	0d 60 02 03 	wh16	r16,0x3
    6bc4:	10 40 02 10 	ld32	r16,r16
    6bc8:	0d 45 69 20 	wl16	r9,0x2b40
    6bcc:	0d 60 01 23 	wh16	r9,0x3
    6bd0:	10 40 01 29 	ld32	r9,r9
    6bd4:	00 00 01 10 	add	r8,r16
    6bd8:	20 70 03 e2 	movepc	rret,8
    6bdc:	14 30 e5 0d 	br	10 <compare>,#al
    6be0:	00 10 00 41 	add	r2,1
    6be4:	0d 41 09 04 	wl16	r8,0x844
    6be8:	0d 60 01 03 	wh16	r8,0x3
    6bec:	10 40 01 08 	ld32	r8,r8
    6bf0:	0d 43 3a 04 	wl16	r16,0x19c4
    6bf4:	0d 60 02 03 	wh16	r16,0x3
    6bf8:	10 40 02 10 	ld32	r16,r16
    6bfc:	0d 45 69 24 	wl16	r9,0x2b44
    6c00:	0d 60 01 23 	wh16	r9,0x3
    6c04:	10 40 01 29 	ld32	r9,r9
    6c08:	00 00 01 10 	add	r8,r16
    6c0c:	20 70 03 e2 	movepc	rret,8
    6c10:	14 30 e5 00 	br	10 <compare>,#al
    6c14:	00 10 00 41 	add	r2,1
    6c18:	0d 41 09 08 	wl16	r8,0x848
    6c1c:	0d 60 01 03 	wh16	r8,0x3
    6c20:	10 40 01 08 	ld32	r8,r8
    6c24:	0d 43 3a 08 	wl16	r16,0x19c8
    6c28:	0d 60 02 03 	wh16	r16,0x3
    6c2c:	10 40 02 10 	ld32	r16,r16
    6c30:	0d 45 69 28 	wl16	r9,0x2b48
    6c34:	0d 60 01 23 	wh16	r9,0x3
    6c38:	10 40 01 29 	ld32	r9,r9
    6c3c:	00 00 01 10 	add	r8,r16
    6c40:	20 70 03 e2 	movepc	rret,8
    6c44:	14 30 e4 f3 	br	10 <compare>,#al
    6c48:	00 10 00 41 	add	r2,1
    6c4c:	0d 41 09 0c 	wl16	r8,0x84c
    6c50:	0d 60 01 03 	wh16	r8,0x3
    6c54:	10 40 01 08 	ld32	r8,r8
    6c58:	0d 43 3a 0c 	wl16	r16,0x19cc
    6c5c:	0d 60 02 03 	wh16	r16,0x3
    6c60:	10 40 02 10 	ld32	r16,r16
    6c64:	0d 45 69 2c 	wl16	r9,0x2b4c
    6c68:	0d 60 01 23 	wh16	r9,0x3
    6c6c:	10 40 01 29 	ld32	r9,r9
    6c70:	00 00 01 10 	add	r8,r16
    6c74:	20 70 03 e2 	movepc	rret,8
    6c78:	14 30 e4 e6 	br	10 <compare>,#al
    6c7c:	00 10 00 41 	add	r2,1
    6c80:	0d 41 09 10 	wl16	r8,0x850
    6c84:	0d 60 01 03 	wh16	r8,0x3
    6c88:	10 40 01 08 	ld32	r8,r8
    6c8c:	0d 43 3a 10 	wl16	r16,0x19d0
    6c90:	0d 60 02 03 	wh16	r16,0x3
    6c94:	10 40 02 10 	ld32	r16,r16
    6c98:	0d 45 69 30 	wl16	r9,0x2b50
    6c9c:	0d 60 01 23 	wh16	r9,0x3
    6ca0:	10 40 01 29 	ld32	r9,r9
    6ca4:	00 00 01 10 	add	r8,r16
    6ca8:	20 70 03 e2 	movepc	rret,8
    6cac:	14 30 e4 d9 	br	10 <compare>,#al
    6cb0:	00 10 00 41 	add	r2,1
    6cb4:	0d 41 09 14 	wl16	r8,0x854
    6cb8:	0d 60 01 03 	wh16	r8,0x3
    6cbc:	10 40 01 08 	ld32	r8,r8
    6cc0:	0d 43 3a 14 	wl16	r16,0x19d4
    6cc4:	0d 60 02 03 	wh16	r16,0x3
    6cc8:	10 40 02 10 	ld32	r16,r16
    6ccc:	0d 45 69 34 	wl16	r9,0x2b54
    6cd0:	0d 60 01 23 	wh16	r9,0x3
    6cd4:	10 40 01 29 	ld32	r9,r9
    6cd8:	00 00 01 10 	add	r8,r16
    6cdc:	20 70 03 e2 	movepc	rret,8
    6ce0:	14 30 e4 cc 	br	10 <compare>,#al
    6ce4:	00 10 00 41 	add	r2,1
    6ce8:	0d 41 09 18 	wl16	r8,0x858
    6cec:	0d 60 01 03 	wh16	r8,0x3
    6cf0:	10 40 01 08 	ld32	r8,r8
    6cf4:	0d 43 3a 18 	wl16	r16,0x19d8
    6cf8:	0d 60 02 03 	wh16	r16,0x3
    6cfc:	10 40 02 10 	ld32	r16,r16
    6d00:	0d 45 69 38 	wl16	r9,0x2b58
    6d04:	0d 60 01 23 	wh16	r9,0x3
    6d08:	10 40 01 29 	ld32	r9,r9
    6d0c:	00 00 01 10 	add	r8,r16
    6d10:	20 70 03 e2 	movepc	rret,8
    6d14:	14 30 e4 bf 	br	10 <compare>,#al
    6d18:	00 10 00 41 	add	r2,1
    6d1c:	0d 41 09 1c 	wl16	r8,0x85c
    6d20:	0d 60 01 03 	wh16	r8,0x3
    6d24:	10 40 01 08 	ld32	r8,r8
    6d28:	0d 43 3a 1c 	wl16	r16,0x19dc
    6d2c:	0d 60 02 03 	wh16	r16,0x3
    6d30:	10 40 02 10 	ld32	r16,r16
    6d34:	0d 45 69 3c 	wl16	r9,0x2b5c
    6d38:	0d 60 01 23 	wh16	r9,0x3
    6d3c:	10 40 01 29 	ld32	r9,r9
    6d40:	00 00 01 10 	add	r8,r16
    6d44:	20 70 03 e2 	movepc	rret,8
    6d48:	14 30 e4 b2 	br	10 <compare>,#al
    6d4c:	00 10 00 41 	add	r2,1
    6d50:	0d 41 0d 00 	wl16	r8,0x860
    6d54:	0d 60 01 03 	wh16	r8,0x3
    6d58:	10 40 01 08 	ld32	r8,r8
    6d5c:	0d 43 3e 00 	wl16	r16,0x19e0
    6d60:	0d 60 02 03 	wh16	r16,0x3
    6d64:	10 40 02 10 	ld32	r16,r16
    6d68:	0d 45 6d 20 	wl16	r9,0x2b60
    6d6c:	0d 60 01 23 	wh16	r9,0x3
    6d70:	10 40 01 29 	ld32	r9,r9
    6d74:	00 00 01 10 	add	r8,r16
    6d78:	20 70 03 e2 	movepc	rret,8
    6d7c:	14 30 e4 a5 	br	10 <compare>,#al
    6d80:	00 10 00 41 	add	r2,1
    6d84:	0d 41 0d 04 	wl16	r8,0x864
    6d88:	0d 60 01 03 	wh16	r8,0x3
    6d8c:	10 40 01 08 	ld32	r8,r8
    6d90:	0d 43 3e 04 	wl16	r16,0x19e4
    6d94:	0d 60 02 03 	wh16	r16,0x3
    6d98:	10 40 02 10 	ld32	r16,r16
    6d9c:	0d 45 6d 24 	wl16	r9,0x2b64
    6da0:	0d 60 01 23 	wh16	r9,0x3
    6da4:	10 40 01 29 	ld32	r9,r9
    6da8:	00 00 01 10 	add	r8,r16
    6dac:	20 70 03 e2 	movepc	rret,8
    6db0:	14 30 e4 98 	br	10 <compare>,#al
    6db4:	00 10 00 41 	add	r2,1
    6db8:	0d 41 0d 08 	wl16	r8,0x868
    6dbc:	0d 60 01 03 	wh16	r8,0x3
    6dc0:	10 40 01 08 	ld32	r8,r8
    6dc4:	0d 43 3e 08 	wl16	r16,0x19e8
    6dc8:	0d 60 02 03 	wh16	r16,0x3
    6dcc:	10 40 02 10 	ld32	r16,r16
    6dd0:	0d 45 6d 28 	wl16	r9,0x2b68
    6dd4:	0d 60 01 23 	wh16	r9,0x3
    6dd8:	10 40 01 29 	ld32	r9,r9
    6ddc:	00 00 01 10 	add	r8,r16
    6de0:	20 70 03 e2 	movepc	rret,8
    6de4:	14 30 e4 8b 	br	10 <compare>,#al
    6de8:	00 10 00 41 	add	r2,1
    6dec:	0d 41 0d 0c 	wl16	r8,0x86c
    6df0:	0d 60 01 03 	wh16	r8,0x3
    6df4:	10 40 01 08 	ld32	r8,r8
    6df8:	0d 43 3e 0c 	wl16	r16,0x19ec
    6dfc:	0d 60 02 03 	wh16	r16,0x3
    6e00:	10 40 02 10 	ld32	r16,r16
    6e04:	0d 45 6d 2c 	wl16	r9,0x2b6c
    6e08:	0d 60 01 23 	wh16	r9,0x3
    6e0c:	10 40 01 29 	ld32	r9,r9
    6e10:	00 00 01 10 	add	r8,r16
    6e14:	20 70 03 e2 	movepc	rret,8
    6e18:	14 30 e4 7e 	br	10 <compare>,#al
    6e1c:	00 10 00 41 	add	r2,1
    6e20:	0d 41 0d 10 	wl16	r8,0x870
    6e24:	0d 60 01 03 	wh16	r8,0x3
    6e28:	10 40 01 08 	ld32	r8,r8
    6e2c:	0d 43 3e 10 	wl16	r16,0x19f0
    6e30:	0d 60 02 03 	wh16	r16,0x3
    6e34:	10 40 02 10 	ld32	r16,r16
    6e38:	0d 45 6d 30 	wl16	r9,0x2b70
    6e3c:	0d 60 01 23 	wh16	r9,0x3
    6e40:	10 40 01 29 	ld32	r9,r9
    6e44:	00 00 01 10 	add	r8,r16
    6e48:	20 70 03 e2 	movepc	rret,8
    6e4c:	14 30 e4 71 	br	10 <compare>,#al
    6e50:	00 10 00 41 	add	r2,1
    6e54:	0d 41 0d 14 	wl16	r8,0x874
    6e58:	0d 60 01 03 	wh16	r8,0x3
    6e5c:	10 40 01 08 	ld32	r8,r8
    6e60:	0d 43 3e 14 	wl16	r16,0x19f4
    6e64:	0d 60 02 03 	wh16	r16,0x3
    6e68:	10 40 02 10 	ld32	r16,r16
    6e6c:	0d 45 6d 34 	wl16	r9,0x2b74
    6e70:	0d 60 01 23 	wh16	r9,0x3
    6e74:	10 40 01 29 	ld32	r9,r9
    6e78:	00 00 01 10 	add	r8,r16
    6e7c:	20 70 03 e2 	movepc	rret,8
    6e80:	14 30 e4 64 	br	10 <compare>,#al
    6e84:	00 10 00 41 	add	r2,1
    6e88:	0d 41 0d 18 	wl16	r8,0x878
    6e8c:	0d 60 01 03 	wh16	r8,0x3
    6e90:	10 40 01 08 	ld32	r8,r8
    6e94:	0d 43 3e 18 	wl16	r16,0x19f8
    6e98:	0d 60 02 03 	wh16	r16,0x3
    6e9c:	10 40 02 10 	ld32	r16,r16
    6ea0:	0d 45 6d 38 	wl16	r9,0x2b78
    6ea4:	0d 60 01 23 	wh16	r9,0x3
    6ea8:	10 40 01 29 	ld32	r9,r9
    6eac:	00 00 01 10 	add	r8,r16
    6eb0:	20 70 03 e2 	movepc	rret,8
    6eb4:	14 30 e4 57 	br	10 <compare>,#al
    6eb8:	00 10 00 41 	add	r2,1
    6ebc:	0d 41 0d 1c 	wl16	r8,0x87c
    6ec0:	0d 60 01 03 	wh16	r8,0x3
    6ec4:	10 40 01 08 	ld32	r8,r8
    6ec8:	0d 43 3e 1c 	wl16	r16,0x19fc
    6ecc:	0d 60 02 03 	wh16	r16,0x3
    6ed0:	10 40 02 10 	ld32	r16,r16
    6ed4:	0d 45 6d 3c 	wl16	r9,0x2b7c
    6ed8:	0d 60 01 23 	wh16	r9,0x3
    6edc:	10 40 01 29 	ld32	r9,r9
    6ee0:	00 00 01 10 	add	r8,r16
    6ee4:	20 70 03 e2 	movepc	rret,8
    6ee8:	14 30 e4 4a 	br	10 <compare>,#al
    6eec:	00 10 00 41 	add	r2,1
    6ef0:	0d 41 11 00 	wl16	r8,0x880
    6ef4:	0d 60 01 03 	wh16	r8,0x3
    6ef8:	10 40 01 08 	ld32	r8,r8
    6efc:	0d 43 42 00 	wl16	r16,0x1a00
    6f00:	0d 60 02 03 	wh16	r16,0x3
    6f04:	10 40 02 10 	ld32	r16,r16
    6f08:	0d 45 71 20 	wl16	r9,0x2b80
    6f0c:	0d 60 01 23 	wh16	r9,0x3
    6f10:	10 40 01 29 	ld32	r9,r9
    6f14:	00 00 01 10 	add	r8,r16
    6f18:	20 70 03 e2 	movepc	rret,8
    6f1c:	14 30 e4 3d 	br	10 <compare>,#al
    6f20:	00 10 00 41 	add	r2,1
    6f24:	0d 41 11 04 	wl16	r8,0x884
    6f28:	0d 60 01 03 	wh16	r8,0x3
    6f2c:	10 40 01 08 	ld32	r8,r8
    6f30:	0d 43 42 04 	wl16	r16,0x1a04
    6f34:	0d 60 02 03 	wh16	r16,0x3
    6f38:	10 40 02 10 	ld32	r16,r16
    6f3c:	0d 45 71 24 	wl16	r9,0x2b84
    6f40:	0d 60 01 23 	wh16	r9,0x3
    6f44:	10 40 01 29 	ld32	r9,r9
    6f48:	00 00 01 10 	add	r8,r16
    6f4c:	20 70 03 e2 	movepc	rret,8
    6f50:	14 30 e4 30 	br	10 <compare>,#al
    6f54:	00 10 00 41 	add	r2,1
    6f58:	0d 41 11 08 	wl16	r8,0x888
    6f5c:	0d 60 01 03 	wh16	r8,0x3
    6f60:	10 40 01 08 	ld32	r8,r8
    6f64:	0d 43 42 08 	wl16	r16,0x1a08
    6f68:	0d 60 02 03 	wh16	r16,0x3
    6f6c:	10 40 02 10 	ld32	r16,r16
    6f70:	0d 45 71 28 	wl16	r9,0x2b88
    6f74:	0d 60 01 23 	wh16	r9,0x3
    6f78:	10 40 01 29 	ld32	r9,r9
    6f7c:	00 00 01 10 	add	r8,r16
    6f80:	20 70 03 e2 	movepc	rret,8
    6f84:	14 30 e4 23 	br	10 <compare>,#al
    6f88:	00 10 00 41 	add	r2,1
    6f8c:	0d 41 11 0c 	wl16	r8,0x88c
    6f90:	0d 60 01 03 	wh16	r8,0x3
    6f94:	10 40 01 08 	ld32	r8,r8
    6f98:	0d 43 42 0c 	wl16	r16,0x1a0c
    6f9c:	0d 60 02 03 	wh16	r16,0x3
    6fa0:	10 40 02 10 	ld32	r16,r16
    6fa4:	0d 45 71 2c 	wl16	r9,0x2b8c
    6fa8:	0d 60 01 23 	wh16	r9,0x3
    6fac:	10 40 01 29 	ld32	r9,r9
    6fb0:	00 00 01 10 	add	r8,r16
    6fb4:	20 70 03 e2 	movepc	rret,8
    6fb8:	14 30 e4 16 	br	10 <compare>,#al
    6fbc:	00 10 00 41 	add	r2,1
    6fc0:	0d 41 11 10 	wl16	r8,0x890
    6fc4:	0d 60 01 03 	wh16	r8,0x3
    6fc8:	10 40 01 08 	ld32	r8,r8
    6fcc:	0d 43 42 10 	wl16	r16,0x1a10
    6fd0:	0d 60 02 03 	wh16	r16,0x3
    6fd4:	10 40 02 10 	ld32	r16,r16
    6fd8:	0d 45 71 30 	wl16	r9,0x2b90
    6fdc:	0d 60 01 23 	wh16	r9,0x3
    6fe0:	10 40 01 29 	ld32	r9,r9
    6fe4:	00 00 01 10 	add	r8,r16
    6fe8:	20 70 03 e2 	movepc	rret,8
    6fec:	14 30 e4 09 	br	10 <compare>,#al
    6ff0:	00 10 00 41 	add	r2,1
    6ff4:	0d 41 11 14 	wl16	r8,0x894
    6ff8:	0d 60 01 03 	wh16	r8,0x3
    6ffc:	10 40 01 08 	ld32	r8,r8
    7000:	0d 43 42 14 	wl16	r16,0x1a14
    7004:	0d 60 02 03 	wh16	r16,0x3
    7008:	10 40 02 10 	ld32	r16,r16
    700c:	0d 45 71 34 	wl16	r9,0x2b94
    7010:	0d 60 01 23 	wh16	r9,0x3
    7014:	10 40 01 29 	ld32	r9,r9
    7018:	00 00 01 10 	add	r8,r16
    701c:	20 70 03 e2 	movepc	rret,8
    7020:	14 30 e3 fc 	br	10 <compare>,#al
    7024:	00 10 00 41 	add	r2,1
    7028:	0d 41 11 18 	wl16	r8,0x898
    702c:	0d 60 01 03 	wh16	r8,0x3
    7030:	10 40 01 08 	ld32	r8,r8
    7034:	0d 43 42 18 	wl16	r16,0x1a18
    7038:	0d 60 02 03 	wh16	r16,0x3
    703c:	10 40 02 10 	ld32	r16,r16
    7040:	0d 45 71 38 	wl16	r9,0x2b98
    7044:	0d 60 01 23 	wh16	r9,0x3
    7048:	10 40 01 29 	ld32	r9,r9
    704c:	00 00 01 10 	add	r8,r16
    7050:	20 70 03 e2 	movepc	rret,8
    7054:	14 30 e3 ef 	br	10 <compare>,#al
    7058:	00 10 00 41 	add	r2,1
    705c:	0d 41 11 1c 	wl16	r8,0x89c
    7060:	0d 60 01 03 	wh16	r8,0x3
    7064:	10 40 01 08 	ld32	r8,r8
    7068:	0d 43 42 1c 	wl16	r16,0x1a1c
    706c:	0d 60 02 03 	wh16	r16,0x3
    7070:	10 40 02 10 	ld32	r16,r16
    7074:	0d 45 71 3c 	wl16	r9,0x2b9c
    7078:	0d 60 01 23 	wh16	r9,0x3
    707c:	10 40 01 29 	ld32	r9,r9
    7080:	00 00 01 10 	add	r8,r16
    7084:	20 70 03 e2 	movepc	rret,8
    7088:	14 30 e3 e2 	br	10 <compare>,#al
    708c:	00 10 00 41 	add	r2,1
    7090:	0d 41 15 00 	wl16	r8,0x8a0
    7094:	0d 60 01 03 	wh16	r8,0x3
    7098:	10 40 01 08 	ld32	r8,r8
    709c:	0d 43 46 00 	wl16	r16,0x1a20
    70a0:	0d 60 02 03 	wh16	r16,0x3
    70a4:	10 40 02 10 	ld32	r16,r16
    70a8:	0d 45 75 20 	wl16	r9,0x2ba0
    70ac:	0d 60 01 23 	wh16	r9,0x3
    70b0:	10 40 01 29 	ld32	r9,r9
    70b4:	00 00 01 10 	add	r8,r16
    70b8:	20 70 03 e2 	movepc	rret,8
    70bc:	14 30 e3 d5 	br	10 <compare>,#al
    70c0:	00 10 00 41 	add	r2,1
    70c4:	0d 41 15 04 	wl16	r8,0x8a4
    70c8:	0d 60 01 03 	wh16	r8,0x3
    70cc:	10 40 01 08 	ld32	r8,r8
    70d0:	0d 43 46 04 	wl16	r16,0x1a24
    70d4:	0d 60 02 03 	wh16	r16,0x3
    70d8:	10 40 02 10 	ld32	r16,r16
    70dc:	0d 45 75 24 	wl16	r9,0x2ba4
    70e0:	0d 60 01 23 	wh16	r9,0x3
    70e4:	10 40 01 29 	ld32	r9,r9
    70e8:	00 00 01 10 	add	r8,r16
    70ec:	20 70 03 e2 	movepc	rret,8
    70f0:	14 30 e3 c8 	br	10 <compare>,#al
    70f4:	00 10 00 41 	add	r2,1
    70f8:	0d 41 15 08 	wl16	r8,0x8a8
    70fc:	0d 60 01 03 	wh16	r8,0x3
    7100:	10 40 01 08 	ld32	r8,r8
    7104:	0d 43 46 08 	wl16	r16,0x1a28
    7108:	0d 60 02 03 	wh16	r16,0x3
    710c:	10 40 02 10 	ld32	r16,r16
    7110:	0d 45 75 28 	wl16	r9,0x2ba8
    7114:	0d 60 01 23 	wh16	r9,0x3
    7118:	10 40 01 29 	ld32	r9,r9
    711c:	00 00 01 10 	add	r8,r16
    7120:	20 70 03 e2 	movepc	rret,8
    7124:	14 30 e3 bb 	br	10 <compare>,#al
    7128:	00 10 00 41 	add	r2,1
    712c:	0d 41 15 0c 	wl16	r8,0x8ac
    7130:	0d 60 01 03 	wh16	r8,0x3
    7134:	10 40 01 08 	ld32	r8,r8
    7138:	0d 43 46 0c 	wl16	r16,0x1a2c
    713c:	0d 60 02 03 	wh16	r16,0x3
    7140:	10 40 02 10 	ld32	r16,r16
    7144:	0d 45 75 2c 	wl16	r9,0x2bac
    7148:	0d 60 01 23 	wh16	r9,0x3
    714c:	10 40 01 29 	ld32	r9,r9
    7150:	00 00 01 10 	add	r8,r16
    7154:	20 70 03 e2 	movepc	rret,8
    7158:	14 30 e3 ae 	br	10 <compare>,#al
    715c:	00 10 00 41 	add	r2,1
    7160:	0d 41 15 10 	wl16	r8,0x8b0
    7164:	0d 60 01 03 	wh16	r8,0x3
    7168:	10 40 01 08 	ld32	r8,r8
    716c:	0d 43 46 10 	wl16	r16,0x1a30
    7170:	0d 60 02 03 	wh16	r16,0x3
    7174:	10 40 02 10 	ld32	r16,r16
    7178:	0d 45 75 30 	wl16	r9,0x2bb0
    717c:	0d 60 01 23 	wh16	r9,0x3
    7180:	10 40 01 29 	ld32	r9,r9
    7184:	00 00 01 10 	add	r8,r16
    7188:	20 70 03 e2 	movepc	rret,8
    718c:	14 30 e3 a1 	br	10 <compare>,#al
    7190:	00 10 00 41 	add	r2,1
    7194:	0d 41 15 14 	wl16	r8,0x8b4
    7198:	0d 60 01 03 	wh16	r8,0x3
    719c:	10 40 01 08 	ld32	r8,r8
    71a0:	0d 43 46 14 	wl16	r16,0x1a34
    71a4:	0d 60 02 03 	wh16	r16,0x3
    71a8:	10 40 02 10 	ld32	r16,r16
    71ac:	0d 45 75 34 	wl16	r9,0x2bb4
    71b0:	0d 60 01 23 	wh16	r9,0x3
    71b4:	10 40 01 29 	ld32	r9,r9
    71b8:	00 00 01 10 	add	r8,r16
    71bc:	20 70 03 e2 	movepc	rret,8
    71c0:	14 30 e3 94 	br	10 <compare>,#al
    71c4:	00 10 00 41 	add	r2,1
    71c8:	0d 41 15 18 	wl16	r8,0x8b8
    71cc:	0d 60 01 03 	wh16	r8,0x3
    71d0:	10 40 01 08 	ld32	r8,r8
    71d4:	0d 43 46 18 	wl16	r16,0x1a38
    71d8:	0d 60 02 03 	wh16	r16,0x3
    71dc:	10 40 02 10 	ld32	r16,r16
    71e0:	0d 45 75 38 	wl16	r9,0x2bb8
    71e4:	0d 60 01 23 	wh16	r9,0x3
    71e8:	10 40 01 29 	ld32	r9,r9
    71ec:	00 00 01 10 	add	r8,r16
    71f0:	20 70 03 e2 	movepc	rret,8
    71f4:	14 30 e3 87 	br	10 <compare>,#al
    71f8:	00 10 00 41 	add	r2,1
    71fc:	0d 41 15 1c 	wl16	r8,0x8bc
    7200:	0d 60 01 03 	wh16	r8,0x3
    7204:	10 40 01 08 	ld32	r8,r8
    7208:	0d 43 46 1c 	wl16	r16,0x1a3c
    720c:	0d 60 02 03 	wh16	r16,0x3
    7210:	10 40 02 10 	ld32	r16,r16
    7214:	0d 45 75 3c 	wl16	r9,0x2bbc
    7218:	0d 60 01 23 	wh16	r9,0x3
    721c:	10 40 01 29 	ld32	r9,r9
    7220:	00 00 01 10 	add	r8,r16
    7224:	20 70 03 e2 	movepc	rret,8
    7228:	14 30 e3 7a 	br	10 <compare>,#al
    722c:	00 10 00 41 	add	r2,1
    7230:	0d 41 19 00 	wl16	r8,0x8c0
    7234:	0d 60 01 03 	wh16	r8,0x3
    7238:	10 40 01 08 	ld32	r8,r8
    723c:	0d 43 4a 00 	wl16	r16,0x1a40
    7240:	0d 60 02 03 	wh16	r16,0x3
    7244:	10 40 02 10 	ld32	r16,r16
    7248:	0d 45 79 20 	wl16	r9,0x2bc0
    724c:	0d 60 01 23 	wh16	r9,0x3
    7250:	10 40 01 29 	ld32	r9,r9
    7254:	00 00 01 10 	add	r8,r16
    7258:	20 70 03 e2 	movepc	rret,8
    725c:	14 30 e3 6d 	br	10 <compare>,#al
    7260:	00 10 00 41 	add	r2,1
    7264:	0d 41 19 04 	wl16	r8,0x8c4
    7268:	0d 60 01 03 	wh16	r8,0x3
    726c:	10 40 01 08 	ld32	r8,r8
    7270:	0d 43 4a 04 	wl16	r16,0x1a44
    7274:	0d 60 02 03 	wh16	r16,0x3
    7278:	10 40 02 10 	ld32	r16,r16
    727c:	0d 45 79 24 	wl16	r9,0x2bc4
    7280:	0d 60 01 23 	wh16	r9,0x3
    7284:	10 40 01 29 	ld32	r9,r9
    7288:	00 00 01 10 	add	r8,r16
    728c:	20 70 03 e2 	movepc	rret,8
    7290:	14 30 e3 60 	br	10 <compare>,#al
    7294:	00 10 00 41 	add	r2,1
    7298:	0d 41 19 08 	wl16	r8,0x8c8
    729c:	0d 60 01 03 	wh16	r8,0x3
    72a0:	10 40 01 08 	ld32	r8,r8
    72a4:	0d 43 4a 08 	wl16	r16,0x1a48
    72a8:	0d 60 02 03 	wh16	r16,0x3
    72ac:	10 40 02 10 	ld32	r16,r16
    72b0:	0d 45 79 28 	wl16	r9,0x2bc8
    72b4:	0d 60 01 23 	wh16	r9,0x3
    72b8:	10 40 01 29 	ld32	r9,r9
    72bc:	00 00 01 10 	add	r8,r16
    72c0:	20 70 03 e2 	movepc	rret,8
    72c4:	14 30 e3 53 	br	10 <compare>,#al
    72c8:	00 10 00 41 	add	r2,1
    72cc:	0d 41 19 0c 	wl16	r8,0x8cc
    72d0:	0d 60 01 03 	wh16	r8,0x3
    72d4:	10 40 01 08 	ld32	r8,r8
    72d8:	0d 43 4a 0c 	wl16	r16,0x1a4c
    72dc:	0d 60 02 03 	wh16	r16,0x3
    72e0:	10 40 02 10 	ld32	r16,r16
    72e4:	0d 45 79 2c 	wl16	r9,0x2bcc
    72e8:	0d 60 01 23 	wh16	r9,0x3
    72ec:	10 40 01 29 	ld32	r9,r9
    72f0:	00 00 01 10 	add	r8,r16
    72f4:	20 70 03 e2 	movepc	rret,8
    72f8:	14 30 e3 46 	br	10 <compare>,#al
    72fc:	00 10 00 41 	add	r2,1
    7300:	0d 41 19 10 	wl16	r8,0x8d0
    7304:	0d 60 01 03 	wh16	r8,0x3
    7308:	10 40 01 08 	ld32	r8,r8
    730c:	0d 43 4a 10 	wl16	r16,0x1a50
    7310:	0d 60 02 03 	wh16	r16,0x3
    7314:	10 40 02 10 	ld32	r16,r16
    7318:	0d 45 79 30 	wl16	r9,0x2bd0
    731c:	0d 60 01 23 	wh16	r9,0x3
    7320:	10 40 01 29 	ld32	r9,r9
    7324:	00 00 01 10 	add	r8,r16
    7328:	20 70 03 e2 	movepc	rret,8
    732c:	14 30 e3 39 	br	10 <compare>,#al
    7330:	00 10 00 41 	add	r2,1
    7334:	0d 41 19 14 	wl16	r8,0x8d4
    7338:	0d 60 01 03 	wh16	r8,0x3
    733c:	10 40 01 08 	ld32	r8,r8
    7340:	0d 43 4a 14 	wl16	r16,0x1a54
    7344:	0d 60 02 03 	wh16	r16,0x3
    7348:	10 40 02 10 	ld32	r16,r16
    734c:	0d 45 79 34 	wl16	r9,0x2bd4
    7350:	0d 60 01 23 	wh16	r9,0x3
    7354:	10 40 01 29 	ld32	r9,r9
    7358:	00 00 01 10 	add	r8,r16
    735c:	20 70 03 e2 	movepc	rret,8
    7360:	14 30 e3 2c 	br	10 <compare>,#al
    7364:	00 10 00 41 	add	r2,1
    7368:	0d 41 19 18 	wl16	r8,0x8d8
    736c:	0d 60 01 03 	wh16	r8,0x3
    7370:	10 40 01 08 	ld32	r8,r8
    7374:	0d 43 4a 18 	wl16	r16,0x1a58
    7378:	0d 60 02 03 	wh16	r16,0x3
    737c:	10 40 02 10 	ld32	r16,r16
    7380:	0d 45 79 38 	wl16	r9,0x2bd8
    7384:	0d 60 01 23 	wh16	r9,0x3
    7388:	10 40 01 29 	ld32	r9,r9
    738c:	00 00 01 10 	add	r8,r16
    7390:	20 70 03 e2 	movepc	rret,8
    7394:	14 30 e3 1f 	br	10 <compare>,#al
    7398:	00 10 00 41 	add	r2,1
    739c:	0d 41 19 1c 	wl16	r8,0x8dc
    73a0:	0d 60 01 03 	wh16	r8,0x3
    73a4:	10 40 01 08 	ld32	r8,r8
    73a8:	0d 43 4a 1c 	wl16	r16,0x1a5c
    73ac:	0d 60 02 03 	wh16	r16,0x3
    73b0:	10 40 02 10 	ld32	r16,r16
    73b4:	0d 45 79 3c 	wl16	r9,0x2bdc
    73b8:	0d 60 01 23 	wh16	r9,0x3
    73bc:	10 40 01 29 	ld32	r9,r9
    73c0:	00 00 01 10 	add	r8,r16
    73c4:	20 70 03 e2 	movepc	rret,8
    73c8:	14 30 e3 12 	br	10 <compare>,#al
    73cc:	00 10 00 41 	add	r2,1
    73d0:	0d 41 1d 00 	wl16	r8,0x8e0
    73d4:	0d 60 01 03 	wh16	r8,0x3
    73d8:	10 40 01 08 	ld32	r8,r8
    73dc:	0d 43 4e 00 	wl16	r16,0x1a60
    73e0:	0d 60 02 03 	wh16	r16,0x3
    73e4:	10 40 02 10 	ld32	r16,r16
    73e8:	0d 45 7d 20 	wl16	r9,0x2be0
    73ec:	0d 60 01 23 	wh16	r9,0x3
    73f0:	10 40 01 29 	ld32	r9,r9
    73f4:	00 00 01 10 	add	r8,r16
    73f8:	20 70 03 e2 	movepc	rret,8
    73fc:	14 30 e3 05 	br	10 <compare>,#al
    7400:	00 10 00 41 	add	r2,1
    7404:	0d 41 1d 04 	wl16	r8,0x8e4
    7408:	0d 60 01 03 	wh16	r8,0x3
    740c:	10 40 01 08 	ld32	r8,r8
    7410:	0d 43 4e 04 	wl16	r16,0x1a64
    7414:	0d 60 02 03 	wh16	r16,0x3
    7418:	10 40 02 10 	ld32	r16,r16
    741c:	0d 45 7d 24 	wl16	r9,0x2be4
    7420:	0d 60 01 23 	wh16	r9,0x3
    7424:	10 40 01 29 	ld32	r9,r9
    7428:	00 00 01 10 	add	r8,r16
    742c:	20 70 03 e2 	movepc	rret,8
    7430:	14 30 e2 f8 	br	10 <compare>,#al
    7434:	00 10 00 41 	add	r2,1
    7438:	0d 41 1d 08 	wl16	r8,0x8e8
    743c:	0d 60 01 03 	wh16	r8,0x3
    7440:	10 40 01 08 	ld32	r8,r8
    7444:	0d 43 4e 08 	wl16	r16,0x1a68
    7448:	0d 60 02 03 	wh16	r16,0x3
    744c:	10 40 02 10 	ld32	r16,r16
    7450:	0d 45 7d 28 	wl16	r9,0x2be8
    7454:	0d 60 01 23 	wh16	r9,0x3
    7458:	10 40 01 29 	ld32	r9,r9
    745c:	00 00 01 10 	add	r8,r16
    7460:	20 70 03 e2 	movepc	rret,8
    7464:	14 30 e2 eb 	br	10 <compare>,#al
    7468:	00 10 00 41 	add	r2,1
    746c:	0d 41 1d 0c 	wl16	r8,0x8ec
    7470:	0d 60 01 03 	wh16	r8,0x3
    7474:	10 40 01 08 	ld32	r8,r8
    7478:	0d 43 4e 0c 	wl16	r16,0x1a6c
    747c:	0d 60 02 03 	wh16	r16,0x3
    7480:	10 40 02 10 	ld32	r16,r16
    7484:	0d 45 7d 2c 	wl16	r9,0x2bec
    7488:	0d 60 01 23 	wh16	r9,0x3
    748c:	10 40 01 29 	ld32	r9,r9
    7490:	00 00 01 10 	add	r8,r16
    7494:	20 70 03 e2 	movepc	rret,8
    7498:	14 30 e2 de 	br	10 <compare>,#al
    749c:	00 10 00 41 	add	r2,1
    74a0:	0d 41 1d 10 	wl16	r8,0x8f0
    74a4:	0d 60 01 03 	wh16	r8,0x3
    74a8:	10 40 01 08 	ld32	r8,r8
    74ac:	0d 43 4e 10 	wl16	r16,0x1a70
    74b0:	0d 60 02 03 	wh16	r16,0x3
    74b4:	10 40 02 10 	ld32	r16,r16
    74b8:	0d 45 7d 30 	wl16	r9,0x2bf0
    74bc:	0d 60 01 23 	wh16	r9,0x3
    74c0:	10 40 01 29 	ld32	r9,r9
    74c4:	00 00 01 10 	add	r8,r16
    74c8:	20 70 03 e2 	movepc	rret,8
    74cc:	14 30 e2 d1 	br	10 <compare>,#al
    74d0:	00 10 00 41 	add	r2,1
    74d4:	0d 41 1d 14 	wl16	r8,0x8f4
    74d8:	0d 60 01 03 	wh16	r8,0x3
    74dc:	10 40 01 08 	ld32	r8,r8
    74e0:	0d 43 4e 14 	wl16	r16,0x1a74
    74e4:	0d 60 02 03 	wh16	r16,0x3
    74e8:	10 40 02 10 	ld32	r16,r16
    74ec:	0d 45 7d 34 	wl16	r9,0x2bf4
    74f0:	0d 60 01 23 	wh16	r9,0x3
    74f4:	10 40 01 29 	ld32	r9,r9
    74f8:	00 00 01 10 	add	r8,r16
    74fc:	20 70 03 e2 	movepc	rret,8
    7500:	14 30 e2 c4 	br	10 <compare>,#al
    7504:	00 10 00 41 	add	r2,1
    7508:	0d 41 1d 18 	wl16	r8,0x8f8
    750c:	0d 60 01 03 	wh16	r8,0x3
    7510:	10 40 01 08 	ld32	r8,r8
    7514:	0d 43 4e 18 	wl16	r16,0x1a78
    7518:	0d 60 02 03 	wh16	r16,0x3
    751c:	10 40 02 10 	ld32	r16,r16
    7520:	0d 45 7d 38 	wl16	r9,0x2bf8
    7524:	0d 60 01 23 	wh16	r9,0x3
    7528:	10 40 01 29 	ld32	r9,r9
    752c:	00 00 01 10 	add	r8,r16
    7530:	20 70 03 e2 	movepc	rret,8
    7534:	14 30 e2 b7 	br	10 <compare>,#al
    7538:	00 10 00 41 	add	r2,1
    753c:	0d 41 1d 1c 	wl16	r8,0x8fc
    7540:	0d 60 01 03 	wh16	r8,0x3
    7544:	10 40 01 08 	ld32	r8,r8
    7548:	0d 43 4e 1c 	wl16	r16,0x1a7c
    754c:	0d 60 02 03 	wh16	r16,0x3
    7550:	10 40 02 10 	ld32	r16,r16
    7554:	0d 45 7d 3c 	wl16	r9,0x2bfc
    7558:	0d 60 01 23 	wh16	r9,0x3
    755c:	10 40 01 29 	ld32	r9,r9
    7560:	00 00 01 10 	add	r8,r16
    7564:	20 70 03 e2 	movepc	rret,8
    7568:	14 30 e2 aa 	br	10 <compare>,#al
    756c:	00 10 00 41 	add	r2,1
    7570:	0d 41 21 00 	wl16	r8,0x900
    7574:	0d 60 01 03 	wh16	r8,0x3
    7578:	10 40 01 08 	ld32	r8,r8
    757c:	0d 43 52 00 	wl16	r16,0x1a80
    7580:	0d 60 02 03 	wh16	r16,0x3
    7584:	10 40 02 10 	ld32	r16,r16
    7588:	0d 45 81 20 	wl16	r9,0x2c00
    758c:	0d 60 01 23 	wh16	r9,0x3
    7590:	10 40 01 29 	ld32	r9,r9
    7594:	00 00 01 10 	add	r8,r16
    7598:	20 70 03 e2 	movepc	rret,8
    759c:	14 30 e2 9d 	br	10 <compare>,#al
    75a0:	00 10 00 41 	add	r2,1
    75a4:	0d 41 21 04 	wl16	r8,0x904
    75a8:	0d 60 01 03 	wh16	r8,0x3
    75ac:	10 40 01 08 	ld32	r8,r8
    75b0:	0d 43 52 04 	wl16	r16,0x1a84
    75b4:	0d 60 02 03 	wh16	r16,0x3
    75b8:	10 40 02 10 	ld32	r16,r16
    75bc:	0d 45 81 24 	wl16	r9,0x2c04
    75c0:	0d 60 01 23 	wh16	r9,0x3
    75c4:	10 40 01 29 	ld32	r9,r9
    75c8:	00 00 01 10 	add	r8,r16
    75cc:	20 70 03 e2 	movepc	rret,8
    75d0:	14 30 e2 90 	br	10 <compare>,#al
    75d4:	00 10 00 41 	add	r2,1
    75d8:	0d 41 21 08 	wl16	r8,0x908
    75dc:	0d 60 01 03 	wh16	r8,0x3
    75e0:	10 40 01 08 	ld32	r8,r8
    75e4:	0d 43 52 08 	wl16	r16,0x1a88
    75e8:	0d 60 02 03 	wh16	r16,0x3
    75ec:	10 40 02 10 	ld32	r16,r16
    75f0:	0d 45 81 28 	wl16	r9,0x2c08
    75f4:	0d 60 01 23 	wh16	r9,0x3
    75f8:	10 40 01 29 	ld32	r9,r9
    75fc:	00 00 01 10 	add	r8,r16
    7600:	20 70 03 e2 	movepc	rret,8
    7604:	14 30 e2 83 	br	10 <compare>,#al
    7608:	00 10 00 41 	add	r2,1
    760c:	0d 41 21 0c 	wl16	r8,0x90c
    7610:	0d 60 01 03 	wh16	r8,0x3
    7614:	10 40 01 08 	ld32	r8,r8
    7618:	0d 43 52 0c 	wl16	r16,0x1a8c
    761c:	0d 60 02 03 	wh16	r16,0x3
    7620:	10 40 02 10 	ld32	r16,r16
    7624:	0d 45 81 2c 	wl16	r9,0x2c0c
    7628:	0d 60 01 23 	wh16	r9,0x3
    762c:	10 40 01 29 	ld32	r9,r9
    7630:	00 00 01 10 	add	r8,r16
    7634:	20 70 03 e2 	movepc	rret,8
    7638:	14 30 e2 76 	br	10 <compare>,#al
    763c:	00 10 00 41 	add	r2,1
    7640:	0d 41 21 10 	wl16	r8,0x910
    7644:	0d 60 01 03 	wh16	r8,0x3
    7648:	10 40 01 08 	ld32	r8,r8
    764c:	0d 43 52 10 	wl16	r16,0x1a90
    7650:	0d 60 02 03 	wh16	r16,0x3
    7654:	10 40 02 10 	ld32	r16,r16
    7658:	0d 45 81 30 	wl16	r9,0x2c10
    765c:	0d 60 01 23 	wh16	r9,0x3
    7660:	10 40 01 29 	ld32	r9,r9
    7664:	00 00 01 10 	add	r8,r16
    7668:	20 70 03 e2 	movepc	rret,8
    766c:	14 30 e2 69 	br	10 <compare>,#al
    7670:	00 10 00 41 	add	r2,1
    7674:	0d 41 21 14 	wl16	r8,0x914
    7678:	0d 60 01 03 	wh16	r8,0x3
    767c:	10 40 01 08 	ld32	r8,r8
    7680:	0d 43 52 14 	wl16	r16,0x1a94
    7684:	0d 60 02 03 	wh16	r16,0x3
    7688:	10 40 02 10 	ld32	r16,r16
    768c:	0d 45 81 34 	wl16	r9,0x2c14
    7690:	0d 60 01 23 	wh16	r9,0x3
    7694:	10 40 01 29 	ld32	r9,r9
    7698:	00 00 01 10 	add	r8,r16
    769c:	20 70 03 e2 	movepc	rret,8
    76a0:	14 30 e2 5c 	br	10 <compare>,#al
    76a4:	00 10 00 41 	add	r2,1
    76a8:	0d 41 21 18 	wl16	r8,0x918
    76ac:	0d 60 01 03 	wh16	r8,0x3
    76b0:	10 40 01 08 	ld32	r8,r8
    76b4:	0d 43 52 18 	wl16	r16,0x1a98
    76b8:	0d 60 02 03 	wh16	r16,0x3
    76bc:	10 40 02 10 	ld32	r16,r16
    76c0:	0d 45 81 38 	wl16	r9,0x2c18
    76c4:	0d 60 01 23 	wh16	r9,0x3
    76c8:	10 40 01 29 	ld32	r9,r9
    76cc:	00 00 01 10 	add	r8,r16
    76d0:	20 70 03 e2 	movepc	rret,8
    76d4:	14 30 e2 4f 	br	10 <compare>,#al
    76d8:	00 10 00 41 	add	r2,1
    76dc:	0d 41 21 1c 	wl16	r8,0x91c
    76e0:	0d 60 01 03 	wh16	r8,0x3
    76e4:	10 40 01 08 	ld32	r8,r8
    76e8:	0d 43 52 1c 	wl16	r16,0x1a9c
    76ec:	0d 60 02 03 	wh16	r16,0x3
    76f0:	10 40 02 10 	ld32	r16,r16
    76f4:	0d 45 81 3c 	wl16	r9,0x2c1c
    76f8:	0d 60 01 23 	wh16	r9,0x3
    76fc:	10 40 01 29 	ld32	r9,r9
    7700:	00 00 01 10 	add	r8,r16
    7704:	20 70 03 e2 	movepc	rret,8
    7708:	14 30 e2 42 	br	10 <compare>,#al
    770c:	00 10 00 41 	add	r2,1
    7710:	0d 41 25 00 	wl16	r8,0x920
    7714:	0d 60 01 03 	wh16	r8,0x3
    7718:	10 40 01 08 	ld32	r8,r8
    771c:	0d 43 56 00 	wl16	r16,0x1aa0
    7720:	0d 60 02 03 	wh16	r16,0x3
    7724:	10 40 02 10 	ld32	r16,r16
    7728:	0d 45 85 20 	wl16	r9,0x2c20
    772c:	0d 60 01 23 	wh16	r9,0x3
    7730:	10 40 01 29 	ld32	r9,r9
    7734:	00 00 01 10 	add	r8,r16
    7738:	20 70 03 e2 	movepc	rret,8
    773c:	14 30 e2 35 	br	10 <compare>,#al
    7740:	00 10 00 41 	add	r2,1
    7744:	0d 41 25 04 	wl16	r8,0x924
    7748:	0d 60 01 03 	wh16	r8,0x3
    774c:	10 40 01 08 	ld32	r8,r8
    7750:	0d 43 56 04 	wl16	r16,0x1aa4
    7754:	0d 60 02 03 	wh16	r16,0x3
    7758:	10 40 02 10 	ld32	r16,r16
    775c:	0d 45 85 24 	wl16	r9,0x2c24
    7760:	0d 60 01 23 	wh16	r9,0x3
    7764:	10 40 01 29 	ld32	r9,r9
    7768:	00 00 01 10 	add	r8,r16
    776c:	20 70 03 e2 	movepc	rret,8
    7770:	14 30 e2 28 	br	10 <compare>,#al
    7774:	00 10 00 41 	add	r2,1
    7778:	0d 41 25 08 	wl16	r8,0x928
    777c:	0d 60 01 03 	wh16	r8,0x3
    7780:	10 40 01 08 	ld32	r8,r8
    7784:	0d 43 56 08 	wl16	r16,0x1aa8
    7788:	0d 60 02 03 	wh16	r16,0x3
    778c:	10 40 02 10 	ld32	r16,r16
    7790:	0d 45 85 28 	wl16	r9,0x2c28
    7794:	0d 60 01 23 	wh16	r9,0x3
    7798:	10 40 01 29 	ld32	r9,r9
    779c:	00 00 01 10 	add	r8,r16
    77a0:	20 70 03 e2 	movepc	rret,8
    77a4:	14 30 e2 1b 	br	10 <compare>,#al
    77a8:	00 10 00 41 	add	r2,1
    77ac:	0d 41 25 0c 	wl16	r8,0x92c
    77b0:	0d 60 01 03 	wh16	r8,0x3
    77b4:	10 40 01 08 	ld32	r8,r8
    77b8:	0d 43 56 0c 	wl16	r16,0x1aac
    77bc:	0d 60 02 03 	wh16	r16,0x3
    77c0:	10 40 02 10 	ld32	r16,r16
    77c4:	0d 45 85 2c 	wl16	r9,0x2c2c
    77c8:	0d 60 01 23 	wh16	r9,0x3
    77cc:	10 40 01 29 	ld32	r9,r9
    77d0:	00 00 01 10 	add	r8,r16
    77d4:	20 70 03 e2 	movepc	rret,8
    77d8:	14 30 e2 0e 	br	10 <compare>,#al
    77dc:	00 10 00 41 	add	r2,1
    77e0:	0d 41 25 10 	wl16	r8,0x930
    77e4:	0d 60 01 03 	wh16	r8,0x3
    77e8:	10 40 01 08 	ld32	r8,r8
    77ec:	0d 43 56 10 	wl16	r16,0x1ab0
    77f0:	0d 60 02 03 	wh16	r16,0x3
    77f4:	10 40 02 10 	ld32	r16,r16
    77f8:	0d 45 85 30 	wl16	r9,0x2c30
    77fc:	0d 60 01 23 	wh16	r9,0x3
    7800:	10 40 01 29 	ld32	r9,r9
    7804:	00 00 01 10 	add	r8,r16
    7808:	20 70 03 e2 	movepc	rret,8
    780c:	14 30 e2 01 	br	10 <compare>,#al
    7810:	00 10 00 41 	add	r2,1
    7814:	0d 41 25 14 	wl16	r8,0x934
    7818:	0d 60 01 03 	wh16	r8,0x3
    781c:	10 40 01 08 	ld32	r8,r8
    7820:	0d 43 56 14 	wl16	r16,0x1ab4
    7824:	0d 60 02 03 	wh16	r16,0x3
    7828:	10 40 02 10 	ld32	r16,r16
    782c:	0d 45 85 34 	wl16	r9,0x2c34
    7830:	0d 60 01 23 	wh16	r9,0x3
    7834:	10 40 01 29 	ld32	r9,r9
    7838:	00 00 01 10 	add	r8,r16
    783c:	20 70 03 e2 	movepc	rret,8
    7840:	14 30 e1 f4 	br	10 <compare>,#al
    7844:	00 10 00 41 	add	r2,1
    7848:	0d 41 25 18 	wl16	r8,0x938
    784c:	0d 60 01 03 	wh16	r8,0x3
    7850:	10 40 01 08 	ld32	r8,r8
    7854:	0d 43 56 18 	wl16	r16,0x1ab8
    7858:	0d 60 02 03 	wh16	r16,0x3
    785c:	10 40 02 10 	ld32	r16,r16
    7860:	0d 45 85 38 	wl16	r9,0x2c38
    7864:	0d 60 01 23 	wh16	r9,0x3
    7868:	10 40 01 29 	ld32	r9,r9
    786c:	00 00 01 10 	add	r8,r16
    7870:	20 70 03 e2 	movepc	rret,8
    7874:	14 30 e1 e7 	br	10 <compare>,#al
    7878:	00 10 00 41 	add	r2,1
    787c:	0d 41 25 1c 	wl16	r8,0x93c
    7880:	0d 60 01 03 	wh16	r8,0x3
    7884:	10 40 01 08 	ld32	r8,r8
    7888:	0d 43 56 1c 	wl16	r16,0x1abc
    788c:	0d 60 02 03 	wh16	r16,0x3
    7890:	10 40 02 10 	ld32	r16,r16
    7894:	0d 45 85 3c 	wl16	r9,0x2c3c
    7898:	0d 60 01 23 	wh16	r9,0x3
    789c:	10 40 01 29 	ld32	r9,r9
    78a0:	00 00 01 10 	add	r8,r16
    78a4:	20 70 03 e2 	movepc	rret,8
    78a8:	14 30 e1 da 	br	10 <compare>,#al
    78ac:	00 10 00 41 	add	r2,1
    78b0:	0d 41 29 00 	wl16	r8,0x940
    78b4:	0d 60 01 03 	wh16	r8,0x3
    78b8:	10 40 01 08 	ld32	r8,r8
    78bc:	0d 43 5a 00 	wl16	r16,0x1ac0
    78c0:	0d 60 02 03 	wh16	r16,0x3
    78c4:	10 40 02 10 	ld32	r16,r16
    78c8:	0d 45 89 20 	wl16	r9,0x2c40
    78cc:	0d 60 01 23 	wh16	r9,0x3
    78d0:	10 40 01 29 	ld32	r9,r9
    78d4:	00 00 01 10 	add	r8,r16
    78d8:	20 70 03 e2 	movepc	rret,8
    78dc:	14 30 e1 cd 	br	10 <compare>,#al
    78e0:	00 10 00 41 	add	r2,1
    78e4:	0d 41 29 04 	wl16	r8,0x944
    78e8:	0d 60 01 03 	wh16	r8,0x3
    78ec:	10 40 01 08 	ld32	r8,r8
    78f0:	0d 43 5a 04 	wl16	r16,0x1ac4
    78f4:	0d 60 02 03 	wh16	r16,0x3
    78f8:	10 40 02 10 	ld32	r16,r16
    78fc:	0d 45 89 24 	wl16	r9,0x2c44
    7900:	0d 60 01 23 	wh16	r9,0x3
    7904:	10 40 01 29 	ld32	r9,r9
    7908:	00 00 01 10 	add	r8,r16
    790c:	20 70 03 e2 	movepc	rret,8
    7910:	14 30 e1 c0 	br	10 <compare>,#al
    7914:	00 10 00 41 	add	r2,1
    7918:	0d 41 29 08 	wl16	r8,0x948
    791c:	0d 60 01 03 	wh16	r8,0x3
    7920:	10 40 01 08 	ld32	r8,r8
    7924:	0d 43 5a 08 	wl16	r16,0x1ac8
    7928:	0d 60 02 03 	wh16	r16,0x3
    792c:	10 40 02 10 	ld32	r16,r16
    7930:	0d 45 89 28 	wl16	r9,0x2c48
    7934:	0d 60 01 23 	wh16	r9,0x3
    7938:	10 40 01 29 	ld32	r9,r9
    793c:	00 00 01 10 	add	r8,r16
    7940:	20 70 03 e2 	movepc	rret,8
    7944:	14 30 e1 b3 	br	10 <compare>,#al
    7948:	00 10 00 41 	add	r2,1
    794c:	0d 41 29 0c 	wl16	r8,0x94c
    7950:	0d 60 01 03 	wh16	r8,0x3
    7954:	10 40 01 08 	ld32	r8,r8
    7958:	0d 43 5a 0c 	wl16	r16,0x1acc
    795c:	0d 60 02 03 	wh16	r16,0x3
    7960:	10 40 02 10 	ld32	r16,r16
    7964:	0d 45 89 2c 	wl16	r9,0x2c4c
    7968:	0d 60 01 23 	wh16	r9,0x3
    796c:	10 40 01 29 	ld32	r9,r9
    7970:	00 00 01 10 	add	r8,r16
    7974:	20 70 03 e2 	movepc	rret,8
    7978:	14 30 e1 a6 	br	10 <compare>,#al
    797c:	00 10 00 41 	add	r2,1
    7980:	0d 41 29 10 	wl16	r8,0x950
    7984:	0d 60 01 03 	wh16	r8,0x3
    7988:	10 40 01 08 	ld32	r8,r8
    798c:	0d 43 5a 10 	wl16	r16,0x1ad0
    7990:	0d 60 02 03 	wh16	r16,0x3
    7994:	10 40 02 10 	ld32	r16,r16
    7998:	0d 45 89 30 	wl16	r9,0x2c50
    799c:	0d 60 01 23 	wh16	r9,0x3
    79a0:	10 40 01 29 	ld32	r9,r9
    79a4:	00 00 01 10 	add	r8,r16
    79a8:	20 70 03 e2 	movepc	rret,8
    79ac:	14 30 e1 99 	br	10 <compare>,#al
    79b0:	00 10 00 41 	add	r2,1
    79b4:	0d 41 29 14 	wl16	r8,0x954
    79b8:	0d 60 01 03 	wh16	r8,0x3
    79bc:	10 40 01 08 	ld32	r8,r8
    79c0:	0d 43 5a 14 	wl16	r16,0x1ad4
    79c4:	0d 60 02 03 	wh16	r16,0x3
    79c8:	10 40 02 10 	ld32	r16,r16
    79cc:	0d 45 89 34 	wl16	r9,0x2c54
    79d0:	0d 60 01 23 	wh16	r9,0x3
    79d4:	10 40 01 29 	ld32	r9,r9
    79d8:	00 00 01 10 	add	r8,r16
    79dc:	20 70 03 e2 	movepc	rret,8
    79e0:	14 30 e1 8c 	br	10 <compare>,#al
    79e4:	00 10 00 41 	add	r2,1
    79e8:	0d 41 29 18 	wl16	r8,0x958
    79ec:	0d 60 01 03 	wh16	r8,0x3
    79f0:	10 40 01 08 	ld32	r8,r8
    79f4:	0d 43 5a 18 	wl16	r16,0x1ad8
    79f8:	0d 60 02 03 	wh16	r16,0x3
    79fc:	10 40 02 10 	ld32	r16,r16
    7a00:	0d 45 89 38 	wl16	r9,0x2c58
    7a04:	0d 60 01 23 	wh16	r9,0x3
    7a08:	10 40 01 29 	ld32	r9,r9
    7a0c:	00 00 01 10 	add	r8,r16
    7a10:	20 70 03 e2 	movepc	rret,8
    7a14:	14 30 e1 7f 	br	10 <compare>,#al
    7a18:	00 10 00 41 	add	r2,1
    7a1c:	0d 41 29 1c 	wl16	r8,0x95c
    7a20:	0d 60 01 03 	wh16	r8,0x3
    7a24:	10 40 01 08 	ld32	r8,r8
    7a28:	0d 43 5a 1c 	wl16	r16,0x1adc
    7a2c:	0d 60 02 03 	wh16	r16,0x3
    7a30:	10 40 02 10 	ld32	r16,r16
    7a34:	0d 45 89 3c 	wl16	r9,0x2c5c
    7a38:	0d 60 01 23 	wh16	r9,0x3
    7a3c:	10 40 01 29 	ld32	r9,r9
    7a40:	00 00 01 10 	add	r8,r16
    7a44:	20 70 03 e2 	movepc	rret,8
    7a48:	14 30 e1 72 	br	10 <compare>,#al
    7a4c:	00 10 00 41 	add	r2,1
    7a50:	0d 41 2d 00 	wl16	r8,0x960
    7a54:	0d 60 01 03 	wh16	r8,0x3
    7a58:	10 40 01 08 	ld32	r8,r8
    7a5c:	0d 43 5e 00 	wl16	r16,0x1ae0
    7a60:	0d 60 02 03 	wh16	r16,0x3
    7a64:	10 40 02 10 	ld32	r16,r16
    7a68:	0d 45 8d 20 	wl16	r9,0x2c60
    7a6c:	0d 60 01 23 	wh16	r9,0x3
    7a70:	10 40 01 29 	ld32	r9,r9
    7a74:	00 00 01 10 	add	r8,r16
    7a78:	20 70 03 e2 	movepc	rret,8
    7a7c:	14 30 e1 65 	br	10 <compare>,#al
    7a80:	00 10 00 41 	add	r2,1
    7a84:	0d 41 2d 04 	wl16	r8,0x964
    7a88:	0d 60 01 03 	wh16	r8,0x3
    7a8c:	10 40 01 08 	ld32	r8,r8
    7a90:	0d 43 5e 04 	wl16	r16,0x1ae4
    7a94:	0d 60 02 03 	wh16	r16,0x3
    7a98:	10 40 02 10 	ld32	r16,r16
    7a9c:	0d 45 8d 24 	wl16	r9,0x2c64
    7aa0:	0d 60 01 23 	wh16	r9,0x3
    7aa4:	10 40 01 29 	ld32	r9,r9
    7aa8:	00 00 01 10 	add	r8,r16
    7aac:	20 70 03 e2 	movepc	rret,8
    7ab0:	14 30 e1 58 	br	10 <compare>,#al
    7ab4:	00 10 00 41 	add	r2,1
    7ab8:	0d 41 2d 08 	wl16	r8,0x968
    7abc:	0d 60 01 03 	wh16	r8,0x3
    7ac0:	10 40 01 08 	ld32	r8,r8
    7ac4:	0d 43 5e 08 	wl16	r16,0x1ae8
    7ac8:	0d 60 02 03 	wh16	r16,0x3
    7acc:	10 40 02 10 	ld32	r16,r16
    7ad0:	0d 45 8d 28 	wl16	r9,0x2c68
    7ad4:	0d 60 01 23 	wh16	r9,0x3
    7ad8:	10 40 01 29 	ld32	r9,r9
    7adc:	00 00 01 10 	add	r8,r16
    7ae0:	20 70 03 e2 	movepc	rret,8
    7ae4:	14 30 e1 4b 	br	10 <compare>,#al
    7ae8:	00 10 00 41 	add	r2,1
    7aec:	0d 41 2d 0c 	wl16	r8,0x96c
    7af0:	0d 60 01 03 	wh16	r8,0x3
    7af4:	10 40 01 08 	ld32	r8,r8
    7af8:	0d 43 5e 0c 	wl16	r16,0x1aec
    7afc:	0d 60 02 03 	wh16	r16,0x3
    7b00:	10 40 02 10 	ld32	r16,r16
    7b04:	0d 45 8d 2c 	wl16	r9,0x2c6c
    7b08:	0d 60 01 23 	wh16	r9,0x3
    7b0c:	10 40 01 29 	ld32	r9,r9
    7b10:	00 00 01 10 	add	r8,r16
    7b14:	20 70 03 e2 	movepc	rret,8
    7b18:	14 30 e1 3e 	br	10 <compare>,#al
    7b1c:	00 10 00 41 	add	r2,1
    7b20:	0d 41 2d 10 	wl16	r8,0x970
    7b24:	0d 60 01 03 	wh16	r8,0x3
    7b28:	10 40 01 08 	ld32	r8,r8
    7b2c:	0d 43 5e 10 	wl16	r16,0x1af0
    7b30:	0d 60 02 03 	wh16	r16,0x3
    7b34:	10 40 02 10 	ld32	r16,r16
    7b38:	0d 45 8d 30 	wl16	r9,0x2c70
    7b3c:	0d 60 01 23 	wh16	r9,0x3
    7b40:	10 40 01 29 	ld32	r9,r9
    7b44:	00 00 01 10 	add	r8,r16
    7b48:	20 70 03 e2 	movepc	rret,8
    7b4c:	14 30 e1 31 	br	10 <compare>,#al
    7b50:	00 10 00 41 	add	r2,1
    7b54:	0d 41 2d 14 	wl16	r8,0x974
    7b58:	0d 60 01 03 	wh16	r8,0x3
    7b5c:	10 40 01 08 	ld32	r8,r8
    7b60:	0d 43 5e 14 	wl16	r16,0x1af4
    7b64:	0d 60 02 03 	wh16	r16,0x3
    7b68:	10 40 02 10 	ld32	r16,r16
    7b6c:	0d 45 8d 34 	wl16	r9,0x2c74
    7b70:	0d 60 01 23 	wh16	r9,0x3
    7b74:	10 40 01 29 	ld32	r9,r9
    7b78:	00 00 01 10 	add	r8,r16
    7b7c:	20 70 03 e2 	movepc	rret,8
    7b80:	14 30 e1 24 	br	10 <compare>,#al
    7b84:	00 10 00 41 	add	r2,1
    7b88:	0d 41 2d 18 	wl16	r8,0x978
    7b8c:	0d 60 01 03 	wh16	r8,0x3
    7b90:	10 40 01 08 	ld32	r8,r8
    7b94:	0d 43 5e 18 	wl16	r16,0x1af8
    7b98:	0d 60 02 03 	wh16	r16,0x3
    7b9c:	10 40 02 10 	ld32	r16,r16
    7ba0:	0d 45 8d 38 	wl16	r9,0x2c78
    7ba4:	0d 60 01 23 	wh16	r9,0x3
    7ba8:	10 40 01 29 	ld32	r9,r9
    7bac:	00 00 01 10 	add	r8,r16
    7bb0:	20 70 03 e2 	movepc	rret,8
    7bb4:	14 30 e1 17 	br	10 <compare>,#al
    7bb8:	00 10 00 41 	add	r2,1
    7bbc:	0d 41 2d 1c 	wl16	r8,0x97c
    7bc0:	0d 60 01 03 	wh16	r8,0x3
    7bc4:	10 40 01 08 	ld32	r8,r8
    7bc8:	0d 43 5e 1c 	wl16	r16,0x1afc
    7bcc:	0d 60 02 03 	wh16	r16,0x3
    7bd0:	10 40 02 10 	ld32	r16,r16
    7bd4:	0d 45 8d 3c 	wl16	r9,0x2c7c
    7bd8:	0d 60 01 23 	wh16	r9,0x3
    7bdc:	10 40 01 29 	ld32	r9,r9
    7be0:	00 00 01 10 	add	r8,r16
    7be4:	20 70 03 e2 	movepc	rret,8
    7be8:	14 30 e1 0a 	br	10 <compare>,#al
    7bec:	00 10 00 41 	add	r2,1
    7bf0:	0d 41 31 00 	wl16	r8,0x980
    7bf4:	0d 60 01 03 	wh16	r8,0x3
    7bf8:	10 40 01 08 	ld32	r8,r8
    7bfc:	0d 43 62 00 	wl16	r16,0x1b00
    7c00:	0d 60 02 03 	wh16	r16,0x3
    7c04:	10 40 02 10 	ld32	r16,r16
    7c08:	0d 45 91 20 	wl16	r9,0x2c80
    7c0c:	0d 60 01 23 	wh16	r9,0x3
    7c10:	10 40 01 29 	ld32	r9,r9
    7c14:	00 00 01 10 	add	r8,r16
    7c18:	20 70 03 e2 	movepc	rret,8
    7c1c:	14 30 e0 fd 	br	10 <compare>,#al
    7c20:	00 10 00 41 	add	r2,1
    7c24:	0d 41 31 04 	wl16	r8,0x984
    7c28:	0d 60 01 03 	wh16	r8,0x3
    7c2c:	10 40 01 08 	ld32	r8,r8
    7c30:	0d 43 62 04 	wl16	r16,0x1b04
    7c34:	0d 60 02 03 	wh16	r16,0x3
    7c38:	10 40 02 10 	ld32	r16,r16
    7c3c:	0d 45 91 24 	wl16	r9,0x2c84
    7c40:	0d 60 01 23 	wh16	r9,0x3
    7c44:	10 40 01 29 	ld32	r9,r9
    7c48:	00 00 01 10 	add	r8,r16
    7c4c:	20 70 03 e2 	movepc	rret,8
    7c50:	14 30 e0 f0 	br	10 <compare>,#al
    7c54:	00 10 00 41 	add	r2,1
    7c58:	0d 41 31 08 	wl16	r8,0x988
    7c5c:	0d 60 01 03 	wh16	r8,0x3
    7c60:	10 40 01 08 	ld32	r8,r8
    7c64:	0d 43 62 08 	wl16	r16,0x1b08
    7c68:	0d 60 02 03 	wh16	r16,0x3
    7c6c:	10 40 02 10 	ld32	r16,r16
    7c70:	0d 45 91 28 	wl16	r9,0x2c88
    7c74:	0d 60 01 23 	wh16	r9,0x3
    7c78:	10 40 01 29 	ld32	r9,r9
    7c7c:	00 00 01 10 	add	r8,r16
    7c80:	20 70 03 e2 	movepc	rret,8
    7c84:	14 30 e0 e3 	br	10 <compare>,#al
    7c88:	00 10 00 41 	add	r2,1
    7c8c:	0d 41 31 0c 	wl16	r8,0x98c
    7c90:	0d 60 01 03 	wh16	r8,0x3
    7c94:	10 40 01 08 	ld32	r8,r8
    7c98:	0d 43 62 0c 	wl16	r16,0x1b0c
    7c9c:	0d 60 02 03 	wh16	r16,0x3
    7ca0:	10 40 02 10 	ld32	r16,r16
    7ca4:	0d 45 91 2c 	wl16	r9,0x2c8c
    7ca8:	0d 60 01 23 	wh16	r9,0x3
    7cac:	10 40 01 29 	ld32	r9,r9
    7cb0:	00 00 01 10 	add	r8,r16
    7cb4:	20 70 03 e2 	movepc	rret,8
    7cb8:	14 30 e0 d6 	br	10 <compare>,#al
    7cbc:	00 10 00 41 	add	r2,1
    7cc0:	0d 41 31 10 	wl16	r8,0x990
    7cc4:	0d 60 01 03 	wh16	r8,0x3
    7cc8:	10 40 01 08 	ld32	r8,r8
    7ccc:	0d 43 62 10 	wl16	r16,0x1b10
    7cd0:	0d 60 02 03 	wh16	r16,0x3
    7cd4:	10 40 02 10 	ld32	r16,r16
    7cd8:	0d 45 91 30 	wl16	r9,0x2c90
    7cdc:	0d 60 01 23 	wh16	r9,0x3
    7ce0:	10 40 01 29 	ld32	r9,r9
    7ce4:	00 00 01 10 	add	r8,r16
    7ce8:	20 70 03 e2 	movepc	rret,8
    7cec:	14 30 e0 c9 	br	10 <compare>,#al
    7cf0:	00 10 00 41 	add	r2,1
    7cf4:	0d 41 31 14 	wl16	r8,0x994
    7cf8:	0d 60 01 03 	wh16	r8,0x3
    7cfc:	10 40 01 08 	ld32	r8,r8
    7d00:	0d 43 62 14 	wl16	r16,0x1b14
    7d04:	0d 60 02 03 	wh16	r16,0x3
    7d08:	10 40 02 10 	ld32	r16,r16
    7d0c:	0d 45 91 34 	wl16	r9,0x2c94
    7d10:	0d 60 01 23 	wh16	r9,0x3
    7d14:	10 40 01 29 	ld32	r9,r9
    7d18:	00 00 01 10 	add	r8,r16
    7d1c:	20 70 03 e2 	movepc	rret,8
    7d20:	14 30 e0 bc 	br	10 <compare>,#al
    7d24:	00 10 00 41 	add	r2,1
    7d28:	0d 41 31 18 	wl16	r8,0x998
    7d2c:	0d 60 01 03 	wh16	r8,0x3
    7d30:	10 40 01 08 	ld32	r8,r8
    7d34:	0d 43 62 18 	wl16	r16,0x1b18
    7d38:	0d 60 02 03 	wh16	r16,0x3
    7d3c:	10 40 02 10 	ld32	r16,r16
    7d40:	0d 45 91 38 	wl16	r9,0x2c98
    7d44:	0d 60 01 23 	wh16	r9,0x3
    7d48:	10 40 01 29 	ld32	r9,r9
    7d4c:	00 00 01 10 	add	r8,r16
    7d50:	20 70 03 e2 	movepc	rret,8
    7d54:	14 30 e0 af 	br	10 <compare>,#al
    7d58:	00 10 00 41 	add	r2,1
    7d5c:	0d 41 31 1c 	wl16	r8,0x99c
    7d60:	0d 60 01 03 	wh16	r8,0x3
    7d64:	10 40 01 08 	ld32	r8,r8
    7d68:	0d 43 62 1c 	wl16	r16,0x1b1c
    7d6c:	0d 60 02 03 	wh16	r16,0x3
    7d70:	10 40 02 10 	ld32	r16,r16
    7d74:	0d 45 91 3c 	wl16	r9,0x2c9c
    7d78:	0d 60 01 23 	wh16	r9,0x3
    7d7c:	10 40 01 29 	ld32	r9,r9
    7d80:	00 00 01 10 	add	r8,r16
    7d84:	20 70 03 e2 	movepc	rret,8
    7d88:	14 30 e0 a2 	br	10 <compare>,#al
    7d8c:	00 10 00 41 	add	r2,1
    7d90:	0d 41 35 00 	wl16	r8,0x9a0
    7d94:	0d 60 01 03 	wh16	r8,0x3
    7d98:	10 40 01 08 	ld32	r8,r8
    7d9c:	0d 43 66 00 	wl16	r16,0x1b20
    7da0:	0d 60 02 03 	wh16	r16,0x3
    7da4:	10 40 02 10 	ld32	r16,r16
    7da8:	0d 45 95 20 	wl16	r9,0x2ca0
    7dac:	0d 60 01 23 	wh16	r9,0x3
    7db0:	10 40 01 29 	ld32	r9,r9
    7db4:	00 00 01 10 	add	r8,r16
    7db8:	20 70 03 e2 	movepc	rret,8
    7dbc:	14 30 e0 95 	br	10 <compare>,#al
    7dc0:	00 10 00 41 	add	r2,1
    7dc4:	0d 41 35 04 	wl16	r8,0x9a4
    7dc8:	0d 60 01 03 	wh16	r8,0x3
    7dcc:	10 40 01 08 	ld32	r8,r8
    7dd0:	0d 43 66 04 	wl16	r16,0x1b24
    7dd4:	0d 60 02 03 	wh16	r16,0x3
    7dd8:	10 40 02 10 	ld32	r16,r16
    7ddc:	0d 45 95 24 	wl16	r9,0x2ca4
    7de0:	0d 60 01 23 	wh16	r9,0x3
    7de4:	10 40 01 29 	ld32	r9,r9
    7de8:	00 00 01 10 	add	r8,r16
    7dec:	20 70 03 e2 	movepc	rret,8
    7df0:	14 30 e0 88 	br	10 <compare>,#al
    7df4:	00 10 00 41 	add	r2,1
    7df8:	0d 41 35 08 	wl16	r8,0x9a8
    7dfc:	0d 60 01 03 	wh16	r8,0x3
    7e00:	10 40 01 08 	ld32	r8,r8
    7e04:	0d 43 66 08 	wl16	r16,0x1b28
    7e08:	0d 60 02 03 	wh16	r16,0x3
    7e0c:	10 40 02 10 	ld32	r16,r16
    7e10:	0d 45 95 28 	wl16	r9,0x2ca8
    7e14:	0d 60 01 23 	wh16	r9,0x3
    7e18:	10 40 01 29 	ld32	r9,r9
    7e1c:	00 00 01 10 	add	r8,r16
    7e20:	20 70 03 e2 	movepc	rret,8
    7e24:	14 30 e0 7b 	br	10 <compare>,#al
    7e28:	00 10 00 41 	add	r2,1
    7e2c:	0d 41 35 0c 	wl16	r8,0x9ac
    7e30:	0d 60 01 03 	wh16	r8,0x3
    7e34:	10 40 01 08 	ld32	r8,r8
    7e38:	0d 43 66 0c 	wl16	r16,0x1b2c
    7e3c:	0d 60 02 03 	wh16	r16,0x3
    7e40:	10 40 02 10 	ld32	r16,r16
    7e44:	0d 45 95 2c 	wl16	r9,0x2cac
    7e48:	0d 60 01 23 	wh16	r9,0x3
    7e4c:	10 40 01 29 	ld32	r9,r9
    7e50:	00 00 01 10 	add	r8,r16
    7e54:	20 70 03 e2 	movepc	rret,8
    7e58:	14 30 e0 6e 	br	10 <compare>,#al
    7e5c:	00 10 00 41 	add	r2,1
    7e60:	0d 41 35 10 	wl16	r8,0x9b0
    7e64:	0d 60 01 03 	wh16	r8,0x3
    7e68:	10 40 01 08 	ld32	r8,r8
    7e6c:	0d 43 66 10 	wl16	r16,0x1b30
    7e70:	0d 60 02 03 	wh16	r16,0x3
    7e74:	10 40 02 10 	ld32	r16,r16
    7e78:	0d 45 95 30 	wl16	r9,0x2cb0
    7e7c:	0d 60 01 23 	wh16	r9,0x3
    7e80:	10 40 01 29 	ld32	r9,r9
    7e84:	00 00 01 10 	add	r8,r16
    7e88:	20 70 03 e2 	movepc	rret,8
    7e8c:	14 30 e0 61 	br	10 <compare>,#al
    7e90:	00 10 00 41 	add	r2,1
    7e94:	0d 41 35 14 	wl16	r8,0x9b4
    7e98:	0d 60 01 03 	wh16	r8,0x3
    7e9c:	10 40 01 08 	ld32	r8,r8
    7ea0:	0d 43 66 14 	wl16	r16,0x1b34
    7ea4:	0d 60 02 03 	wh16	r16,0x3
    7ea8:	10 40 02 10 	ld32	r16,r16
    7eac:	0d 45 95 34 	wl16	r9,0x2cb4
    7eb0:	0d 60 01 23 	wh16	r9,0x3
    7eb4:	10 40 01 29 	ld32	r9,r9
    7eb8:	00 00 01 10 	add	r8,r16
    7ebc:	20 70 03 e2 	movepc	rret,8
    7ec0:	14 30 e0 54 	br	10 <compare>,#al
    7ec4:	00 10 00 41 	add	r2,1
    7ec8:	0d 41 35 18 	wl16	r8,0x9b8
    7ecc:	0d 60 01 03 	wh16	r8,0x3
    7ed0:	10 40 01 08 	ld32	r8,r8
    7ed4:	0d 43 66 18 	wl16	r16,0x1b38
    7ed8:	0d 60 02 03 	wh16	r16,0x3
    7edc:	10 40 02 10 	ld32	r16,r16
    7ee0:	0d 45 95 38 	wl16	r9,0x2cb8
    7ee4:	0d 60 01 23 	wh16	r9,0x3
    7ee8:	10 40 01 29 	ld32	r9,r9
    7eec:	00 00 01 10 	add	r8,r16
    7ef0:	20 70 03 e2 	movepc	rret,8
    7ef4:	14 30 e0 47 	br	10 <compare>,#al
    7ef8:	00 10 00 41 	add	r2,1
    7efc:	0d 41 35 1c 	wl16	r8,0x9bc
    7f00:	0d 60 01 03 	wh16	r8,0x3
    7f04:	10 40 01 08 	ld32	r8,r8
    7f08:	0d 43 66 1c 	wl16	r16,0x1b3c
    7f0c:	0d 60 02 03 	wh16	r16,0x3
    7f10:	10 40 02 10 	ld32	r16,r16
    7f14:	0d 45 95 3c 	wl16	r9,0x2cbc
    7f18:	0d 60 01 23 	wh16	r9,0x3
    7f1c:	10 40 01 29 	ld32	r9,r9
    7f20:	00 00 01 10 	add	r8,r16
    7f24:	20 70 03 e2 	movepc	rret,8
    7f28:	14 30 e0 3a 	br	10 <compare>,#al
    7f2c:	00 10 00 41 	add	r2,1
    7f30:	0d 41 39 00 	wl16	r8,0x9c0
    7f34:	0d 60 01 03 	wh16	r8,0x3
    7f38:	10 40 01 08 	ld32	r8,r8
    7f3c:	0d 43 6a 00 	wl16	r16,0x1b40
    7f40:	0d 60 02 03 	wh16	r16,0x3
    7f44:	10 40 02 10 	ld32	r16,r16
    7f48:	0d 45 99 20 	wl16	r9,0x2cc0
    7f4c:	0d 60 01 23 	wh16	r9,0x3
    7f50:	10 40 01 29 	ld32	r9,r9
    7f54:	00 00 01 10 	add	r8,r16
    7f58:	20 70 03 e2 	movepc	rret,8
    7f5c:	14 30 e0 2d 	br	10 <compare>,#al
    7f60:	00 10 00 41 	add	r2,1
    7f64:	0d 41 39 04 	wl16	r8,0x9c4
    7f68:	0d 60 01 03 	wh16	r8,0x3
    7f6c:	10 40 01 08 	ld32	r8,r8
    7f70:	0d 43 6a 04 	wl16	r16,0x1b44
    7f74:	0d 60 02 03 	wh16	r16,0x3
    7f78:	10 40 02 10 	ld32	r16,r16
    7f7c:	0d 45 99 24 	wl16	r9,0x2cc4
    7f80:	0d 60 01 23 	wh16	r9,0x3
    7f84:	10 40 01 29 	ld32	r9,r9
    7f88:	00 00 01 10 	add	r8,r16
    7f8c:	20 70 03 e2 	movepc	rret,8
    7f90:	14 30 e0 20 	br	10 <compare>,#al
    7f94:	00 10 00 41 	add	r2,1
    7f98:	0d 41 39 08 	wl16	r8,0x9c8
    7f9c:	0d 60 01 03 	wh16	r8,0x3
    7fa0:	10 40 01 08 	ld32	r8,r8
    7fa4:	0d 43 6a 08 	wl16	r16,0x1b48
    7fa8:	0d 60 02 03 	wh16	r16,0x3
    7fac:	10 40 02 10 	ld32	r16,r16
    7fb0:	0d 45 99 28 	wl16	r9,0x2cc8
    7fb4:	0d 60 01 23 	wh16	r9,0x3
    7fb8:	10 40 01 29 	ld32	r9,r9
    7fbc:	00 00 01 10 	add	r8,r16
    7fc0:	20 70 03 e2 	movepc	rret,8
    7fc4:	14 30 e0 13 	br	10 <compare>,#al
    7fc8:	00 10 00 41 	add	r2,1
    7fcc:	0d 41 39 0c 	wl16	r8,0x9cc
    7fd0:	0d 60 01 03 	wh16	r8,0x3
    7fd4:	10 40 01 08 	ld32	r8,r8
    7fd8:	0d 43 6a 0c 	wl16	r16,0x1b4c
    7fdc:	0d 60 02 03 	wh16	r16,0x3
    7fe0:	10 40 02 10 	ld32	r16,r16
    7fe4:	0d 45 99 2c 	wl16	r9,0x2ccc
    7fe8:	0d 60 01 23 	wh16	r9,0x3
    7fec:	10 40 01 29 	ld32	r9,r9
    7ff0:	00 00 01 10 	add	r8,r16
    7ff4:	20 70 03 e2 	movepc	rret,8
    7ff8:	14 30 e0 06 	br	10 <compare>,#al
    7ffc:	00 10 00 41 	add	r2,1
    8000:	0d 41 39 10 	wl16	r8,0x9d0
    8004:	0d 60 01 03 	wh16	r8,0x3
    8008:	10 40 01 08 	ld32	r8,r8
    800c:	0d 43 6a 10 	wl16	r16,0x1b50
    8010:	0d 60 02 03 	wh16	r16,0x3
    8014:	10 40 02 10 	ld32	r16,r16
    8018:	0d 45 99 30 	wl16	r9,0x2cd0
    801c:	0d 60 01 23 	wh16	r9,0x3
    8020:	10 40 01 29 	ld32	r9,r9
    8024:	00 00 01 10 	add	r8,r16
    8028:	20 70 03 e2 	movepc	rret,8
    802c:	14 30 df f9 	br	10 <compare>,#al
    8030:	00 10 00 41 	add	r2,1
    8034:	0d 41 39 14 	wl16	r8,0x9d4
    8038:	0d 60 01 03 	wh16	r8,0x3
    803c:	10 40 01 08 	ld32	r8,r8
    8040:	0d 43 6a 14 	wl16	r16,0x1b54
    8044:	0d 60 02 03 	wh16	r16,0x3
    8048:	10 40 02 10 	ld32	r16,r16
    804c:	0d 45 99 34 	wl16	r9,0x2cd4
    8050:	0d 60 01 23 	wh16	r9,0x3
    8054:	10 40 01 29 	ld32	r9,r9
    8058:	00 00 01 10 	add	r8,r16
    805c:	20 70 03 e2 	movepc	rret,8
    8060:	14 30 df ec 	br	10 <compare>,#al
    8064:	00 10 00 41 	add	r2,1
    8068:	0d 41 39 18 	wl16	r8,0x9d8
    806c:	0d 60 01 03 	wh16	r8,0x3
    8070:	10 40 01 08 	ld32	r8,r8
    8074:	0d 43 6a 18 	wl16	r16,0x1b58
    8078:	0d 60 02 03 	wh16	r16,0x3
    807c:	10 40 02 10 	ld32	r16,r16
    8080:	0d 45 99 38 	wl16	r9,0x2cd8
    8084:	0d 60 01 23 	wh16	r9,0x3
    8088:	10 40 01 29 	ld32	r9,r9
    808c:	00 00 01 10 	add	r8,r16
    8090:	20 70 03 e2 	movepc	rret,8
    8094:	14 30 df df 	br	10 <compare>,#al
    8098:	00 10 00 41 	add	r2,1
    809c:	0d 41 39 1c 	wl16	r8,0x9dc
    80a0:	0d 60 01 03 	wh16	r8,0x3
    80a4:	10 40 01 08 	ld32	r8,r8
    80a8:	0d 43 6a 1c 	wl16	r16,0x1b5c
    80ac:	0d 60 02 03 	wh16	r16,0x3
    80b0:	10 40 02 10 	ld32	r16,r16
    80b4:	0d 45 99 3c 	wl16	r9,0x2cdc
    80b8:	0d 60 01 23 	wh16	r9,0x3
    80bc:	10 40 01 29 	ld32	r9,r9
    80c0:	00 00 01 10 	add	r8,r16
    80c4:	20 70 03 e2 	movepc	rret,8
    80c8:	14 30 df d2 	br	10 <compare>,#al
    80cc:	00 10 00 41 	add	r2,1
    80d0:	0d 41 3d 00 	wl16	r8,0x9e0
    80d4:	0d 60 01 03 	wh16	r8,0x3
    80d8:	10 40 01 08 	ld32	r8,r8
    80dc:	0d 43 6e 00 	wl16	r16,0x1b60
    80e0:	0d 60 02 03 	wh16	r16,0x3
    80e4:	10 40 02 10 	ld32	r16,r16
    80e8:	0d 45 9d 20 	wl16	r9,0x2ce0
    80ec:	0d 60 01 23 	wh16	r9,0x3
    80f0:	10 40 01 29 	ld32	r9,r9
    80f4:	00 00 01 10 	add	r8,r16
    80f8:	20 70 03 e2 	movepc	rret,8
    80fc:	14 30 df c5 	br	10 <compare>,#al
    8100:	00 10 00 41 	add	r2,1
    8104:	0d 41 3d 04 	wl16	r8,0x9e4
    8108:	0d 60 01 03 	wh16	r8,0x3
    810c:	10 40 01 08 	ld32	r8,r8
    8110:	0d 43 6e 04 	wl16	r16,0x1b64
    8114:	0d 60 02 03 	wh16	r16,0x3
    8118:	10 40 02 10 	ld32	r16,r16
    811c:	0d 45 9d 24 	wl16	r9,0x2ce4
    8120:	0d 60 01 23 	wh16	r9,0x3
    8124:	10 40 01 29 	ld32	r9,r9
    8128:	00 00 01 10 	add	r8,r16
    812c:	20 70 03 e2 	movepc	rret,8
    8130:	14 30 df b8 	br	10 <compare>,#al
    8134:	00 10 00 41 	add	r2,1
    8138:	0d 41 3d 08 	wl16	r8,0x9e8
    813c:	0d 60 01 03 	wh16	r8,0x3
    8140:	10 40 01 08 	ld32	r8,r8
    8144:	0d 43 6e 08 	wl16	r16,0x1b68
    8148:	0d 60 02 03 	wh16	r16,0x3
    814c:	10 40 02 10 	ld32	r16,r16
    8150:	0d 45 9d 28 	wl16	r9,0x2ce8
    8154:	0d 60 01 23 	wh16	r9,0x3
    8158:	10 40 01 29 	ld32	r9,r9
    815c:	00 00 01 10 	add	r8,r16
    8160:	20 70 03 e2 	movepc	rret,8
    8164:	14 30 df ab 	br	10 <compare>,#al
    8168:	00 10 00 41 	add	r2,1
    816c:	0d 41 3d 0c 	wl16	r8,0x9ec
    8170:	0d 60 01 03 	wh16	r8,0x3
    8174:	10 40 01 08 	ld32	r8,r8
    8178:	0d 43 6e 0c 	wl16	r16,0x1b6c
    817c:	0d 60 02 03 	wh16	r16,0x3
    8180:	10 40 02 10 	ld32	r16,r16
    8184:	0d 45 9d 2c 	wl16	r9,0x2cec
    8188:	0d 60 01 23 	wh16	r9,0x3
    818c:	10 40 01 29 	ld32	r9,r9
    8190:	00 00 01 10 	add	r8,r16
    8194:	20 70 03 e2 	movepc	rret,8
    8198:	14 30 df 9e 	br	10 <compare>,#al
    819c:	00 10 00 41 	add	r2,1
    81a0:	0d 41 3d 10 	wl16	r8,0x9f0
    81a4:	0d 60 01 03 	wh16	r8,0x3
    81a8:	10 40 01 08 	ld32	r8,r8
    81ac:	0d 43 6e 10 	wl16	r16,0x1b70
    81b0:	0d 60 02 03 	wh16	r16,0x3
    81b4:	10 40 02 10 	ld32	r16,r16
    81b8:	0d 45 9d 30 	wl16	r9,0x2cf0
    81bc:	0d 60 01 23 	wh16	r9,0x3
    81c0:	10 40 01 29 	ld32	r9,r9
    81c4:	00 00 01 10 	add	r8,r16
    81c8:	20 70 03 e2 	movepc	rret,8
    81cc:	14 30 df 91 	br	10 <compare>,#al
    81d0:	00 10 00 41 	add	r2,1
    81d4:	0d 41 3d 14 	wl16	r8,0x9f4
    81d8:	0d 60 01 03 	wh16	r8,0x3
    81dc:	10 40 01 08 	ld32	r8,r8
    81e0:	0d 43 6e 14 	wl16	r16,0x1b74
    81e4:	0d 60 02 03 	wh16	r16,0x3
    81e8:	10 40 02 10 	ld32	r16,r16
    81ec:	0d 45 9d 34 	wl16	r9,0x2cf4
    81f0:	0d 60 01 23 	wh16	r9,0x3
    81f4:	10 40 01 29 	ld32	r9,r9
    81f8:	00 00 01 10 	add	r8,r16
    81fc:	20 70 03 e2 	movepc	rret,8
    8200:	14 30 df 84 	br	10 <compare>,#al
    8204:	00 10 00 41 	add	r2,1
    8208:	0d 41 3d 18 	wl16	r8,0x9f8
    820c:	0d 60 01 03 	wh16	r8,0x3
    8210:	10 40 01 08 	ld32	r8,r8
    8214:	0d 43 6e 18 	wl16	r16,0x1b78
    8218:	0d 60 02 03 	wh16	r16,0x3
    821c:	10 40 02 10 	ld32	r16,r16
    8220:	0d 45 9d 38 	wl16	r9,0x2cf8
    8224:	0d 60 01 23 	wh16	r9,0x3
    8228:	10 40 01 29 	ld32	r9,r9
    822c:	00 00 01 10 	add	r8,r16
    8230:	20 70 03 e2 	movepc	rret,8
    8234:	14 30 df 77 	br	10 <compare>,#al
    8238:	00 10 00 41 	add	r2,1
    823c:	0d 41 3d 1c 	wl16	r8,0x9fc
    8240:	0d 60 01 03 	wh16	r8,0x3
    8244:	10 40 01 08 	ld32	r8,r8
    8248:	0d 43 6e 1c 	wl16	r16,0x1b7c
    824c:	0d 60 02 03 	wh16	r16,0x3
    8250:	10 40 02 10 	ld32	r16,r16
    8254:	0d 45 9d 3c 	wl16	r9,0x2cfc
    8258:	0d 60 01 23 	wh16	r9,0x3
    825c:	10 40 01 29 	ld32	r9,r9
    8260:	00 00 01 10 	add	r8,r16
    8264:	20 70 03 e2 	movepc	rret,8
    8268:	14 30 df 6a 	br	10 <compare>,#al
    826c:	00 10 00 41 	add	r2,1
    8270:	0d 41 41 00 	wl16	r8,0xa00
    8274:	0d 60 01 03 	wh16	r8,0x3
    8278:	10 40 01 08 	ld32	r8,r8
    827c:	0d 43 72 00 	wl16	r16,0x1b80
    8280:	0d 60 02 03 	wh16	r16,0x3
    8284:	10 40 02 10 	ld32	r16,r16
    8288:	0d 45 a1 20 	wl16	r9,0x2d00
    828c:	0d 60 01 23 	wh16	r9,0x3
    8290:	10 40 01 29 	ld32	r9,r9
    8294:	00 00 01 10 	add	r8,r16
    8298:	20 70 03 e2 	movepc	rret,8
    829c:	14 30 df 5d 	br	10 <compare>,#al
    82a0:	00 10 00 41 	add	r2,1
    82a4:	0d 41 41 04 	wl16	r8,0xa04
    82a8:	0d 60 01 03 	wh16	r8,0x3
    82ac:	10 40 01 08 	ld32	r8,r8
    82b0:	0d 43 72 04 	wl16	r16,0x1b84
    82b4:	0d 60 02 03 	wh16	r16,0x3
    82b8:	10 40 02 10 	ld32	r16,r16
    82bc:	0d 45 a1 24 	wl16	r9,0x2d04
    82c0:	0d 60 01 23 	wh16	r9,0x3
    82c4:	10 40 01 29 	ld32	r9,r9
    82c8:	00 00 01 10 	add	r8,r16
    82cc:	20 70 03 e2 	movepc	rret,8
    82d0:	14 30 df 50 	br	10 <compare>,#al
    82d4:	00 10 00 41 	add	r2,1
    82d8:	0d 41 41 08 	wl16	r8,0xa08
    82dc:	0d 60 01 03 	wh16	r8,0x3
    82e0:	10 40 01 08 	ld32	r8,r8
    82e4:	0d 43 72 08 	wl16	r16,0x1b88
    82e8:	0d 60 02 03 	wh16	r16,0x3
    82ec:	10 40 02 10 	ld32	r16,r16
    82f0:	0d 45 a1 28 	wl16	r9,0x2d08
    82f4:	0d 60 01 23 	wh16	r9,0x3
    82f8:	10 40 01 29 	ld32	r9,r9
    82fc:	00 00 01 10 	add	r8,r16
    8300:	20 70 03 e2 	movepc	rret,8
    8304:	14 30 df 43 	br	10 <compare>,#al
    8308:	00 10 00 41 	add	r2,1
    830c:	0d 41 41 0c 	wl16	r8,0xa0c
    8310:	0d 60 01 03 	wh16	r8,0x3
    8314:	10 40 01 08 	ld32	r8,r8
    8318:	0d 43 72 0c 	wl16	r16,0x1b8c
    831c:	0d 60 02 03 	wh16	r16,0x3
    8320:	10 40 02 10 	ld32	r16,r16
    8324:	0d 45 a1 2c 	wl16	r9,0x2d0c
    8328:	0d 60 01 23 	wh16	r9,0x3
    832c:	10 40 01 29 	ld32	r9,r9
    8330:	00 00 01 10 	add	r8,r16
    8334:	20 70 03 e2 	movepc	rret,8
    8338:	14 30 df 36 	br	10 <compare>,#al
    833c:	00 10 00 41 	add	r2,1
    8340:	0d 41 41 10 	wl16	r8,0xa10
    8344:	0d 60 01 03 	wh16	r8,0x3
    8348:	10 40 01 08 	ld32	r8,r8
    834c:	0d 43 72 10 	wl16	r16,0x1b90
    8350:	0d 60 02 03 	wh16	r16,0x3
    8354:	10 40 02 10 	ld32	r16,r16
    8358:	0d 45 a1 30 	wl16	r9,0x2d10
    835c:	0d 60 01 23 	wh16	r9,0x3
    8360:	10 40 01 29 	ld32	r9,r9
    8364:	00 00 01 10 	add	r8,r16
    8368:	20 70 03 e2 	movepc	rret,8
    836c:	14 30 df 29 	br	10 <compare>,#al
    8370:	00 10 00 41 	add	r2,1
    8374:	0d 41 41 14 	wl16	r8,0xa14
    8378:	0d 60 01 03 	wh16	r8,0x3
    837c:	10 40 01 08 	ld32	r8,r8
    8380:	0d 43 72 14 	wl16	r16,0x1b94
    8384:	0d 60 02 03 	wh16	r16,0x3
    8388:	10 40 02 10 	ld32	r16,r16
    838c:	0d 45 a1 34 	wl16	r9,0x2d14
    8390:	0d 60 01 23 	wh16	r9,0x3
    8394:	10 40 01 29 	ld32	r9,r9
    8398:	00 00 01 10 	add	r8,r16
    839c:	20 70 03 e2 	movepc	rret,8
    83a0:	14 30 df 1c 	br	10 <compare>,#al
    83a4:	00 10 00 41 	add	r2,1
    83a8:	0d 41 41 18 	wl16	r8,0xa18
    83ac:	0d 60 01 03 	wh16	r8,0x3
    83b0:	10 40 01 08 	ld32	r8,r8
    83b4:	0d 43 72 18 	wl16	r16,0x1b98
    83b8:	0d 60 02 03 	wh16	r16,0x3
    83bc:	10 40 02 10 	ld32	r16,r16
    83c0:	0d 45 a1 38 	wl16	r9,0x2d18
    83c4:	0d 60 01 23 	wh16	r9,0x3
    83c8:	10 40 01 29 	ld32	r9,r9
    83cc:	00 00 01 10 	add	r8,r16
    83d0:	20 70 03 e2 	movepc	rret,8
    83d4:	14 30 df 0f 	br	10 <compare>,#al
    83d8:	00 10 00 41 	add	r2,1
    83dc:	0d 41 41 1c 	wl16	r8,0xa1c
    83e0:	0d 60 01 03 	wh16	r8,0x3
    83e4:	10 40 01 08 	ld32	r8,r8
    83e8:	0d 43 72 1c 	wl16	r16,0x1b9c
    83ec:	0d 60 02 03 	wh16	r16,0x3
    83f0:	10 40 02 10 	ld32	r16,r16
    83f4:	0d 45 a1 3c 	wl16	r9,0x2d1c
    83f8:	0d 60 01 23 	wh16	r9,0x3
    83fc:	10 40 01 29 	ld32	r9,r9
    8400:	00 00 01 10 	add	r8,r16
    8404:	20 70 03 e2 	movepc	rret,8
    8408:	14 30 df 02 	br	10 <compare>,#al
    840c:	00 10 00 41 	add	r2,1
    8410:	0d 41 45 00 	wl16	r8,0xa20
    8414:	0d 60 01 03 	wh16	r8,0x3
    8418:	10 40 01 08 	ld32	r8,r8
    841c:	0d 43 76 00 	wl16	r16,0x1ba0
    8420:	0d 60 02 03 	wh16	r16,0x3
    8424:	10 40 02 10 	ld32	r16,r16
    8428:	0d 45 a5 20 	wl16	r9,0x2d20
    842c:	0d 60 01 23 	wh16	r9,0x3
    8430:	10 40 01 29 	ld32	r9,r9
    8434:	00 00 01 10 	add	r8,r16
    8438:	20 70 03 e2 	movepc	rret,8
    843c:	14 30 de f5 	br	10 <compare>,#al
    8440:	00 10 00 41 	add	r2,1
    8444:	0d 41 45 04 	wl16	r8,0xa24
    8448:	0d 60 01 03 	wh16	r8,0x3
    844c:	10 40 01 08 	ld32	r8,r8
    8450:	0d 43 76 04 	wl16	r16,0x1ba4
    8454:	0d 60 02 03 	wh16	r16,0x3
    8458:	10 40 02 10 	ld32	r16,r16
    845c:	0d 45 a5 24 	wl16	r9,0x2d24
    8460:	0d 60 01 23 	wh16	r9,0x3
    8464:	10 40 01 29 	ld32	r9,r9
    8468:	00 00 01 10 	add	r8,r16
    846c:	20 70 03 e2 	movepc	rret,8
    8470:	14 30 de e8 	br	10 <compare>,#al
    8474:	00 10 00 41 	add	r2,1
    8478:	0d 41 45 08 	wl16	r8,0xa28
    847c:	0d 60 01 03 	wh16	r8,0x3
    8480:	10 40 01 08 	ld32	r8,r8
    8484:	0d 43 76 08 	wl16	r16,0x1ba8
    8488:	0d 60 02 03 	wh16	r16,0x3
    848c:	10 40 02 10 	ld32	r16,r16
    8490:	0d 45 a5 28 	wl16	r9,0x2d28
    8494:	0d 60 01 23 	wh16	r9,0x3
    8498:	10 40 01 29 	ld32	r9,r9
    849c:	00 00 01 10 	add	r8,r16
    84a0:	20 70 03 e2 	movepc	rret,8
    84a4:	14 30 de db 	br	10 <compare>,#al
    84a8:	00 10 00 41 	add	r2,1
    84ac:	0d 41 45 0c 	wl16	r8,0xa2c
    84b0:	0d 60 01 03 	wh16	r8,0x3
    84b4:	10 40 01 08 	ld32	r8,r8
    84b8:	0d 43 76 0c 	wl16	r16,0x1bac
    84bc:	0d 60 02 03 	wh16	r16,0x3
    84c0:	10 40 02 10 	ld32	r16,r16
    84c4:	0d 45 a5 2c 	wl16	r9,0x2d2c
    84c8:	0d 60 01 23 	wh16	r9,0x3
    84cc:	10 40 01 29 	ld32	r9,r9
    84d0:	00 00 01 10 	add	r8,r16
    84d4:	20 70 03 e2 	movepc	rret,8
    84d8:	14 30 de ce 	br	10 <compare>,#al
    84dc:	00 10 00 41 	add	r2,1
    84e0:	0d 41 45 10 	wl16	r8,0xa30
    84e4:	0d 60 01 03 	wh16	r8,0x3
    84e8:	10 40 01 08 	ld32	r8,r8
    84ec:	0d 43 76 10 	wl16	r16,0x1bb0
    84f0:	0d 60 02 03 	wh16	r16,0x3
    84f4:	10 40 02 10 	ld32	r16,r16
    84f8:	0d 45 a5 30 	wl16	r9,0x2d30
    84fc:	0d 60 01 23 	wh16	r9,0x3
    8500:	10 40 01 29 	ld32	r9,r9
    8504:	00 00 01 10 	add	r8,r16
    8508:	20 70 03 e2 	movepc	rret,8
    850c:	14 30 de c1 	br	10 <compare>,#al
    8510:	00 10 00 41 	add	r2,1
    8514:	0d 41 45 14 	wl16	r8,0xa34
    8518:	0d 60 01 03 	wh16	r8,0x3
    851c:	10 40 01 08 	ld32	r8,r8
    8520:	0d 43 76 14 	wl16	r16,0x1bb4
    8524:	0d 60 02 03 	wh16	r16,0x3
    8528:	10 40 02 10 	ld32	r16,r16
    852c:	0d 45 a5 34 	wl16	r9,0x2d34
    8530:	0d 60 01 23 	wh16	r9,0x3
    8534:	10 40 01 29 	ld32	r9,r9
    8538:	00 00 01 10 	add	r8,r16
    853c:	20 70 03 e2 	movepc	rret,8
    8540:	14 30 de b4 	br	10 <compare>,#al
    8544:	00 10 00 41 	add	r2,1
    8548:	0d 41 45 18 	wl16	r8,0xa38
    854c:	0d 60 01 03 	wh16	r8,0x3
    8550:	10 40 01 08 	ld32	r8,r8
    8554:	0d 43 76 18 	wl16	r16,0x1bb8
    8558:	0d 60 02 03 	wh16	r16,0x3
    855c:	10 40 02 10 	ld32	r16,r16
    8560:	0d 45 a5 38 	wl16	r9,0x2d38
    8564:	0d 60 01 23 	wh16	r9,0x3
    8568:	10 40 01 29 	ld32	r9,r9
    856c:	00 00 01 10 	add	r8,r16
    8570:	20 70 03 e2 	movepc	rret,8
    8574:	14 30 de a7 	br	10 <compare>,#al
    8578:	00 10 00 41 	add	r2,1
    857c:	0d 41 45 1c 	wl16	r8,0xa3c
    8580:	0d 60 01 03 	wh16	r8,0x3
    8584:	10 40 01 08 	ld32	r8,r8
    8588:	0d 43 76 1c 	wl16	r16,0x1bbc
    858c:	0d 60 02 03 	wh16	r16,0x3
    8590:	10 40 02 10 	ld32	r16,r16
    8594:	0d 45 a5 3c 	wl16	r9,0x2d3c
    8598:	0d 60 01 23 	wh16	r9,0x3
    859c:	10 40 01 29 	ld32	r9,r9
    85a0:	00 00 01 10 	add	r8,r16
    85a4:	20 70 03 e2 	movepc	rret,8
    85a8:	14 30 de 9a 	br	10 <compare>,#al
    85ac:	00 10 00 41 	add	r2,1
    85b0:	0d 41 49 00 	wl16	r8,0xa40
    85b4:	0d 60 01 03 	wh16	r8,0x3
    85b8:	10 40 01 08 	ld32	r8,r8
    85bc:	0d 43 7a 00 	wl16	r16,0x1bc0
    85c0:	0d 60 02 03 	wh16	r16,0x3
    85c4:	10 40 02 10 	ld32	r16,r16
    85c8:	0d 45 a9 20 	wl16	r9,0x2d40
    85cc:	0d 60 01 23 	wh16	r9,0x3
    85d0:	10 40 01 29 	ld32	r9,r9
    85d4:	00 00 01 10 	add	r8,r16
    85d8:	20 70 03 e2 	movepc	rret,8
    85dc:	14 30 de 8d 	br	10 <compare>,#al
    85e0:	00 10 00 41 	add	r2,1
    85e4:	0d 41 49 04 	wl16	r8,0xa44
    85e8:	0d 60 01 03 	wh16	r8,0x3
    85ec:	10 40 01 08 	ld32	r8,r8
    85f0:	0d 43 7a 04 	wl16	r16,0x1bc4
    85f4:	0d 60 02 03 	wh16	r16,0x3
    85f8:	10 40 02 10 	ld32	r16,r16
    85fc:	0d 45 a9 24 	wl16	r9,0x2d44
    8600:	0d 60 01 23 	wh16	r9,0x3
    8604:	10 40 01 29 	ld32	r9,r9
    8608:	00 00 01 10 	add	r8,r16
    860c:	20 70 03 e2 	movepc	rret,8
    8610:	14 30 de 80 	br	10 <compare>,#al
    8614:	00 10 00 41 	add	r2,1
    8618:	0d 41 49 08 	wl16	r8,0xa48
    861c:	0d 60 01 03 	wh16	r8,0x3
    8620:	10 40 01 08 	ld32	r8,r8
    8624:	0d 43 7a 08 	wl16	r16,0x1bc8
    8628:	0d 60 02 03 	wh16	r16,0x3
    862c:	10 40 02 10 	ld32	r16,r16
    8630:	0d 45 a9 28 	wl16	r9,0x2d48
    8634:	0d 60 01 23 	wh16	r9,0x3
    8638:	10 40 01 29 	ld32	r9,r9
    863c:	00 00 01 10 	add	r8,r16
    8640:	20 70 03 e2 	movepc	rret,8
    8644:	14 30 de 73 	br	10 <compare>,#al
    8648:	00 10 00 41 	add	r2,1
    864c:	0d 41 49 0c 	wl16	r8,0xa4c
    8650:	0d 60 01 03 	wh16	r8,0x3
    8654:	10 40 01 08 	ld32	r8,r8
    8658:	0d 43 7a 0c 	wl16	r16,0x1bcc
    865c:	0d 60 02 03 	wh16	r16,0x3
    8660:	10 40 02 10 	ld32	r16,r16
    8664:	0d 45 a9 2c 	wl16	r9,0x2d4c
    8668:	0d 60 01 23 	wh16	r9,0x3
    866c:	10 40 01 29 	ld32	r9,r9
    8670:	00 00 01 10 	add	r8,r16
    8674:	20 70 03 e2 	movepc	rret,8
    8678:	14 30 de 66 	br	10 <compare>,#al
    867c:	00 10 00 41 	add	r2,1
    8680:	0d 41 49 10 	wl16	r8,0xa50
    8684:	0d 60 01 03 	wh16	r8,0x3
    8688:	10 40 01 08 	ld32	r8,r8
    868c:	0d 43 7a 10 	wl16	r16,0x1bd0
    8690:	0d 60 02 03 	wh16	r16,0x3
    8694:	10 40 02 10 	ld32	r16,r16
    8698:	0d 45 a9 30 	wl16	r9,0x2d50
    869c:	0d 60 01 23 	wh16	r9,0x3
    86a0:	10 40 01 29 	ld32	r9,r9
    86a4:	00 00 01 10 	add	r8,r16
    86a8:	20 70 03 e2 	movepc	rret,8
    86ac:	14 30 de 59 	br	10 <compare>,#al
    86b0:	00 10 00 41 	add	r2,1
    86b4:	0d 41 49 14 	wl16	r8,0xa54
    86b8:	0d 60 01 03 	wh16	r8,0x3
    86bc:	10 40 01 08 	ld32	r8,r8
    86c0:	0d 43 7a 14 	wl16	r16,0x1bd4
    86c4:	0d 60 02 03 	wh16	r16,0x3
    86c8:	10 40 02 10 	ld32	r16,r16
    86cc:	0d 45 a9 34 	wl16	r9,0x2d54
    86d0:	0d 60 01 23 	wh16	r9,0x3
    86d4:	10 40 01 29 	ld32	r9,r9
    86d8:	00 00 01 10 	add	r8,r16
    86dc:	20 70 03 e2 	movepc	rret,8
    86e0:	14 30 de 4c 	br	10 <compare>,#al
    86e4:	00 10 00 41 	add	r2,1
    86e8:	0d 41 49 18 	wl16	r8,0xa58
    86ec:	0d 60 01 03 	wh16	r8,0x3
    86f0:	10 40 01 08 	ld32	r8,r8
    86f4:	0d 43 7a 18 	wl16	r16,0x1bd8
    86f8:	0d 60 02 03 	wh16	r16,0x3
    86fc:	10 40 02 10 	ld32	r16,r16
    8700:	0d 45 a9 38 	wl16	r9,0x2d58
    8704:	0d 60 01 23 	wh16	r9,0x3
    8708:	10 40 01 29 	ld32	r9,r9
    870c:	00 00 01 10 	add	r8,r16
    8710:	20 70 03 e2 	movepc	rret,8
    8714:	14 30 de 3f 	br	10 <compare>,#al
    8718:	00 10 00 41 	add	r2,1
    871c:	0d 41 49 1c 	wl16	r8,0xa5c
    8720:	0d 60 01 03 	wh16	r8,0x3
    8724:	10 40 01 08 	ld32	r8,r8
    8728:	0d 43 7a 1c 	wl16	r16,0x1bdc
    872c:	0d 60 02 03 	wh16	r16,0x3
    8730:	10 40 02 10 	ld32	r16,r16
    8734:	0d 45 a9 3c 	wl16	r9,0x2d5c
    8738:	0d 60 01 23 	wh16	r9,0x3
    873c:	10 40 01 29 	ld32	r9,r9
    8740:	00 00 01 10 	add	r8,r16
    8744:	20 70 03 e2 	movepc	rret,8
    8748:	14 30 de 32 	br	10 <compare>,#al
    874c:	00 10 00 41 	add	r2,1
    8750:	0d 41 4d 00 	wl16	r8,0xa60
    8754:	0d 60 01 03 	wh16	r8,0x3
    8758:	10 40 01 08 	ld32	r8,r8
    875c:	0d 43 7e 00 	wl16	r16,0x1be0
    8760:	0d 60 02 03 	wh16	r16,0x3
    8764:	10 40 02 10 	ld32	r16,r16
    8768:	0d 45 ad 20 	wl16	r9,0x2d60
    876c:	0d 60 01 23 	wh16	r9,0x3
    8770:	10 40 01 29 	ld32	r9,r9
    8774:	00 00 01 10 	add	r8,r16
    8778:	20 70 03 e2 	movepc	rret,8
    877c:	14 30 de 25 	br	10 <compare>,#al
    8780:	00 10 00 41 	add	r2,1
    8784:	0d 41 4d 04 	wl16	r8,0xa64
    8788:	0d 60 01 03 	wh16	r8,0x3
    878c:	10 40 01 08 	ld32	r8,r8
    8790:	0d 43 7e 04 	wl16	r16,0x1be4
    8794:	0d 60 02 03 	wh16	r16,0x3
    8798:	10 40 02 10 	ld32	r16,r16
    879c:	0d 45 ad 24 	wl16	r9,0x2d64
    87a0:	0d 60 01 23 	wh16	r9,0x3
    87a4:	10 40 01 29 	ld32	r9,r9
    87a8:	00 00 01 10 	add	r8,r16
    87ac:	20 70 03 e2 	movepc	rret,8
    87b0:	14 30 de 18 	br	10 <compare>,#al
    87b4:	00 10 00 41 	add	r2,1
    87b8:	0d 41 4d 08 	wl16	r8,0xa68
    87bc:	0d 60 01 03 	wh16	r8,0x3
    87c0:	10 40 01 08 	ld32	r8,r8
    87c4:	0d 43 7e 08 	wl16	r16,0x1be8
    87c8:	0d 60 02 03 	wh16	r16,0x3
    87cc:	10 40 02 10 	ld32	r16,r16
    87d0:	0d 45 ad 28 	wl16	r9,0x2d68
    87d4:	0d 60 01 23 	wh16	r9,0x3
    87d8:	10 40 01 29 	ld32	r9,r9
    87dc:	00 00 01 10 	add	r8,r16
    87e0:	20 70 03 e2 	movepc	rret,8
    87e4:	14 30 de 0b 	br	10 <compare>,#al
    87e8:	00 10 00 41 	add	r2,1
    87ec:	0d 41 4d 0c 	wl16	r8,0xa6c
    87f0:	0d 60 01 03 	wh16	r8,0x3
    87f4:	10 40 01 08 	ld32	r8,r8
    87f8:	0d 43 7e 0c 	wl16	r16,0x1bec
    87fc:	0d 60 02 03 	wh16	r16,0x3
    8800:	10 40 02 10 	ld32	r16,r16
    8804:	0d 45 ad 2c 	wl16	r9,0x2d6c
    8808:	0d 60 01 23 	wh16	r9,0x3
    880c:	10 40 01 29 	ld32	r9,r9
    8810:	00 00 01 10 	add	r8,r16
    8814:	20 70 03 e2 	movepc	rret,8
    8818:	14 30 dd fe 	br	10 <compare>,#al
    881c:	00 10 00 41 	add	r2,1
    8820:	0d 41 4d 10 	wl16	r8,0xa70
    8824:	0d 60 01 03 	wh16	r8,0x3
    8828:	10 40 01 08 	ld32	r8,r8
    882c:	0d 43 7e 10 	wl16	r16,0x1bf0
    8830:	0d 60 02 03 	wh16	r16,0x3
    8834:	10 40 02 10 	ld32	r16,r16
    8838:	0d 45 ad 30 	wl16	r9,0x2d70
    883c:	0d 60 01 23 	wh16	r9,0x3
    8840:	10 40 01 29 	ld32	r9,r9
    8844:	00 00 01 10 	add	r8,r16
    8848:	20 70 03 e2 	movepc	rret,8
    884c:	14 30 dd f1 	br	10 <compare>,#al
    8850:	00 10 00 41 	add	r2,1
    8854:	0d 41 4d 14 	wl16	r8,0xa74
    8858:	0d 60 01 03 	wh16	r8,0x3
    885c:	10 40 01 08 	ld32	r8,r8
    8860:	0d 43 7e 14 	wl16	r16,0x1bf4
    8864:	0d 60 02 03 	wh16	r16,0x3
    8868:	10 40 02 10 	ld32	r16,r16
    886c:	0d 45 ad 34 	wl16	r9,0x2d74
    8870:	0d 60 01 23 	wh16	r9,0x3
    8874:	10 40 01 29 	ld32	r9,r9
    8878:	00 00 01 10 	add	r8,r16
    887c:	20 70 03 e2 	movepc	rret,8
    8880:	14 30 dd e4 	br	10 <compare>,#al
    8884:	00 10 00 41 	add	r2,1
    8888:	0d 41 4d 18 	wl16	r8,0xa78
    888c:	0d 60 01 03 	wh16	r8,0x3
    8890:	10 40 01 08 	ld32	r8,r8
    8894:	0d 43 7e 18 	wl16	r16,0x1bf8
    8898:	0d 60 02 03 	wh16	r16,0x3
    889c:	10 40 02 10 	ld32	r16,r16
    88a0:	0d 45 ad 38 	wl16	r9,0x2d78
    88a4:	0d 60 01 23 	wh16	r9,0x3
    88a8:	10 40 01 29 	ld32	r9,r9
    88ac:	00 00 01 10 	add	r8,r16
    88b0:	20 70 03 e2 	movepc	rret,8
    88b4:	14 30 dd d7 	br	10 <compare>,#al
    88b8:	00 10 00 41 	add	r2,1
    88bc:	0d 41 4d 1c 	wl16	r8,0xa7c
    88c0:	0d 60 01 03 	wh16	r8,0x3
    88c4:	10 40 01 08 	ld32	r8,r8
    88c8:	0d 43 7e 1c 	wl16	r16,0x1bfc
    88cc:	0d 60 02 03 	wh16	r16,0x3
    88d0:	10 40 02 10 	ld32	r16,r16
    88d4:	0d 45 ad 3c 	wl16	r9,0x2d7c
    88d8:	0d 60 01 23 	wh16	r9,0x3
    88dc:	10 40 01 29 	ld32	r9,r9
    88e0:	00 00 01 10 	add	r8,r16
    88e4:	20 70 03 e2 	movepc	rret,8
    88e8:	14 30 dd ca 	br	10 <compare>,#al
    88ec:	00 10 00 41 	add	r2,1
    88f0:	0d 41 51 00 	wl16	r8,0xa80
    88f4:	0d 60 01 03 	wh16	r8,0x3
    88f8:	10 40 01 08 	ld32	r8,r8
    88fc:	0d 43 82 00 	wl16	r16,0x1c00
    8900:	0d 60 02 03 	wh16	r16,0x3
    8904:	10 40 02 10 	ld32	r16,r16
    8908:	0d 45 b1 20 	wl16	r9,0x2d80
    890c:	0d 60 01 23 	wh16	r9,0x3
    8910:	10 40 01 29 	ld32	r9,r9
    8914:	00 00 01 10 	add	r8,r16
    8918:	20 70 03 e2 	movepc	rret,8
    891c:	14 30 dd bd 	br	10 <compare>,#al
    8920:	00 10 00 41 	add	r2,1
    8924:	0d 41 51 04 	wl16	r8,0xa84
    8928:	0d 60 01 03 	wh16	r8,0x3
    892c:	10 40 01 08 	ld32	r8,r8
    8930:	0d 43 82 04 	wl16	r16,0x1c04
    8934:	0d 60 02 03 	wh16	r16,0x3
    8938:	10 40 02 10 	ld32	r16,r16
    893c:	0d 45 b1 24 	wl16	r9,0x2d84
    8940:	0d 60 01 23 	wh16	r9,0x3
    8944:	10 40 01 29 	ld32	r9,r9
    8948:	00 00 01 10 	add	r8,r16
    894c:	20 70 03 e2 	movepc	rret,8
    8950:	14 30 dd b0 	br	10 <compare>,#al
    8954:	00 10 00 41 	add	r2,1
    8958:	0d 41 51 08 	wl16	r8,0xa88
    895c:	0d 60 01 03 	wh16	r8,0x3
    8960:	10 40 01 08 	ld32	r8,r8
    8964:	0d 43 82 08 	wl16	r16,0x1c08
    8968:	0d 60 02 03 	wh16	r16,0x3
    896c:	10 40 02 10 	ld32	r16,r16
    8970:	0d 45 b1 28 	wl16	r9,0x2d88
    8974:	0d 60 01 23 	wh16	r9,0x3
    8978:	10 40 01 29 	ld32	r9,r9
    897c:	00 00 01 10 	add	r8,r16
    8980:	20 70 03 e2 	movepc	rret,8
    8984:	14 30 dd a3 	br	10 <compare>,#al
    8988:	00 10 00 41 	add	r2,1
    898c:	0d 41 51 0c 	wl16	r8,0xa8c
    8990:	0d 60 01 03 	wh16	r8,0x3
    8994:	10 40 01 08 	ld32	r8,r8
    8998:	0d 43 82 0c 	wl16	r16,0x1c0c
    899c:	0d 60 02 03 	wh16	r16,0x3
    89a0:	10 40 02 10 	ld32	r16,r16
    89a4:	0d 45 b1 2c 	wl16	r9,0x2d8c
    89a8:	0d 60 01 23 	wh16	r9,0x3
    89ac:	10 40 01 29 	ld32	r9,r9
    89b0:	00 00 01 10 	add	r8,r16
    89b4:	20 70 03 e2 	movepc	rret,8
    89b8:	14 30 dd 96 	br	10 <compare>,#al
    89bc:	00 10 00 41 	add	r2,1
    89c0:	0d 41 51 10 	wl16	r8,0xa90
    89c4:	0d 60 01 03 	wh16	r8,0x3
    89c8:	10 40 01 08 	ld32	r8,r8
    89cc:	0d 43 82 10 	wl16	r16,0x1c10
    89d0:	0d 60 02 03 	wh16	r16,0x3
    89d4:	10 40 02 10 	ld32	r16,r16
    89d8:	0d 45 b1 30 	wl16	r9,0x2d90
    89dc:	0d 60 01 23 	wh16	r9,0x3
    89e0:	10 40 01 29 	ld32	r9,r9
    89e4:	00 00 01 10 	add	r8,r16
    89e8:	20 70 03 e2 	movepc	rret,8
    89ec:	14 30 dd 89 	br	10 <compare>,#al
    89f0:	00 10 00 41 	add	r2,1
    89f4:	0d 41 51 14 	wl16	r8,0xa94
    89f8:	0d 60 01 03 	wh16	r8,0x3
    89fc:	10 40 01 08 	ld32	r8,r8
    8a00:	0d 43 82 14 	wl16	r16,0x1c14
    8a04:	0d 60 02 03 	wh16	r16,0x3
    8a08:	10 40 02 10 	ld32	r16,r16
    8a0c:	0d 45 b1 34 	wl16	r9,0x2d94
    8a10:	0d 60 01 23 	wh16	r9,0x3
    8a14:	10 40 01 29 	ld32	r9,r9
    8a18:	00 00 01 10 	add	r8,r16
    8a1c:	20 70 03 e2 	movepc	rret,8
    8a20:	14 30 dd 7c 	br	10 <compare>,#al
    8a24:	00 10 00 41 	add	r2,1
    8a28:	0d 41 51 18 	wl16	r8,0xa98
    8a2c:	0d 60 01 03 	wh16	r8,0x3
    8a30:	10 40 01 08 	ld32	r8,r8
    8a34:	0d 43 82 18 	wl16	r16,0x1c18
    8a38:	0d 60 02 03 	wh16	r16,0x3
    8a3c:	10 40 02 10 	ld32	r16,r16
    8a40:	0d 45 b1 38 	wl16	r9,0x2d98
    8a44:	0d 60 01 23 	wh16	r9,0x3
    8a48:	10 40 01 29 	ld32	r9,r9
    8a4c:	00 00 01 10 	add	r8,r16
    8a50:	20 70 03 e2 	movepc	rret,8
    8a54:	14 30 dd 6f 	br	10 <compare>,#al
    8a58:	00 10 00 41 	add	r2,1
    8a5c:	0d 41 51 1c 	wl16	r8,0xa9c
    8a60:	0d 60 01 03 	wh16	r8,0x3
    8a64:	10 40 01 08 	ld32	r8,r8
    8a68:	0d 43 82 1c 	wl16	r16,0x1c1c
    8a6c:	0d 60 02 03 	wh16	r16,0x3
    8a70:	10 40 02 10 	ld32	r16,r16
    8a74:	0d 45 b1 3c 	wl16	r9,0x2d9c
    8a78:	0d 60 01 23 	wh16	r9,0x3
    8a7c:	10 40 01 29 	ld32	r9,r9
    8a80:	00 00 01 10 	add	r8,r16
    8a84:	20 70 03 e2 	movepc	rret,8
    8a88:	14 30 dd 62 	br	10 <compare>,#al
    8a8c:	00 10 00 41 	add	r2,1
    8a90:	0d 41 55 00 	wl16	r8,0xaa0
    8a94:	0d 60 01 03 	wh16	r8,0x3
    8a98:	10 40 01 08 	ld32	r8,r8
    8a9c:	0d 43 86 00 	wl16	r16,0x1c20
    8aa0:	0d 60 02 03 	wh16	r16,0x3
    8aa4:	10 40 02 10 	ld32	r16,r16
    8aa8:	0d 45 b5 20 	wl16	r9,0x2da0
    8aac:	0d 60 01 23 	wh16	r9,0x3
    8ab0:	10 40 01 29 	ld32	r9,r9
    8ab4:	00 00 01 10 	add	r8,r16
    8ab8:	20 70 03 e2 	movepc	rret,8
    8abc:	14 30 dd 55 	br	10 <compare>,#al
    8ac0:	00 10 00 41 	add	r2,1
    8ac4:	0d 41 55 04 	wl16	r8,0xaa4
    8ac8:	0d 60 01 03 	wh16	r8,0x3
    8acc:	10 40 01 08 	ld32	r8,r8
    8ad0:	0d 43 86 04 	wl16	r16,0x1c24
    8ad4:	0d 60 02 03 	wh16	r16,0x3
    8ad8:	10 40 02 10 	ld32	r16,r16
    8adc:	0d 45 b5 24 	wl16	r9,0x2da4
    8ae0:	0d 60 01 23 	wh16	r9,0x3
    8ae4:	10 40 01 29 	ld32	r9,r9
    8ae8:	00 00 01 10 	add	r8,r16
    8aec:	20 70 03 e2 	movepc	rret,8
    8af0:	14 30 dd 48 	br	10 <compare>,#al
    8af4:	00 10 00 41 	add	r2,1
    8af8:	0d 41 55 08 	wl16	r8,0xaa8
    8afc:	0d 60 01 03 	wh16	r8,0x3
    8b00:	10 40 01 08 	ld32	r8,r8
    8b04:	0d 43 86 08 	wl16	r16,0x1c28
    8b08:	0d 60 02 03 	wh16	r16,0x3
    8b0c:	10 40 02 10 	ld32	r16,r16
    8b10:	0d 45 b5 28 	wl16	r9,0x2da8
    8b14:	0d 60 01 23 	wh16	r9,0x3
    8b18:	10 40 01 29 	ld32	r9,r9
    8b1c:	00 00 01 10 	add	r8,r16
    8b20:	20 70 03 e2 	movepc	rret,8
    8b24:	14 30 dd 3b 	br	10 <compare>,#al
    8b28:	00 10 00 41 	add	r2,1
    8b2c:	0d 41 55 0c 	wl16	r8,0xaac
    8b30:	0d 60 01 03 	wh16	r8,0x3
    8b34:	10 40 01 08 	ld32	r8,r8
    8b38:	0d 43 86 0c 	wl16	r16,0x1c2c
    8b3c:	0d 60 02 03 	wh16	r16,0x3
    8b40:	10 40 02 10 	ld32	r16,r16
    8b44:	0d 45 b5 2c 	wl16	r9,0x2dac
    8b48:	0d 60 01 23 	wh16	r9,0x3
    8b4c:	10 40 01 29 	ld32	r9,r9
    8b50:	00 00 01 10 	add	r8,r16
    8b54:	20 70 03 e2 	movepc	rret,8
    8b58:	14 30 dd 2e 	br	10 <compare>,#al
    8b5c:	00 10 00 41 	add	r2,1
    8b60:	0d 41 55 10 	wl16	r8,0xab0
    8b64:	0d 60 01 03 	wh16	r8,0x3
    8b68:	10 40 01 08 	ld32	r8,r8
    8b6c:	0d 43 86 10 	wl16	r16,0x1c30
    8b70:	0d 60 02 03 	wh16	r16,0x3
    8b74:	10 40 02 10 	ld32	r16,r16
    8b78:	0d 45 b5 30 	wl16	r9,0x2db0
    8b7c:	0d 60 01 23 	wh16	r9,0x3
    8b80:	10 40 01 29 	ld32	r9,r9
    8b84:	00 00 01 10 	add	r8,r16
    8b88:	20 70 03 e2 	movepc	rret,8
    8b8c:	14 30 dd 21 	br	10 <compare>,#al
    8b90:	00 10 00 41 	add	r2,1
    8b94:	0d 41 55 14 	wl16	r8,0xab4
    8b98:	0d 60 01 03 	wh16	r8,0x3
    8b9c:	10 40 01 08 	ld32	r8,r8
    8ba0:	0d 43 86 14 	wl16	r16,0x1c34
    8ba4:	0d 60 02 03 	wh16	r16,0x3
    8ba8:	10 40 02 10 	ld32	r16,r16
    8bac:	0d 45 b5 34 	wl16	r9,0x2db4
    8bb0:	0d 60 01 23 	wh16	r9,0x3
    8bb4:	10 40 01 29 	ld32	r9,r9
    8bb8:	00 00 01 10 	add	r8,r16
    8bbc:	20 70 03 e2 	movepc	rret,8
    8bc0:	14 30 dd 14 	br	10 <compare>,#al
    8bc4:	00 10 00 41 	add	r2,1
    8bc8:	0d 41 55 18 	wl16	r8,0xab8
    8bcc:	0d 60 01 03 	wh16	r8,0x3
    8bd0:	10 40 01 08 	ld32	r8,r8
    8bd4:	0d 43 86 18 	wl16	r16,0x1c38
    8bd8:	0d 60 02 03 	wh16	r16,0x3
    8bdc:	10 40 02 10 	ld32	r16,r16
    8be0:	0d 45 b5 38 	wl16	r9,0x2db8
    8be4:	0d 60 01 23 	wh16	r9,0x3
    8be8:	10 40 01 29 	ld32	r9,r9
    8bec:	00 00 01 10 	add	r8,r16
    8bf0:	20 70 03 e2 	movepc	rret,8
    8bf4:	14 30 dd 07 	br	10 <compare>,#al
    8bf8:	00 10 00 41 	add	r2,1
    8bfc:	0d 41 55 1c 	wl16	r8,0xabc
    8c00:	0d 60 01 03 	wh16	r8,0x3
    8c04:	10 40 01 08 	ld32	r8,r8
    8c08:	0d 43 86 1c 	wl16	r16,0x1c3c
    8c0c:	0d 60 02 03 	wh16	r16,0x3
    8c10:	10 40 02 10 	ld32	r16,r16
    8c14:	0d 45 b5 3c 	wl16	r9,0x2dbc
    8c18:	0d 60 01 23 	wh16	r9,0x3
    8c1c:	10 40 01 29 	ld32	r9,r9
    8c20:	00 00 01 10 	add	r8,r16
    8c24:	20 70 03 e2 	movepc	rret,8
    8c28:	14 30 dc fa 	br	10 <compare>,#al
    8c2c:	00 10 00 41 	add	r2,1
    8c30:	0d 41 59 00 	wl16	r8,0xac0
    8c34:	0d 60 01 03 	wh16	r8,0x3
    8c38:	10 40 01 08 	ld32	r8,r8
    8c3c:	0d 43 8a 00 	wl16	r16,0x1c40
    8c40:	0d 60 02 03 	wh16	r16,0x3
    8c44:	10 40 02 10 	ld32	r16,r16
    8c48:	0d 45 b9 20 	wl16	r9,0x2dc0
    8c4c:	0d 60 01 23 	wh16	r9,0x3
    8c50:	10 40 01 29 	ld32	r9,r9
    8c54:	00 00 01 10 	add	r8,r16
    8c58:	20 70 03 e2 	movepc	rret,8
    8c5c:	14 30 dc ed 	br	10 <compare>,#al
    8c60:	00 10 00 41 	add	r2,1
    8c64:	0d 41 59 04 	wl16	r8,0xac4
    8c68:	0d 60 01 03 	wh16	r8,0x3
    8c6c:	10 40 01 08 	ld32	r8,r8
    8c70:	0d 43 8a 04 	wl16	r16,0x1c44
    8c74:	0d 60 02 03 	wh16	r16,0x3
    8c78:	10 40 02 10 	ld32	r16,r16
    8c7c:	0d 45 b9 24 	wl16	r9,0x2dc4
    8c80:	0d 60 01 23 	wh16	r9,0x3
    8c84:	10 40 01 29 	ld32	r9,r9
    8c88:	00 00 01 10 	add	r8,r16
    8c8c:	20 70 03 e2 	movepc	rret,8
    8c90:	14 30 dc e0 	br	10 <compare>,#al
    8c94:	00 10 00 41 	add	r2,1
    8c98:	0d 41 59 08 	wl16	r8,0xac8
    8c9c:	0d 60 01 03 	wh16	r8,0x3
    8ca0:	10 40 01 08 	ld32	r8,r8
    8ca4:	0d 43 8a 08 	wl16	r16,0x1c48
    8ca8:	0d 60 02 03 	wh16	r16,0x3
    8cac:	10 40 02 10 	ld32	r16,r16
    8cb0:	0d 45 b9 28 	wl16	r9,0x2dc8
    8cb4:	0d 60 01 23 	wh16	r9,0x3
    8cb8:	10 40 01 29 	ld32	r9,r9
    8cbc:	00 00 01 10 	add	r8,r16
    8cc0:	20 70 03 e2 	movepc	rret,8
    8cc4:	14 30 dc d3 	br	10 <compare>,#al
    8cc8:	00 10 00 41 	add	r2,1
    8ccc:	0d 41 59 0c 	wl16	r8,0xacc
    8cd0:	0d 60 01 03 	wh16	r8,0x3
    8cd4:	10 40 01 08 	ld32	r8,r8
    8cd8:	0d 43 8a 0c 	wl16	r16,0x1c4c
    8cdc:	0d 60 02 03 	wh16	r16,0x3
    8ce0:	10 40 02 10 	ld32	r16,r16
    8ce4:	0d 45 b9 2c 	wl16	r9,0x2dcc
    8ce8:	0d 60 01 23 	wh16	r9,0x3
    8cec:	10 40 01 29 	ld32	r9,r9
    8cf0:	00 00 01 10 	add	r8,r16
    8cf4:	20 70 03 e2 	movepc	rret,8
    8cf8:	14 30 dc c6 	br	10 <compare>,#al
    8cfc:	00 10 00 41 	add	r2,1
    8d00:	0d 41 59 10 	wl16	r8,0xad0
    8d04:	0d 60 01 03 	wh16	r8,0x3
    8d08:	10 40 01 08 	ld32	r8,r8
    8d0c:	0d 43 8a 10 	wl16	r16,0x1c50
    8d10:	0d 60 02 03 	wh16	r16,0x3
    8d14:	10 40 02 10 	ld32	r16,r16
    8d18:	0d 45 b9 30 	wl16	r9,0x2dd0
    8d1c:	0d 60 01 23 	wh16	r9,0x3
    8d20:	10 40 01 29 	ld32	r9,r9
    8d24:	00 00 01 10 	add	r8,r16
    8d28:	20 70 03 e2 	movepc	rret,8
    8d2c:	14 30 dc b9 	br	10 <compare>,#al
    8d30:	00 10 00 41 	add	r2,1
    8d34:	0d 41 59 14 	wl16	r8,0xad4
    8d38:	0d 60 01 03 	wh16	r8,0x3
    8d3c:	10 40 01 08 	ld32	r8,r8
    8d40:	0d 43 8a 14 	wl16	r16,0x1c54
    8d44:	0d 60 02 03 	wh16	r16,0x3
    8d48:	10 40 02 10 	ld32	r16,r16
    8d4c:	0d 45 b9 34 	wl16	r9,0x2dd4
    8d50:	0d 60 01 23 	wh16	r9,0x3
    8d54:	10 40 01 29 	ld32	r9,r9
    8d58:	00 00 01 10 	add	r8,r16
    8d5c:	20 70 03 e2 	movepc	rret,8
    8d60:	14 30 dc ac 	br	10 <compare>,#al
    8d64:	00 10 00 41 	add	r2,1
    8d68:	0d 41 59 18 	wl16	r8,0xad8
    8d6c:	0d 60 01 03 	wh16	r8,0x3
    8d70:	10 40 01 08 	ld32	r8,r8
    8d74:	0d 43 8a 18 	wl16	r16,0x1c58
    8d78:	0d 60 02 03 	wh16	r16,0x3
    8d7c:	10 40 02 10 	ld32	r16,r16
    8d80:	0d 45 b9 38 	wl16	r9,0x2dd8
    8d84:	0d 60 01 23 	wh16	r9,0x3
    8d88:	10 40 01 29 	ld32	r9,r9
    8d8c:	00 00 01 10 	add	r8,r16
    8d90:	20 70 03 e2 	movepc	rret,8
    8d94:	14 30 dc 9f 	br	10 <compare>,#al
    8d98:	00 10 00 41 	add	r2,1
    8d9c:	0d 41 59 1c 	wl16	r8,0xadc
    8da0:	0d 60 01 03 	wh16	r8,0x3
    8da4:	10 40 01 08 	ld32	r8,r8
    8da8:	0d 43 8a 1c 	wl16	r16,0x1c5c
    8dac:	0d 60 02 03 	wh16	r16,0x3
    8db0:	10 40 02 10 	ld32	r16,r16
    8db4:	0d 45 b9 3c 	wl16	r9,0x2ddc
    8db8:	0d 60 01 23 	wh16	r9,0x3
    8dbc:	10 40 01 29 	ld32	r9,r9
    8dc0:	00 00 01 10 	add	r8,r16
    8dc4:	20 70 03 e2 	movepc	rret,8
    8dc8:	14 30 dc 92 	br	10 <compare>,#al
    8dcc:	00 10 00 41 	add	r2,1
    8dd0:	0d 41 5d 00 	wl16	r8,0xae0
    8dd4:	0d 60 01 03 	wh16	r8,0x3
    8dd8:	10 40 01 08 	ld32	r8,r8
    8ddc:	0d 43 8e 00 	wl16	r16,0x1c60
    8de0:	0d 60 02 03 	wh16	r16,0x3
    8de4:	10 40 02 10 	ld32	r16,r16
    8de8:	0d 45 bd 20 	wl16	r9,0x2de0
    8dec:	0d 60 01 23 	wh16	r9,0x3
    8df0:	10 40 01 29 	ld32	r9,r9
    8df4:	00 00 01 10 	add	r8,r16
    8df8:	20 70 03 e2 	movepc	rret,8
    8dfc:	14 30 dc 85 	br	10 <compare>,#al
    8e00:	00 10 00 41 	add	r2,1
    8e04:	0d 41 5d 04 	wl16	r8,0xae4
    8e08:	0d 60 01 03 	wh16	r8,0x3
    8e0c:	10 40 01 08 	ld32	r8,r8
    8e10:	0d 43 8e 04 	wl16	r16,0x1c64
    8e14:	0d 60 02 03 	wh16	r16,0x3
    8e18:	10 40 02 10 	ld32	r16,r16
    8e1c:	0d 45 bd 24 	wl16	r9,0x2de4
    8e20:	0d 60 01 23 	wh16	r9,0x3
    8e24:	10 40 01 29 	ld32	r9,r9
    8e28:	00 00 01 10 	add	r8,r16
    8e2c:	20 70 03 e2 	movepc	rret,8
    8e30:	14 30 dc 78 	br	10 <compare>,#al
    8e34:	00 10 00 41 	add	r2,1
    8e38:	0d 41 5d 08 	wl16	r8,0xae8
    8e3c:	0d 60 01 03 	wh16	r8,0x3
    8e40:	10 40 01 08 	ld32	r8,r8
    8e44:	0d 43 8e 08 	wl16	r16,0x1c68
    8e48:	0d 60 02 03 	wh16	r16,0x3
    8e4c:	10 40 02 10 	ld32	r16,r16
    8e50:	0d 45 bd 28 	wl16	r9,0x2de8
    8e54:	0d 60 01 23 	wh16	r9,0x3
    8e58:	10 40 01 29 	ld32	r9,r9
    8e5c:	00 00 01 10 	add	r8,r16
    8e60:	20 70 03 e2 	movepc	rret,8
    8e64:	14 30 dc 6b 	br	10 <compare>,#al
    8e68:	00 10 00 41 	add	r2,1
    8e6c:	0d 41 5d 0c 	wl16	r8,0xaec
    8e70:	0d 60 01 03 	wh16	r8,0x3
    8e74:	10 40 01 08 	ld32	r8,r8
    8e78:	0d 43 8e 0c 	wl16	r16,0x1c6c
    8e7c:	0d 60 02 03 	wh16	r16,0x3
    8e80:	10 40 02 10 	ld32	r16,r16
    8e84:	0d 45 bd 2c 	wl16	r9,0x2dec
    8e88:	0d 60 01 23 	wh16	r9,0x3
    8e8c:	10 40 01 29 	ld32	r9,r9
    8e90:	00 00 01 10 	add	r8,r16
    8e94:	20 70 03 e2 	movepc	rret,8
    8e98:	14 30 dc 5e 	br	10 <compare>,#al
    8e9c:	00 10 00 41 	add	r2,1
    8ea0:	0d 41 5d 10 	wl16	r8,0xaf0
    8ea4:	0d 60 01 03 	wh16	r8,0x3
    8ea8:	10 40 01 08 	ld32	r8,r8
    8eac:	0d 43 8e 10 	wl16	r16,0x1c70
    8eb0:	0d 60 02 03 	wh16	r16,0x3
    8eb4:	10 40 02 10 	ld32	r16,r16
    8eb8:	0d 45 bd 30 	wl16	r9,0x2df0
    8ebc:	0d 60 01 23 	wh16	r9,0x3
    8ec0:	10 40 01 29 	ld32	r9,r9
    8ec4:	00 00 01 10 	add	r8,r16
    8ec8:	20 70 03 e2 	movepc	rret,8
    8ecc:	14 30 dc 51 	br	10 <compare>,#al
    8ed0:	00 10 00 41 	add	r2,1
    8ed4:	0d 41 5d 14 	wl16	r8,0xaf4
    8ed8:	0d 60 01 03 	wh16	r8,0x3
    8edc:	10 40 01 08 	ld32	r8,r8
    8ee0:	0d 43 8e 14 	wl16	r16,0x1c74
    8ee4:	0d 60 02 03 	wh16	r16,0x3
    8ee8:	10 40 02 10 	ld32	r16,r16
    8eec:	0d 45 bd 34 	wl16	r9,0x2df4
    8ef0:	0d 60 01 23 	wh16	r9,0x3
    8ef4:	10 40 01 29 	ld32	r9,r9
    8ef8:	00 00 01 10 	add	r8,r16
    8efc:	20 70 03 e2 	movepc	rret,8
    8f00:	14 30 dc 44 	br	10 <compare>,#al
    8f04:	00 10 00 41 	add	r2,1
    8f08:	0d 41 5d 18 	wl16	r8,0xaf8
    8f0c:	0d 60 01 03 	wh16	r8,0x3
    8f10:	10 40 01 08 	ld32	r8,r8
    8f14:	0d 43 8e 18 	wl16	r16,0x1c78
    8f18:	0d 60 02 03 	wh16	r16,0x3
    8f1c:	10 40 02 10 	ld32	r16,r16
    8f20:	0d 45 bd 38 	wl16	r9,0x2df8
    8f24:	0d 60 01 23 	wh16	r9,0x3
    8f28:	10 40 01 29 	ld32	r9,r9
    8f2c:	00 00 01 10 	add	r8,r16
    8f30:	20 70 03 e2 	movepc	rret,8
    8f34:	14 30 dc 37 	br	10 <compare>,#al
    8f38:	00 10 00 41 	add	r2,1
    8f3c:	0d 41 5d 1c 	wl16	r8,0xafc
    8f40:	0d 60 01 03 	wh16	r8,0x3
    8f44:	10 40 01 08 	ld32	r8,r8
    8f48:	0d 43 8e 1c 	wl16	r16,0x1c7c
    8f4c:	0d 60 02 03 	wh16	r16,0x3
    8f50:	10 40 02 10 	ld32	r16,r16
    8f54:	0d 45 bd 3c 	wl16	r9,0x2dfc
    8f58:	0d 60 01 23 	wh16	r9,0x3
    8f5c:	10 40 01 29 	ld32	r9,r9
    8f60:	00 00 01 10 	add	r8,r16
    8f64:	20 70 03 e2 	movepc	rret,8
    8f68:	14 30 dc 2a 	br	10 <compare>,#al
    8f6c:	00 10 00 41 	add	r2,1
    8f70:	0d 41 61 00 	wl16	r8,0xb00
    8f74:	0d 60 01 03 	wh16	r8,0x3
    8f78:	10 40 01 08 	ld32	r8,r8
    8f7c:	0d 43 92 00 	wl16	r16,0x1c80
    8f80:	0d 60 02 03 	wh16	r16,0x3
    8f84:	10 40 02 10 	ld32	r16,r16
    8f88:	0d 45 c1 20 	wl16	r9,0x2e00
    8f8c:	0d 60 01 23 	wh16	r9,0x3
    8f90:	10 40 01 29 	ld32	r9,r9
    8f94:	00 00 01 10 	add	r8,r16
    8f98:	20 70 03 e2 	movepc	rret,8
    8f9c:	14 30 dc 1d 	br	10 <compare>,#al
    8fa0:	00 10 00 41 	add	r2,1
    8fa4:	0d 41 61 04 	wl16	r8,0xb04
    8fa8:	0d 60 01 03 	wh16	r8,0x3
    8fac:	10 40 01 08 	ld32	r8,r8
    8fb0:	0d 43 92 04 	wl16	r16,0x1c84
    8fb4:	0d 60 02 03 	wh16	r16,0x3
    8fb8:	10 40 02 10 	ld32	r16,r16
    8fbc:	0d 45 c1 24 	wl16	r9,0x2e04
    8fc0:	0d 60 01 23 	wh16	r9,0x3
    8fc4:	10 40 01 29 	ld32	r9,r9
    8fc8:	00 00 01 10 	add	r8,r16
    8fcc:	20 70 03 e2 	movepc	rret,8
    8fd0:	14 30 dc 10 	br	10 <compare>,#al
    8fd4:	00 10 00 41 	add	r2,1
    8fd8:	0d 41 61 08 	wl16	r8,0xb08
    8fdc:	0d 60 01 03 	wh16	r8,0x3
    8fe0:	10 40 01 08 	ld32	r8,r8
    8fe4:	0d 43 92 08 	wl16	r16,0x1c88
    8fe8:	0d 60 02 03 	wh16	r16,0x3
    8fec:	10 40 02 10 	ld32	r16,r16
    8ff0:	0d 45 c1 28 	wl16	r9,0x2e08
    8ff4:	0d 60 01 23 	wh16	r9,0x3
    8ff8:	10 40 01 29 	ld32	r9,r9
    8ffc:	00 00 01 10 	add	r8,r16
    9000:	20 70 03 e2 	movepc	rret,8
    9004:	14 30 dc 03 	br	10 <compare>,#al
    9008:	00 10 00 41 	add	r2,1
    900c:	0d 41 61 0c 	wl16	r8,0xb0c
    9010:	0d 60 01 03 	wh16	r8,0x3
    9014:	10 40 01 08 	ld32	r8,r8
    9018:	0d 43 92 0c 	wl16	r16,0x1c8c
    901c:	0d 60 02 03 	wh16	r16,0x3
    9020:	10 40 02 10 	ld32	r16,r16
    9024:	0d 45 c1 2c 	wl16	r9,0x2e0c
    9028:	0d 60 01 23 	wh16	r9,0x3
    902c:	10 40 01 29 	ld32	r9,r9
    9030:	00 00 01 10 	add	r8,r16
    9034:	20 70 03 e2 	movepc	rret,8
    9038:	14 30 db f6 	br	10 <compare>,#al
    903c:	00 10 00 41 	add	r2,1
    9040:	0d 41 61 10 	wl16	r8,0xb10
    9044:	0d 60 01 03 	wh16	r8,0x3
    9048:	10 40 01 08 	ld32	r8,r8
    904c:	0d 43 92 10 	wl16	r16,0x1c90
    9050:	0d 60 02 03 	wh16	r16,0x3
    9054:	10 40 02 10 	ld32	r16,r16
    9058:	0d 45 c1 30 	wl16	r9,0x2e10
    905c:	0d 60 01 23 	wh16	r9,0x3
    9060:	10 40 01 29 	ld32	r9,r9
    9064:	00 00 01 10 	add	r8,r16
    9068:	20 70 03 e2 	movepc	rret,8
    906c:	14 30 db e9 	br	10 <compare>,#al
    9070:	00 10 00 41 	add	r2,1
    9074:	0d 41 61 14 	wl16	r8,0xb14
    9078:	0d 60 01 03 	wh16	r8,0x3
    907c:	10 40 01 08 	ld32	r8,r8
    9080:	0d 43 92 14 	wl16	r16,0x1c94
    9084:	0d 60 02 03 	wh16	r16,0x3
    9088:	10 40 02 10 	ld32	r16,r16
    908c:	0d 45 c1 34 	wl16	r9,0x2e14
    9090:	0d 60 01 23 	wh16	r9,0x3
    9094:	10 40 01 29 	ld32	r9,r9
    9098:	00 00 01 10 	add	r8,r16
    909c:	20 70 03 e2 	movepc	rret,8
    90a0:	14 30 db dc 	br	10 <compare>,#al
    90a4:	00 10 00 41 	add	r2,1
    90a8:	0d 41 61 18 	wl16	r8,0xb18
    90ac:	0d 60 01 03 	wh16	r8,0x3
    90b0:	10 40 01 08 	ld32	r8,r8
    90b4:	0d 43 92 18 	wl16	r16,0x1c98
    90b8:	0d 60 02 03 	wh16	r16,0x3
    90bc:	10 40 02 10 	ld32	r16,r16
    90c0:	0d 45 c1 38 	wl16	r9,0x2e18
    90c4:	0d 60 01 23 	wh16	r9,0x3
    90c8:	10 40 01 29 	ld32	r9,r9
    90cc:	00 00 01 10 	add	r8,r16
    90d0:	20 70 03 e2 	movepc	rret,8
    90d4:	14 30 db cf 	br	10 <compare>,#al
    90d8:	00 10 00 41 	add	r2,1
    90dc:	0d 41 61 1c 	wl16	r8,0xb1c
    90e0:	0d 60 01 03 	wh16	r8,0x3
    90e4:	10 40 01 08 	ld32	r8,r8
    90e8:	0d 43 92 1c 	wl16	r16,0x1c9c
    90ec:	0d 60 02 03 	wh16	r16,0x3
    90f0:	10 40 02 10 	ld32	r16,r16
    90f4:	0d 45 c1 3c 	wl16	r9,0x2e1c
    90f8:	0d 60 01 23 	wh16	r9,0x3
    90fc:	10 40 01 29 	ld32	r9,r9
    9100:	00 00 01 10 	add	r8,r16
    9104:	20 70 03 e2 	movepc	rret,8
    9108:	14 30 db c2 	br	10 <compare>,#al
    910c:	00 10 00 41 	add	r2,1
    9110:	0d 41 65 00 	wl16	r8,0xb20
    9114:	0d 60 01 03 	wh16	r8,0x3
    9118:	10 40 01 08 	ld32	r8,r8
    911c:	0d 43 96 00 	wl16	r16,0x1ca0
    9120:	0d 60 02 03 	wh16	r16,0x3
    9124:	10 40 02 10 	ld32	r16,r16
    9128:	0d 45 c5 20 	wl16	r9,0x2e20
    912c:	0d 60 01 23 	wh16	r9,0x3
    9130:	10 40 01 29 	ld32	r9,r9
    9134:	00 00 01 10 	add	r8,r16
    9138:	20 70 03 e2 	movepc	rret,8
    913c:	14 30 db b5 	br	10 <compare>,#al
    9140:	00 10 00 41 	add	r2,1
    9144:	0d 41 65 04 	wl16	r8,0xb24
    9148:	0d 60 01 03 	wh16	r8,0x3
    914c:	10 40 01 08 	ld32	r8,r8
    9150:	0d 43 96 04 	wl16	r16,0x1ca4
    9154:	0d 60 02 03 	wh16	r16,0x3
    9158:	10 40 02 10 	ld32	r16,r16
    915c:	0d 45 c5 24 	wl16	r9,0x2e24
    9160:	0d 60 01 23 	wh16	r9,0x3
    9164:	10 40 01 29 	ld32	r9,r9
    9168:	00 00 01 10 	add	r8,r16
    916c:	20 70 03 e2 	movepc	rret,8
    9170:	14 30 db a8 	br	10 <compare>,#al
    9174:	00 10 00 41 	add	r2,1
    9178:	0d 41 65 08 	wl16	r8,0xb28
    917c:	0d 60 01 03 	wh16	r8,0x3
    9180:	10 40 01 08 	ld32	r8,r8
    9184:	0d 43 96 08 	wl16	r16,0x1ca8
    9188:	0d 60 02 03 	wh16	r16,0x3
    918c:	10 40 02 10 	ld32	r16,r16
    9190:	0d 45 c5 28 	wl16	r9,0x2e28
    9194:	0d 60 01 23 	wh16	r9,0x3
    9198:	10 40 01 29 	ld32	r9,r9
    919c:	00 00 01 10 	add	r8,r16
    91a0:	20 70 03 e2 	movepc	rret,8
    91a4:	14 30 db 9b 	br	10 <compare>,#al
    91a8:	00 10 00 41 	add	r2,1
    91ac:	0d 41 65 0c 	wl16	r8,0xb2c
    91b0:	0d 60 01 03 	wh16	r8,0x3
    91b4:	10 40 01 08 	ld32	r8,r8
    91b8:	0d 43 96 0c 	wl16	r16,0x1cac
    91bc:	0d 60 02 03 	wh16	r16,0x3
    91c0:	10 40 02 10 	ld32	r16,r16
    91c4:	0d 45 c5 2c 	wl16	r9,0x2e2c
    91c8:	0d 60 01 23 	wh16	r9,0x3
    91cc:	10 40 01 29 	ld32	r9,r9
    91d0:	00 00 01 10 	add	r8,r16
    91d4:	20 70 03 e2 	movepc	rret,8
    91d8:	14 30 db 8e 	br	10 <compare>,#al
    91dc:	00 10 00 41 	add	r2,1
    91e0:	0d 41 65 10 	wl16	r8,0xb30
    91e4:	0d 60 01 03 	wh16	r8,0x3
    91e8:	10 40 01 08 	ld32	r8,r8
    91ec:	0d 43 96 10 	wl16	r16,0x1cb0
    91f0:	0d 60 02 03 	wh16	r16,0x3
    91f4:	10 40 02 10 	ld32	r16,r16
    91f8:	0d 45 c5 30 	wl16	r9,0x2e30
    91fc:	0d 60 01 23 	wh16	r9,0x3
    9200:	10 40 01 29 	ld32	r9,r9
    9204:	00 00 01 10 	add	r8,r16
    9208:	20 70 03 e2 	movepc	rret,8
    920c:	14 30 db 81 	br	10 <compare>,#al
    9210:	00 10 00 41 	add	r2,1
    9214:	0d 41 65 14 	wl16	r8,0xb34
    9218:	0d 60 01 03 	wh16	r8,0x3
    921c:	10 40 01 08 	ld32	r8,r8
    9220:	0d 43 96 14 	wl16	r16,0x1cb4
    9224:	0d 60 02 03 	wh16	r16,0x3
    9228:	10 40 02 10 	ld32	r16,r16
    922c:	0d 45 c5 34 	wl16	r9,0x2e34
    9230:	0d 60 01 23 	wh16	r9,0x3
    9234:	10 40 01 29 	ld32	r9,r9
    9238:	00 00 01 10 	add	r8,r16
    923c:	20 70 03 e2 	movepc	rret,8
    9240:	14 30 db 74 	br	10 <compare>,#al
    9244:	00 10 00 41 	add	r2,1
    9248:	0d 41 65 18 	wl16	r8,0xb38
    924c:	0d 60 01 03 	wh16	r8,0x3
    9250:	10 40 01 08 	ld32	r8,r8
    9254:	0d 43 96 18 	wl16	r16,0x1cb8
    9258:	0d 60 02 03 	wh16	r16,0x3
    925c:	10 40 02 10 	ld32	r16,r16
    9260:	0d 45 c5 38 	wl16	r9,0x2e38
    9264:	0d 60 01 23 	wh16	r9,0x3
    9268:	10 40 01 29 	ld32	r9,r9
    926c:	00 00 01 10 	add	r8,r16
    9270:	20 70 03 e2 	movepc	rret,8
    9274:	14 30 db 67 	br	10 <compare>,#al
    9278:	00 10 00 41 	add	r2,1
    927c:	0d 41 65 1c 	wl16	r8,0xb3c
    9280:	0d 60 01 03 	wh16	r8,0x3
    9284:	10 40 01 08 	ld32	r8,r8
    9288:	0d 43 96 1c 	wl16	r16,0x1cbc
    928c:	0d 60 02 03 	wh16	r16,0x3
    9290:	10 40 02 10 	ld32	r16,r16
    9294:	0d 45 c5 3c 	wl16	r9,0x2e3c
    9298:	0d 60 01 23 	wh16	r9,0x3
    929c:	10 40 01 29 	ld32	r9,r9
    92a0:	00 00 01 10 	add	r8,r16
    92a4:	20 70 03 e2 	movepc	rret,8
    92a8:	14 30 db 5a 	br	10 <compare>,#al
    92ac:	00 10 00 41 	add	r2,1
    92b0:	0d 41 69 00 	wl16	r8,0xb40
    92b4:	0d 60 01 03 	wh16	r8,0x3
    92b8:	10 40 01 08 	ld32	r8,r8
    92bc:	0d 43 9a 00 	wl16	r16,0x1cc0
    92c0:	0d 60 02 03 	wh16	r16,0x3
    92c4:	10 40 02 10 	ld32	r16,r16
    92c8:	0d 45 c9 20 	wl16	r9,0x2e40
    92cc:	0d 60 01 23 	wh16	r9,0x3
    92d0:	10 40 01 29 	ld32	r9,r9
    92d4:	00 00 01 10 	add	r8,r16
    92d8:	20 70 03 e2 	movepc	rret,8
    92dc:	14 30 db 4d 	br	10 <compare>,#al
    92e0:	00 10 00 41 	add	r2,1
    92e4:	0d 41 69 04 	wl16	r8,0xb44
    92e8:	0d 60 01 03 	wh16	r8,0x3
    92ec:	10 40 01 08 	ld32	r8,r8
    92f0:	0d 43 9a 04 	wl16	r16,0x1cc4
    92f4:	0d 60 02 03 	wh16	r16,0x3
    92f8:	10 40 02 10 	ld32	r16,r16
    92fc:	0d 45 c9 24 	wl16	r9,0x2e44
    9300:	0d 60 01 23 	wh16	r9,0x3
    9304:	10 40 01 29 	ld32	r9,r9
    9308:	00 00 01 10 	add	r8,r16
    930c:	20 70 03 e2 	movepc	rret,8
    9310:	14 30 db 40 	br	10 <compare>,#al
    9314:	00 10 00 41 	add	r2,1
    9318:	0d 41 69 08 	wl16	r8,0xb48
    931c:	0d 60 01 03 	wh16	r8,0x3
    9320:	10 40 01 08 	ld32	r8,r8
    9324:	0d 43 9a 08 	wl16	r16,0x1cc8
    9328:	0d 60 02 03 	wh16	r16,0x3
    932c:	10 40 02 10 	ld32	r16,r16
    9330:	0d 45 c9 28 	wl16	r9,0x2e48
    9334:	0d 60 01 23 	wh16	r9,0x3
    9338:	10 40 01 29 	ld32	r9,r9
    933c:	00 00 01 10 	add	r8,r16
    9340:	20 70 03 e2 	movepc	rret,8
    9344:	14 30 db 33 	br	10 <compare>,#al
    9348:	00 10 00 41 	add	r2,1
    934c:	0d 41 69 0c 	wl16	r8,0xb4c
    9350:	0d 60 01 03 	wh16	r8,0x3
    9354:	10 40 01 08 	ld32	r8,r8
    9358:	0d 43 9a 0c 	wl16	r16,0x1ccc
    935c:	0d 60 02 03 	wh16	r16,0x3
    9360:	10 40 02 10 	ld32	r16,r16
    9364:	0d 45 c9 2c 	wl16	r9,0x2e4c
    9368:	0d 60 01 23 	wh16	r9,0x3
    936c:	10 40 01 29 	ld32	r9,r9
    9370:	00 00 01 10 	add	r8,r16
    9374:	20 70 03 e2 	movepc	rret,8
    9378:	14 30 db 26 	br	10 <compare>,#al
    937c:	00 10 00 41 	add	r2,1
    9380:	0d 41 69 10 	wl16	r8,0xb50
    9384:	0d 60 01 03 	wh16	r8,0x3
    9388:	10 40 01 08 	ld32	r8,r8
    938c:	0d 43 9a 10 	wl16	r16,0x1cd0
    9390:	0d 60 02 03 	wh16	r16,0x3
    9394:	10 40 02 10 	ld32	r16,r16
    9398:	0d 45 c9 30 	wl16	r9,0x2e50
    939c:	0d 60 01 23 	wh16	r9,0x3
    93a0:	10 40 01 29 	ld32	r9,r9
    93a4:	00 00 01 10 	add	r8,r16
    93a8:	20 70 03 e2 	movepc	rret,8
    93ac:	14 30 db 19 	br	10 <compare>,#al
    93b0:	00 10 00 41 	add	r2,1
    93b4:	0d 41 69 14 	wl16	r8,0xb54
    93b8:	0d 60 01 03 	wh16	r8,0x3
    93bc:	10 40 01 08 	ld32	r8,r8
    93c0:	0d 43 9a 14 	wl16	r16,0x1cd4
    93c4:	0d 60 02 03 	wh16	r16,0x3
    93c8:	10 40 02 10 	ld32	r16,r16
    93cc:	0d 45 c9 34 	wl16	r9,0x2e54
    93d0:	0d 60 01 23 	wh16	r9,0x3
    93d4:	10 40 01 29 	ld32	r9,r9
    93d8:	00 00 01 10 	add	r8,r16
    93dc:	20 70 03 e2 	movepc	rret,8
    93e0:	14 30 db 0c 	br	10 <compare>,#al
    93e4:	00 10 00 41 	add	r2,1
    93e8:	0d 41 69 18 	wl16	r8,0xb58
    93ec:	0d 60 01 03 	wh16	r8,0x3
    93f0:	10 40 01 08 	ld32	r8,r8
    93f4:	0d 43 9a 18 	wl16	r16,0x1cd8
    93f8:	0d 60 02 03 	wh16	r16,0x3
    93fc:	10 40 02 10 	ld32	r16,r16
    9400:	0d 45 c9 38 	wl16	r9,0x2e58
    9404:	0d 60 01 23 	wh16	r9,0x3
    9408:	10 40 01 29 	ld32	r9,r9
    940c:	00 00 01 10 	add	r8,r16
    9410:	20 70 03 e2 	movepc	rret,8
    9414:	14 30 da ff 	br	10 <compare>,#al
    9418:	00 10 00 41 	add	r2,1
    941c:	0d 41 69 1c 	wl16	r8,0xb5c
    9420:	0d 60 01 03 	wh16	r8,0x3
    9424:	10 40 01 08 	ld32	r8,r8
    9428:	0d 43 9a 1c 	wl16	r16,0x1cdc
    942c:	0d 60 02 03 	wh16	r16,0x3
    9430:	10 40 02 10 	ld32	r16,r16
    9434:	0d 45 c9 3c 	wl16	r9,0x2e5c
    9438:	0d 60 01 23 	wh16	r9,0x3
    943c:	10 40 01 29 	ld32	r9,r9
    9440:	00 00 01 10 	add	r8,r16
    9444:	20 70 03 e2 	movepc	rret,8
    9448:	14 30 da f2 	br	10 <compare>,#al
    944c:	00 10 00 41 	add	r2,1
    9450:	0d 41 6d 00 	wl16	r8,0xb60
    9454:	0d 60 01 03 	wh16	r8,0x3
    9458:	10 40 01 08 	ld32	r8,r8
    945c:	0d 43 9e 00 	wl16	r16,0x1ce0
    9460:	0d 60 02 03 	wh16	r16,0x3
    9464:	10 40 02 10 	ld32	r16,r16
    9468:	0d 45 cd 20 	wl16	r9,0x2e60
    946c:	0d 60 01 23 	wh16	r9,0x3
    9470:	10 40 01 29 	ld32	r9,r9
    9474:	00 00 01 10 	add	r8,r16
    9478:	20 70 03 e2 	movepc	rret,8
    947c:	14 30 da e5 	br	10 <compare>,#al
    9480:	00 10 00 41 	add	r2,1
    9484:	0d 41 6d 04 	wl16	r8,0xb64
    9488:	0d 60 01 03 	wh16	r8,0x3
    948c:	10 40 01 08 	ld32	r8,r8
    9490:	0d 43 9e 04 	wl16	r16,0x1ce4
    9494:	0d 60 02 03 	wh16	r16,0x3
    9498:	10 40 02 10 	ld32	r16,r16
    949c:	0d 45 cd 24 	wl16	r9,0x2e64
    94a0:	0d 60 01 23 	wh16	r9,0x3
    94a4:	10 40 01 29 	ld32	r9,r9
    94a8:	00 00 01 10 	add	r8,r16
    94ac:	20 70 03 e2 	movepc	rret,8
    94b0:	14 30 da d8 	br	10 <compare>,#al
    94b4:	00 10 00 41 	add	r2,1
    94b8:	0d 41 6d 08 	wl16	r8,0xb68
    94bc:	0d 60 01 03 	wh16	r8,0x3
    94c0:	10 40 01 08 	ld32	r8,r8
    94c4:	0d 43 9e 08 	wl16	r16,0x1ce8
    94c8:	0d 60 02 03 	wh16	r16,0x3
    94cc:	10 40 02 10 	ld32	r16,r16
    94d0:	0d 45 cd 28 	wl16	r9,0x2e68
    94d4:	0d 60 01 23 	wh16	r9,0x3
    94d8:	10 40 01 29 	ld32	r9,r9
    94dc:	00 00 01 10 	add	r8,r16
    94e0:	20 70 03 e2 	movepc	rret,8
    94e4:	14 30 da cb 	br	10 <compare>,#al
    94e8:	00 10 00 41 	add	r2,1
    94ec:	0d 41 6d 0c 	wl16	r8,0xb6c
    94f0:	0d 60 01 03 	wh16	r8,0x3
    94f4:	10 40 01 08 	ld32	r8,r8
    94f8:	0d 43 9e 0c 	wl16	r16,0x1cec
    94fc:	0d 60 02 03 	wh16	r16,0x3
    9500:	10 40 02 10 	ld32	r16,r16
    9504:	0d 45 cd 2c 	wl16	r9,0x2e6c
    9508:	0d 60 01 23 	wh16	r9,0x3
    950c:	10 40 01 29 	ld32	r9,r9
    9510:	00 00 01 10 	add	r8,r16
    9514:	20 70 03 e2 	movepc	rret,8
    9518:	14 30 da be 	br	10 <compare>,#al
    951c:	00 10 00 41 	add	r2,1
    9520:	0d 41 6d 10 	wl16	r8,0xb70
    9524:	0d 60 01 03 	wh16	r8,0x3
    9528:	10 40 01 08 	ld32	r8,r8
    952c:	0d 43 9e 10 	wl16	r16,0x1cf0
    9530:	0d 60 02 03 	wh16	r16,0x3
    9534:	10 40 02 10 	ld32	r16,r16
    9538:	0d 45 cd 30 	wl16	r9,0x2e70
    953c:	0d 60 01 23 	wh16	r9,0x3
    9540:	10 40 01 29 	ld32	r9,r9
    9544:	00 00 01 10 	add	r8,r16
    9548:	20 70 03 e2 	movepc	rret,8
    954c:	14 30 da b1 	br	10 <compare>,#al
    9550:	00 10 00 41 	add	r2,1
    9554:	0d 41 6d 14 	wl16	r8,0xb74
    9558:	0d 60 01 03 	wh16	r8,0x3
    955c:	10 40 01 08 	ld32	r8,r8
    9560:	0d 43 9e 14 	wl16	r16,0x1cf4
    9564:	0d 60 02 03 	wh16	r16,0x3
    9568:	10 40 02 10 	ld32	r16,r16
    956c:	0d 45 cd 34 	wl16	r9,0x2e74
    9570:	0d 60 01 23 	wh16	r9,0x3
    9574:	10 40 01 29 	ld32	r9,r9
    9578:	00 00 01 10 	add	r8,r16
    957c:	20 70 03 e2 	movepc	rret,8
    9580:	14 30 da a4 	br	10 <compare>,#al
    9584:	00 10 00 41 	add	r2,1
    9588:	0d 41 6d 18 	wl16	r8,0xb78
    958c:	0d 60 01 03 	wh16	r8,0x3
    9590:	10 40 01 08 	ld32	r8,r8
    9594:	0d 43 9e 18 	wl16	r16,0x1cf8
    9598:	0d 60 02 03 	wh16	r16,0x3
    959c:	10 40 02 10 	ld32	r16,r16
    95a0:	0d 45 cd 38 	wl16	r9,0x2e78
    95a4:	0d 60 01 23 	wh16	r9,0x3
    95a8:	10 40 01 29 	ld32	r9,r9
    95ac:	00 00 01 10 	add	r8,r16
    95b0:	20 70 03 e2 	movepc	rret,8
    95b4:	14 30 da 97 	br	10 <compare>,#al
    95b8:	00 10 00 41 	add	r2,1
    95bc:	0d 41 6d 1c 	wl16	r8,0xb7c
    95c0:	0d 60 01 03 	wh16	r8,0x3
    95c4:	10 40 01 08 	ld32	r8,r8
    95c8:	0d 43 9e 1c 	wl16	r16,0x1cfc
    95cc:	0d 60 02 03 	wh16	r16,0x3
    95d0:	10 40 02 10 	ld32	r16,r16
    95d4:	0d 45 cd 3c 	wl16	r9,0x2e7c
    95d8:	0d 60 01 23 	wh16	r9,0x3
    95dc:	10 40 01 29 	ld32	r9,r9
    95e0:	00 00 01 10 	add	r8,r16
    95e4:	20 70 03 e2 	movepc	rret,8
    95e8:	14 30 da 8a 	br	10 <compare>,#al
    95ec:	00 10 00 41 	add	r2,1
    95f0:	0d 41 71 00 	wl16	r8,0xb80
    95f4:	0d 60 01 03 	wh16	r8,0x3
    95f8:	10 40 01 08 	ld32	r8,r8
    95fc:	0d 43 a2 00 	wl16	r16,0x1d00
    9600:	0d 60 02 03 	wh16	r16,0x3
    9604:	10 40 02 10 	ld32	r16,r16
    9608:	0d 45 d1 20 	wl16	r9,0x2e80
    960c:	0d 60 01 23 	wh16	r9,0x3
    9610:	10 40 01 29 	ld32	r9,r9
    9614:	00 00 01 10 	add	r8,r16
    9618:	20 70 03 e2 	movepc	rret,8
    961c:	14 30 da 7d 	br	10 <compare>,#al
    9620:	00 10 00 41 	add	r2,1
    9624:	0d 41 71 04 	wl16	r8,0xb84
    9628:	0d 60 01 03 	wh16	r8,0x3
    962c:	10 40 01 08 	ld32	r8,r8
    9630:	0d 43 a2 04 	wl16	r16,0x1d04
    9634:	0d 60 02 03 	wh16	r16,0x3
    9638:	10 40 02 10 	ld32	r16,r16
    963c:	0d 45 d1 24 	wl16	r9,0x2e84
    9640:	0d 60 01 23 	wh16	r9,0x3
    9644:	10 40 01 29 	ld32	r9,r9
    9648:	00 00 01 10 	add	r8,r16
    964c:	20 70 03 e2 	movepc	rret,8
    9650:	14 30 da 70 	br	10 <compare>,#al
    9654:	00 10 00 41 	add	r2,1
    9658:	0d 41 71 08 	wl16	r8,0xb88
    965c:	0d 60 01 03 	wh16	r8,0x3
    9660:	10 40 01 08 	ld32	r8,r8
    9664:	0d 43 a2 08 	wl16	r16,0x1d08
    9668:	0d 60 02 03 	wh16	r16,0x3
    966c:	10 40 02 10 	ld32	r16,r16
    9670:	0d 45 d1 28 	wl16	r9,0x2e88
    9674:	0d 60 01 23 	wh16	r9,0x3
    9678:	10 40 01 29 	ld32	r9,r9
    967c:	00 00 01 10 	add	r8,r16
    9680:	20 70 03 e2 	movepc	rret,8
    9684:	14 30 da 63 	br	10 <compare>,#al
    9688:	00 10 00 41 	add	r2,1
    968c:	0d 41 71 0c 	wl16	r8,0xb8c
    9690:	0d 60 01 03 	wh16	r8,0x3
    9694:	10 40 01 08 	ld32	r8,r8
    9698:	0d 43 a2 0c 	wl16	r16,0x1d0c
    969c:	0d 60 02 03 	wh16	r16,0x3
    96a0:	10 40 02 10 	ld32	r16,r16
    96a4:	0d 45 d1 2c 	wl16	r9,0x2e8c
    96a8:	0d 60 01 23 	wh16	r9,0x3
    96ac:	10 40 01 29 	ld32	r9,r9
    96b0:	00 00 01 10 	add	r8,r16
    96b4:	20 70 03 e2 	movepc	rret,8
    96b8:	14 30 da 56 	br	10 <compare>,#al
    96bc:	00 10 00 41 	add	r2,1
    96c0:	0d 41 71 10 	wl16	r8,0xb90
    96c4:	0d 60 01 03 	wh16	r8,0x3
    96c8:	10 40 01 08 	ld32	r8,r8
    96cc:	0d 43 a2 10 	wl16	r16,0x1d10
    96d0:	0d 60 02 03 	wh16	r16,0x3
    96d4:	10 40 02 10 	ld32	r16,r16
    96d8:	0d 45 d1 30 	wl16	r9,0x2e90
    96dc:	0d 60 01 23 	wh16	r9,0x3
    96e0:	10 40 01 29 	ld32	r9,r9
    96e4:	00 00 01 10 	add	r8,r16
    96e8:	20 70 03 e2 	movepc	rret,8
    96ec:	14 30 da 49 	br	10 <compare>,#al
    96f0:	00 10 00 41 	add	r2,1
    96f4:	0d 41 71 14 	wl16	r8,0xb94
    96f8:	0d 60 01 03 	wh16	r8,0x3
    96fc:	10 40 01 08 	ld32	r8,r8
    9700:	0d 43 a2 14 	wl16	r16,0x1d14
    9704:	0d 60 02 03 	wh16	r16,0x3
    9708:	10 40 02 10 	ld32	r16,r16
    970c:	0d 45 d1 34 	wl16	r9,0x2e94
    9710:	0d 60 01 23 	wh16	r9,0x3
    9714:	10 40 01 29 	ld32	r9,r9
    9718:	00 00 01 10 	add	r8,r16
    971c:	20 70 03 e2 	movepc	rret,8
    9720:	14 30 da 3c 	br	10 <compare>,#al
    9724:	00 10 00 41 	add	r2,1
    9728:	0d 41 71 18 	wl16	r8,0xb98
    972c:	0d 60 01 03 	wh16	r8,0x3
    9730:	10 40 01 08 	ld32	r8,r8
    9734:	0d 43 a2 18 	wl16	r16,0x1d18
    9738:	0d 60 02 03 	wh16	r16,0x3
    973c:	10 40 02 10 	ld32	r16,r16
    9740:	0d 45 d1 38 	wl16	r9,0x2e98
    9744:	0d 60 01 23 	wh16	r9,0x3
    9748:	10 40 01 29 	ld32	r9,r9
    974c:	00 00 01 10 	add	r8,r16
    9750:	20 70 03 e2 	movepc	rret,8
    9754:	14 30 da 2f 	br	10 <compare>,#al
    9758:	00 10 00 41 	add	r2,1
    975c:	0d 41 71 1c 	wl16	r8,0xb9c
    9760:	0d 60 01 03 	wh16	r8,0x3
    9764:	10 40 01 08 	ld32	r8,r8
    9768:	0d 43 a2 1c 	wl16	r16,0x1d1c
    976c:	0d 60 02 03 	wh16	r16,0x3
    9770:	10 40 02 10 	ld32	r16,r16
    9774:	0d 45 d1 3c 	wl16	r9,0x2e9c
    9778:	0d 60 01 23 	wh16	r9,0x3
    977c:	10 40 01 29 	ld32	r9,r9
    9780:	00 00 01 10 	add	r8,r16
    9784:	20 70 03 e2 	movepc	rret,8
    9788:	14 30 da 22 	br	10 <compare>,#al
    978c:	00 10 00 41 	add	r2,1
    9790:	0d 41 75 00 	wl16	r8,0xba0
    9794:	0d 60 01 03 	wh16	r8,0x3
    9798:	10 40 01 08 	ld32	r8,r8
    979c:	0d 43 a6 00 	wl16	r16,0x1d20
    97a0:	0d 60 02 03 	wh16	r16,0x3
    97a4:	10 40 02 10 	ld32	r16,r16
    97a8:	0d 45 d5 20 	wl16	r9,0x2ea0
    97ac:	0d 60 01 23 	wh16	r9,0x3
    97b0:	10 40 01 29 	ld32	r9,r9
    97b4:	00 00 01 10 	add	r8,r16
    97b8:	20 70 03 e2 	movepc	rret,8
    97bc:	14 30 da 15 	br	10 <compare>,#al
    97c0:	00 10 00 41 	add	r2,1
    97c4:	0d 41 75 04 	wl16	r8,0xba4
    97c8:	0d 60 01 03 	wh16	r8,0x3
    97cc:	10 40 01 08 	ld32	r8,r8
    97d0:	0d 43 a6 04 	wl16	r16,0x1d24
    97d4:	0d 60 02 03 	wh16	r16,0x3
    97d8:	10 40 02 10 	ld32	r16,r16
    97dc:	0d 45 d5 24 	wl16	r9,0x2ea4
    97e0:	0d 60 01 23 	wh16	r9,0x3
    97e4:	10 40 01 29 	ld32	r9,r9
    97e8:	00 00 01 10 	add	r8,r16
    97ec:	20 70 03 e2 	movepc	rret,8
    97f0:	14 30 da 08 	br	10 <compare>,#al
    97f4:	00 10 00 41 	add	r2,1
    97f8:	0d 41 75 08 	wl16	r8,0xba8
    97fc:	0d 60 01 03 	wh16	r8,0x3
    9800:	10 40 01 08 	ld32	r8,r8
    9804:	0d 43 a6 08 	wl16	r16,0x1d28
    9808:	0d 60 02 03 	wh16	r16,0x3
    980c:	10 40 02 10 	ld32	r16,r16
    9810:	0d 45 d5 28 	wl16	r9,0x2ea8
    9814:	0d 60 01 23 	wh16	r9,0x3
    9818:	10 40 01 29 	ld32	r9,r9
    981c:	00 00 01 10 	add	r8,r16
    9820:	20 70 03 e2 	movepc	rret,8
    9824:	14 30 d9 fb 	br	10 <compare>,#al
    9828:	00 10 00 41 	add	r2,1
    982c:	0d 41 75 0c 	wl16	r8,0xbac
    9830:	0d 60 01 03 	wh16	r8,0x3
    9834:	10 40 01 08 	ld32	r8,r8
    9838:	0d 43 a6 0c 	wl16	r16,0x1d2c
    983c:	0d 60 02 03 	wh16	r16,0x3
    9840:	10 40 02 10 	ld32	r16,r16
    9844:	0d 45 d5 2c 	wl16	r9,0x2eac
    9848:	0d 60 01 23 	wh16	r9,0x3
    984c:	10 40 01 29 	ld32	r9,r9
    9850:	00 00 01 10 	add	r8,r16
    9854:	20 70 03 e2 	movepc	rret,8
    9858:	14 30 d9 ee 	br	10 <compare>,#al
    985c:	00 10 00 41 	add	r2,1
    9860:	0d 41 75 10 	wl16	r8,0xbb0
    9864:	0d 60 01 03 	wh16	r8,0x3
    9868:	10 40 01 08 	ld32	r8,r8
    986c:	0d 43 a6 10 	wl16	r16,0x1d30
    9870:	0d 60 02 03 	wh16	r16,0x3
    9874:	10 40 02 10 	ld32	r16,r16
    9878:	0d 45 d5 30 	wl16	r9,0x2eb0
    987c:	0d 60 01 23 	wh16	r9,0x3
    9880:	10 40 01 29 	ld32	r9,r9
    9884:	00 00 01 10 	add	r8,r16
    9888:	20 70 03 e2 	movepc	rret,8
    988c:	14 30 d9 e1 	br	10 <compare>,#al
    9890:	00 10 00 41 	add	r2,1
    9894:	0d 41 75 14 	wl16	r8,0xbb4
    9898:	0d 60 01 03 	wh16	r8,0x3
    989c:	10 40 01 08 	ld32	r8,r8
    98a0:	0d 43 a6 14 	wl16	r16,0x1d34
    98a4:	0d 60 02 03 	wh16	r16,0x3
    98a8:	10 40 02 10 	ld32	r16,r16
    98ac:	0d 45 d5 34 	wl16	r9,0x2eb4
    98b0:	0d 60 01 23 	wh16	r9,0x3
    98b4:	10 40 01 29 	ld32	r9,r9
    98b8:	00 00 01 10 	add	r8,r16
    98bc:	20 70 03 e2 	movepc	rret,8
    98c0:	14 30 d9 d4 	br	10 <compare>,#al
    98c4:	00 10 00 41 	add	r2,1
    98c8:	0d 41 75 18 	wl16	r8,0xbb8
    98cc:	0d 60 01 03 	wh16	r8,0x3
    98d0:	10 40 01 08 	ld32	r8,r8
    98d4:	0d 43 a6 18 	wl16	r16,0x1d38
    98d8:	0d 60 02 03 	wh16	r16,0x3
    98dc:	10 40 02 10 	ld32	r16,r16
    98e0:	0d 45 d5 38 	wl16	r9,0x2eb8
    98e4:	0d 60 01 23 	wh16	r9,0x3
    98e8:	10 40 01 29 	ld32	r9,r9
    98ec:	00 00 01 10 	add	r8,r16
    98f0:	20 70 03 e2 	movepc	rret,8
    98f4:	14 30 d9 c7 	br	10 <compare>,#al
    98f8:	00 10 00 41 	add	r2,1
    98fc:	0d 41 75 1c 	wl16	r8,0xbbc
    9900:	0d 60 01 03 	wh16	r8,0x3
    9904:	10 40 01 08 	ld32	r8,r8
    9908:	0d 43 a6 1c 	wl16	r16,0x1d3c
    990c:	0d 60 02 03 	wh16	r16,0x3
    9910:	10 40 02 10 	ld32	r16,r16
    9914:	0d 45 d5 3c 	wl16	r9,0x2ebc
    9918:	0d 60 01 23 	wh16	r9,0x3
    991c:	10 40 01 29 	ld32	r9,r9
    9920:	00 00 01 10 	add	r8,r16
    9924:	20 70 03 e2 	movepc	rret,8
    9928:	14 30 d9 ba 	br	10 <compare>,#al
    992c:	00 10 00 41 	add	r2,1
    9930:	0d 41 79 00 	wl16	r8,0xbc0
    9934:	0d 60 01 03 	wh16	r8,0x3
    9938:	10 40 01 08 	ld32	r8,r8
    993c:	0d 43 aa 00 	wl16	r16,0x1d40
    9940:	0d 60 02 03 	wh16	r16,0x3
    9944:	10 40 02 10 	ld32	r16,r16
    9948:	0d 45 d9 20 	wl16	r9,0x2ec0
    994c:	0d 60 01 23 	wh16	r9,0x3
    9950:	10 40 01 29 	ld32	r9,r9
    9954:	00 00 01 10 	add	r8,r16
    9958:	20 70 03 e2 	movepc	rret,8
    995c:	14 30 d9 ad 	br	10 <compare>,#al
    9960:	00 10 00 41 	add	r2,1
    9964:	0d 41 79 04 	wl16	r8,0xbc4
    9968:	0d 60 01 03 	wh16	r8,0x3
    996c:	10 40 01 08 	ld32	r8,r8
    9970:	0d 43 aa 04 	wl16	r16,0x1d44
    9974:	0d 60 02 03 	wh16	r16,0x3
    9978:	10 40 02 10 	ld32	r16,r16
    997c:	0d 45 d9 24 	wl16	r9,0x2ec4
    9980:	0d 60 01 23 	wh16	r9,0x3
    9984:	10 40 01 29 	ld32	r9,r9
    9988:	00 00 01 10 	add	r8,r16
    998c:	20 70 03 e2 	movepc	rret,8
    9990:	14 30 d9 a0 	br	10 <compare>,#al
    9994:	00 10 00 41 	add	r2,1
    9998:	0d 41 79 08 	wl16	r8,0xbc8
    999c:	0d 60 01 03 	wh16	r8,0x3
    99a0:	10 40 01 08 	ld32	r8,r8
    99a4:	0d 43 aa 08 	wl16	r16,0x1d48
    99a8:	0d 60 02 03 	wh16	r16,0x3
    99ac:	10 40 02 10 	ld32	r16,r16
    99b0:	0d 45 d9 28 	wl16	r9,0x2ec8
    99b4:	0d 60 01 23 	wh16	r9,0x3
    99b8:	10 40 01 29 	ld32	r9,r9
    99bc:	00 00 01 10 	add	r8,r16
    99c0:	20 70 03 e2 	movepc	rret,8
    99c4:	14 30 d9 93 	br	10 <compare>,#al
    99c8:	00 10 00 41 	add	r2,1
    99cc:	0d 41 79 0c 	wl16	r8,0xbcc
    99d0:	0d 60 01 03 	wh16	r8,0x3
    99d4:	10 40 01 08 	ld32	r8,r8
    99d8:	0d 43 aa 0c 	wl16	r16,0x1d4c
    99dc:	0d 60 02 03 	wh16	r16,0x3
    99e0:	10 40 02 10 	ld32	r16,r16
    99e4:	0d 45 d9 2c 	wl16	r9,0x2ecc
    99e8:	0d 60 01 23 	wh16	r9,0x3
    99ec:	10 40 01 29 	ld32	r9,r9
    99f0:	00 00 01 10 	add	r8,r16
    99f4:	20 70 03 e2 	movepc	rret,8
    99f8:	14 30 d9 86 	br	10 <compare>,#al
    99fc:	00 10 00 41 	add	r2,1
    9a00:	0d 41 79 10 	wl16	r8,0xbd0
    9a04:	0d 60 01 03 	wh16	r8,0x3
    9a08:	10 40 01 08 	ld32	r8,r8
    9a0c:	0d 43 aa 10 	wl16	r16,0x1d50
    9a10:	0d 60 02 03 	wh16	r16,0x3
    9a14:	10 40 02 10 	ld32	r16,r16
    9a18:	0d 45 d9 30 	wl16	r9,0x2ed0
    9a1c:	0d 60 01 23 	wh16	r9,0x3
    9a20:	10 40 01 29 	ld32	r9,r9
    9a24:	00 00 01 10 	add	r8,r16
    9a28:	20 70 03 e2 	movepc	rret,8
    9a2c:	14 30 d9 79 	br	10 <compare>,#al
    9a30:	00 10 00 41 	add	r2,1
    9a34:	0d 41 79 14 	wl16	r8,0xbd4
    9a38:	0d 60 01 03 	wh16	r8,0x3
    9a3c:	10 40 01 08 	ld32	r8,r8
    9a40:	0d 43 aa 14 	wl16	r16,0x1d54
    9a44:	0d 60 02 03 	wh16	r16,0x3
    9a48:	10 40 02 10 	ld32	r16,r16
    9a4c:	0d 45 d9 34 	wl16	r9,0x2ed4
    9a50:	0d 60 01 23 	wh16	r9,0x3
    9a54:	10 40 01 29 	ld32	r9,r9
    9a58:	00 00 01 10 	add	r8,r16
    9a5c:	20 70 03 e2 	movepc	rret,8
    9a60:	14 30 d9 6c 	br	10 <compare>,#al
    9a64:	00 10 00 41 	add	r2,1
    9a68:	0d 41 79 18 	wl16	r8,0xbd8
    9a6c:	0d 60 01 03 	wh16	r8,0x3
    9a70:	10 40 01 08 	ld32	r8,r8
    9a74:	0d 43 aa 18 	wl16	r16,0x1d58
    9a78:	0d 60 02 03 	wh16	r16,0x3
    9a7c:	10 40 02 10 	ld32	r16,r16
    9a80:	0d 45 d9 38 	wl16	r9,0x2ed8
    9a84:	0d 60 01 23 	wh16	r9,0x3
    9a88:	10 40 01 29 	ld32	r9,r9
    9a8c:	00 00 01 10 	add	r8,r16
    9a90:	20 70 03 e2 	movepc	rret,8
    9a94:	14 30 d9 5f 	br	10 <compare>,#al
    9a98:	00 10 00 41 	add	r2,1
    9a9c:	0d 41 79 1c 	wl16	r8,0xbdc
    9aa0:	0d 60 01 03 	wh16	r8,0x3
    9aa4:	10 40 01 08 	ld32	r8,r8
    9aa8:	0d 43 aa 1c 	wl16	r16,0x1d5c
    9aac:	0d 60 02 03 	wh16	r16,0x3
    9ab0:	10 40 02 10 	ld32	r16,r16
    9ab4:	0d 45 d9 3c 	wl16	r9,0x2edc
    9ab8:	0d 60 01 23 	wh16	r9,0x3
    9abc:	10 40 01 29 	ld32	r9,r9
    9ac0:	00 00 01 10 	add	r8,r16
    9ac4:	20 70 03 e2 	movepc	rret,8
    9ac8:	14 30 d9 52 	br	10 <compare>,#al
    9acc:	00 10 00 41 	add	r2,1
    9ad0:	0d 41 7d 00 	wl16	r8,0xbe0
    9ad4:	0d 60 01 03 	wh16	r8,0x3
    9ad8:	10 40 01 08 	ld32	r8,r8
    9adc:	0d 43 ae 00 	wl16	r16,0x1d60
    9ae0:	0d 60 02 03 	wh16	r16,0x3
    9ae4:	10 40 02 10 	ld32	r16,r16
    9ae8:	0d 45 dd 20 	wl16	r9,0x2ee0
    9aec:	0d 60 01 23 	wh16	r9,0x3
    9af0:	10 40 01 29 	ld32	r9,r9
    9af4:	00 00 01 10 	add	r8,r16
    9af8:	20 70 03 e2 	movepc	rret,8
    9afc:	14 30 d9 45 	br	10 <compare>,#al
    9b00:	00 10 00 41 	add	r2,1
    9b04:	0d 41 7d 04 	wl16	r8,0xbe4
    9b08:	0d 60 01 03 	wh16	r8,0x3
    9b0c:	10 40 01 08 	ld32	r8,r8
    9b10:	0d 43 ae 04 	wl16	r16,0x1d64
    9b14:	0d 60 02 03 	wh16	r16,0x3
    9b18:	10 40 02 10 	ld32	r16,r16
    9b1c:	0d 45 dd 24 	wl16	r9,0x2ee4
    9b20:	0d 60 01 23 	wh16	r9,0x3
    9b24:	10 40 01 29 	ld32	r9,r9
    9b28:	00 00 01 10 	add	r8,r16
    9b2c:	20 70 03 e2 	movepc	rret,8
    9b30:	14 30 d9 38 	br	10 <compare>,#al
    9b34:	00 10 00 41 	add	r2,1
    9b38:	0d 41 7d 08 	wl16	r8,0xbe8
    9b3c:	0d 60 01 03 	wh16	r8,0x3
    9b40:	10 40 01 08 	ld32	r8,r8
    9b44:	0d 43 ae 08 	wl16	r16,0x1d68
    9b48:	0d 60 02 03 	wh16	r16,0x3
    9b4c:	10 40 02 10 	ld32	r16,r16
    9b50:	0d 45 dd 28 	wl16	r9,0x2ee8
    9b54:	0d 60 01 23 	wh16	r9,0x3
    9b58:	10 40 01 29 	ld32	r9,r9
    9b5c:	00 00 01 10 	add	r8,r16
    9b60:	20 70 03 e2 	movepc	rret,8
    9b64:	14 30 d9 2b 	br	10 <compare>,#al
    9b68:	00 10 00 41 	add	r2,1
    9b6c:	0d 41 7d 0c 	wl16	r8,0xbec
    9b70:	0d 60 01 03 	wh16	r8,0x3
    9b74:	10 40 01 08 	ld32	r8,r8
    9b78:	0d 43 ae 0c 	wl16	r16,0x1d6c
    9b7c:	0d 60 02 03 	wh16	r16,0x3
    9b80:	10 40 02 10 	ld32	r16,r16
    9b84:	0d 45 dd 2c 	wl16	r9,0x2eec
    9b88:	0d 60 01 23 	wh16	r9,0x3
    9b8c:	10 40 01 29 	ld32	r9,r9
    9b90:	00 00 01 10 	add	r8,r16
    9b94:	20 70 03 e2 	movepc	rret,8
    9b98:	14 30 d9 1e 	br	10 <compare>,#al
    9b9c:	00 10 00 41 	add	r2,1
    9ba0:	0d 41 7d 10 	wl16	r8,0xbf0
    9ba4:	0d 60 01 03 	wh16	r8,0x3
    9ba8:	10 40 01 08 	ld32	r8,r8
    9bac:	0d 43 ae 10 	wl16	r16,0x1d70
    9bb0:	0d 60 02 03 	wh16	r16,0x3
    9bb4:	10 40 02 10 	ld32	r16,r16
    9bb8:	0d 45 dd 30 	wl16	r9,0x2ef0
    9bbc:	0d 60 01 23 	wh16	r9,0x3
    9bc0:	10 40 01 29 	ld32	r9,r9
    9bc4:	00 00 01 10 	add	r8,r16
    9bc8:	20 70 03 e2 	movepc	rret,8
    9bcc:	14 30 d9 11 	br	10 <compare>,#al
    9bd0:	00 10 00 41 	add	r2,1
    9bd4:	0d 41 7d 14 	wl16	r8,0xbf4
    9bd8:	0d 60 01 03 	wh16	r8,0x3
    9bdc:	10 40 01 08 	ld32	r8,r8
    9be0:	0d 43 ae 14 	wl16	r16,0x1d74
    9be4:	0d 60 02 03 	wh16	r16,0x3
    9be8:	10 40 02 10 	ld32	r16,r16
    9bec:	0d 45 dd 34 	wl16	r9,0x2ef4
    9bf0:	0d 60 01 23 	wh16	r9,0x3
    9bf4:	10 40 01 29 	ld32	r9,r9
    9bf8:	00 00 01 10 	add	r8,r16
    9bfc:	20 70 03 e2 	movepc	rret,8
    9c00:	14 30 d9 04 	br	10 <compare>,#al
    9c04:	00 10 00 41 	add	r2,1
    9c08:	0d 41 7d 18 	wl16	r8,0xbf8
    9c0c:	0d 60 01 03 	wh16	r8,0x3
    9c10:	10 40 01 08 	ld32	r8,r8
    9c14:	0d 43 ae 18 	wl16	r16,0x1d78
    9c18:	0d 60 02 03 	wh16	r16,0x3
    9c1c:	10 40 02 10 	ld32	r16,r16
    9c20:	0d 45 dd 38 	wl16	r9,0x2ef8
    9c24:	0d 60 01 23 	wh16	r9,0x3
    9c28:	10 40 01 29 	ld32	r9,r9
    9c2c:	00 00 01 10 	add	r8,r16
    9c30:	20 70 03 e2 	movepc	rret,8
    9c34:	14 30 d8 f7 	br	10 <compare>,#al
    9c38:	00 10 00 41 	add	r2,1
    9c3c:	0d 41 7d 1c 	wl16	r8,0xbfc
    9c40:	0d 60 01 03 	wh16	r8,0x3
    9c44:	10 40 01 08 	ld32	r8,r8
    9c48:	0d 43 ae 1c 	wl16	r16,0x1d7c
    9c4c:	0d 60 02 03 	wh16	r16,0x3
    9c50:	10 40 02 10 	ld32	r16,r16
    9c54:	0d 45 dd 3c 	wl16	r9,0x2efc
    9c58:	0d 60 01 23 	wh16	r9,0x3
    9c5c:	10 40 01 29 	ld32	r9,r9
    9c60:	00 00 01 10 	add	r8,r16
    9c64:	20 70 03 e2 	movepc	rret,8
    9c68:	14 30 d8 ea 	br	10 <compare>,#al
    9c6c:	00 10 00 41 	add	r2,1
    9c70:	0d 41 81 00 	wl16	r8,0xc00
    9c74:	0d 60 01 03 	wh16	r8,0x3
    9c78:	10 40 01 08 	ld32	r8,r8
    9c7c:	0d 43 b2 00 	wl16	r16,0x1d80
    9c80:	0d 60 02 03 	wh16	r16,0x3
    9c84:	10 40 02 10 	ld32	r16,r16
    9c88:	0d 45 e1 20 	wl16	r9,0x2f00
    9c8c:	0d 60 01 23 	wh16	r9,0x3
    9c90:	10 40 01 29 	ld32	r9,r9
    9c94:	00 00 01 10 	add	r8,r16
    9c98:	20 70 03 e2 	movepc	rret,8
    9c9c:	14 30 d8 dd 	br	10 <compare>,#al
    9ca0:	00 10 00 41 	add	r2,1
    9ca4:	0d 41 81 04 	wl16	r8,0xc04
    9ca8:	0d 60 01 03 	wh16	r8,0x3
    9cac:	10 40 01 08 	ld32	r8,r8
    9cb0:	0d 43 b2 04 	wl16	r16,0x1d84
    9cb4:	0d 60 02 03 	wh16	r16,0x3
    9cb8:	10 40 02 10 	ld32	r16,r16
    9cbc:	0d 45 e1 24 	wl16	r9,0x2f04
    9cc0:	0d 60 01 23 	wh16	r9,0x3
    9cc4:	10 40 01 29 	ld32	r9,r9
    9cc8:	00 00 01 10 	add	r8,r16
    9ccc:	20 70 03 e2 	movepc	rret,8
    9cd0:	14 30 d8 d0 	br	10 <compare>,#al
    9cd4:	00 10 00 41 	add	r2,1
    9cd8:	0d 41 81 08 	wl16	r8,0xc08
    9cdc:	0d 60 01 03 	wh16	r8,0x3
    9ce0:	10 40 01 08 	ld32	r8,r8
    9ce4:	0d 43 b2 08 	wl16	r16,0x1d88
    9ce8:	0d 60 02 03 	wh16	r16,0x3
    9cec:	10 40 02 10 	ld32	r16,r16
    9cf0:	0d 45 e1 28 	wl16	r9,0x2f08
    9cf4:	0d 60 01 23 	wh16	r9,0x3
    9cf8:	10 40 01 29 	ld32	r9,r9
    9cfc:	00 00 01 10 	add	r8,r16
    9d00:	20 70 03 e2 	movepc	rret,8
    9d04:	14 30 d8 c3 	br	10 <compare>,#al
    9d08:	00 10 00 41 	add	r2,1
    9d0c:	0d 41 81 0c 	wl16	r8,0xc0c
    9d10:	0d 60 01 03 	wh16	r8,0x3
    9d14:	10 40 01 08 	ld32	r8,r8
    9d18:	0d 43 b2 0c 	wl16	r16,0x1d8c
    9d1c:	0d 60 02 03 	wh16	r16,0x3
    9d20:	10 40 02 10 	ld32	r16,r16
    9d24:	0d 45 e1 2c 	wl16	r9,0x2f0c
    9d28:	0d 60 01 23 	wh16	r9,0x3
    9d2c:	10 40 01 29 	ld32	r9,r9
    9d30:	00 00 01 10 	add	r8,r16
    9d34:	20 70 03 e2 	movepc	rret,8
    9d38:	14 30 d8 b6 	br	10 <compare>,#al
    9d3c:	00 10 00 41 	add	r2,1
    9d40:	0d 41 81 10 	wl16	r8,0xc10
    9d44:	0d 60 01 03 	wh16	r8,0x3
    9d48:	10 40 01 08 	ld32	r8,r8
    9d4c:	0d 43 b2 10 	wl16	r16,0x1d90
    9d50:	0d 60 02 03 	wh16	r16,0x3
    9d54:	10 40 02 10 	ld32	r16,r16
    9d58:	0d 45 e1 30 	wl16	r9,0x2f10
    9d5c:	0d 60 01 23 	wh16	r9,0x3
    9d60:	10 40 01 29 	ld32	r9,r9
    9d64:	00 00 01 10 	add	r8,r16
    9d68:	20 70 03 e2 	movepc	rret,8
    9d6c:	14 30 d8 a9 	br	10 <compare>,#al
    9d70:	00 10 00 41 	add	r2,1
    9d74:	0d 41 81 14 	wl16	r8,0xc14
    9d78:	0d 60 01 03 	wh16	r8,0x3
    9d7c:	10 40 01 08 	ld32	r8,r8
    9d80:	0d 43 b2 14 	wl16	r16,0x1d94
    9d84:	0d 60 02 03 	wh16	r16,0x3
    9d88:	10 40 02 10 	ld32	r16,r16
    9d8c:	0d 45 e1 34 	wl16	r9,0x2f14
    9d90:	0d 60 01 23 	wh16	r9,0x3
    9d94:	10 40 01 29 	ld32	r9,r9
    9d98:	00 00 01 10 	add	r8,r16
    9d9c:	20 70 03 e2 	movepc	rret,8
    9da0:	14 30 d8 9c 	br	10 <compare>,#al
    9da4:	00 10 00 41 	add	r2,1
    9da8:	0d 41 81 18 	wl16	r8,0xc18
    9dac:	0d 60 01 03 	wh16	r8,0x3
    9db0:	10 40 01 08 	ld32	r8,r8
    9db4:	0d 43 b2 18 	wl16	r16,0x1d98
    9db8:	0d 60 02 03 	wh16	r16,0x3
    9dbc:	10 40 02 10 	ld32	r16,r16
    9dc0:	0d 45 e1 38 	wl16	r9,0x2f18
    9dc4:	0d 60 01 23 	wh16	r9,0x3
    9dc8:	10 40 01 29 	ld32	r9,r9
    9dcc:	00 00 01 10 	add	r8,r16
    9dd0:	20 70 03 e2 	movepc	rret,8
    9dd4:	14 30 d8 8f 	br	10 <compare>,#al
    9dd8:	00 10 00 41 	add	r2,1
    9ddc:	0d 41 81 1c 	wl16	r8,0xc1c
    9de0:	0d 60 01 03 	wh16	r8,0x3
    9de4:	10 40 01 08 	ld32	r8,r8
    9de8:	0d 43 b2 1c 	wl16	r16,0x1d9c
    9dec:	0d 60 02 03 	wh16	r16,0x3
    9df0:	10 40 02 10 	ld32	r16,r16
    9df4:	0d 45 e1 3c 	wl16	r9,0x2f1c
    9df8:	0d 60 01 23 	wh16	r9,0x3
    9dfc:	10 40 01 29 	ld32	r9,r9
    9e00:	00 00 01 10 	add	r8,r16
    9e04:	20 70 03 e2 	movepc	rret,8
    9e08:	14 30 d8 82 	br	10 <compare>,#al
    9e0c:	00 10 00 41 	add	r2,1
    9e10:	0d 41 85 00 	wl16	r8,0xc20
    9e14:	0d 60 01 03 	wh16	r8,0x3
    9e18:	10 40 01 08 	ld32	r8,r8
    9e1c:	0d 43 b6 00 	wl16	r16,0x1da0
    9e20:	0d 60 02 03 	wh16	r16,0x3
    9e24:	10 40 02 10 	ld32	r16,r16
    9e28:	0d 45 e5 20 	wl16	r9,0x2f20
    9e2c:	0d 60 01 23 	wh16	r9,0x3
    9e30:	10 40 01 29 	ld32	r9,r9
    9e34:	00 00 01 10 	add	r8,r16
    9e38:	20 70 03 e2 	movepc	rret,8
    9e3c:	14 30 d8 75 	br	10 <compare>,#al
    9e40:	00 10 00 41 	add	r2,1
    9e44:	0d 41 85 04 	wl16	r8,0xc24
    9e48:	0d 60 01 03 	wh16	r8,0x3
    9e4c:	10 40 01 08 	ld32	r8,r8
    9e50:	0d 43 b6 04 	wl16	r16,0x1da4
    9e54:	0d 60 02 03 	wh16	r16,0x3
    9e58:	10 40 02 10 	ld32	r16,r16
    9e5c:	0d 45 e5 24 	wl16	r9,0x2f24
    9e60:	0d 60 01 23 	wh16	r9,0x3
    9e64:	10 40 01 29 	ld32	r9,r9
    9e68:	00 00 01 10 	add	r8,r16
    9e6c:	20 70 03 e2 	movepc	rret,8
    9e70:	14 30 d8 68 	br	10 <compare>,#al
    9e74:	00 10 00 41 	add	r2,1
    9e78:	0d 41 85 08 	wl16	r8,0xc28
    9e7c:	0d 60 01 03 	wh16	r8,0x3
    9e80:	10 40 01 08 	ld32	r8,r8
    9e84:	0d 43 b6 08 	wl16	r16,0x1da8
    9e88:	0d 60 02 03 	wh16	r16,0x3
    9e8c:	10 40 02 10 	ld32	r16,r16
    9e90:	0d 45 e5 28 	wl16	r9,0x2f28
    9e94:	0d 60 01 23 	wh16	r9,0x3
    9e98:	10 40 01 29 	ld32	r9,r9
    9e9c:	00 00 01 10 	add	r8,r16
    9ea0:	20 70 03 e2 	movepc	rret,8
    9ea4:	14 30 d8 5b 	br	10 <compare>,#al
    9ea8:	00 10 00 41 	add	r2,1
    9eac:	0d 41 85 0c 	wl16	r8,0xc2c
    9eb0:	0d 60 01 03 	wh16	r8,0x3
    9eb4:	10 40 01 08 	ld32	r8,r8
    9eb8:	0d 43 b6 0c 	wl16	r16,0x1dac
    9ebc:	0d 60 02 03 	wh16	r16,0x3
    9ec0:	10 40 02 10 	ld32	r16,r16
    9ec4:	0d 45 e5 2c 	wl16	r9,0x2f2c
    9ec8:	0d 60 01 23 	wh16	r9,0x3
    9ecc:	10 40 01 29 	ld32	r9,r9
    9ed0:	00 00 01 10 	add	r8,r16
    9ed4:	20 70 03 e2 	movepc	rret,8
    9ed8:	14 30 d8 4e 	br	10 <compare>,#al
    9edc:	00 10 00 41 	add	r2,1
    9ee0:	0d 41 85 10 	wl16	r8,0xc30
    9ee4:	0d 60 01 03 	wh16	r8,0x3
    9ee8:	10 40 01 08 	ld32	r8,r8
    9eec:	0d 43 b6 10 	wl16	r16,0x1db0
    9ef0:	0d 60 02 03 	wh16	r16,0x3
    9ef4:	10 40 02 10 	ld32	r16,r16
    9ef8:	0d 45 e5 30 	wl16	r9,0x2f30
    9efc:	0d 60 01 23 	wh16	r9,0x3
    9f00:	10 40 01 29 	ld32	r9,r9
    9f04:	00 00 01 10 	add	r8,r16
    9f08:	20 70 03 e2 	movepc	rret,8
    9f0c:	14 30 d8 41 	br	10 <compare>,#al
    9f10:	00 10 00 41 	add	r2,1
    9f14:	0d 41 85 14 	wl16	r8,0xc34
    9f18:	0d 60 01 03 	wh16	r8,0x3
    9f1c:	10 40 01 08 	ld32	r8,r8
    9f20:	0d 43 b6 14 	wl16	r16,0x1db4
    9f24:	0d 60 02 03 	wh16	r16,0x3
    9f28:	10 40 02 10 	ld32	r16,r16
    9f2c:	0d 45 e5 34 	wl16	r9,0x2f34
    9f30:	0d 60 01 23 	wh16	r9,0x3
    9f34:	10 40 01 29 	ld32	r9,r9
    9f38:	00 00 01 10 	add	r8,r16
    9f3c:	20 70 03 e2 	movepc	rret,8
    9f40:	14 30 d8 34 	br	10 <compare>,#al
    9f44:	00 10 00 41 	add	r2,1
    9f48:	0d 41 85 18 	wl16	r8,0xc38
    9f4c:	0d 60 01 03 	wh16	r8,0x3
    9f50:	10 40 01 08 	ld32	r8,r8
    9f54:	0d 43 b6 18 	wl16	r16,0x1db8
    9f58:	0d 60 02 03 	wh16	r16,0x3
    9f5c:	10 40 02 10 	ld32	r16,r16
    9f60:	0d 45 e5 38 	wl16	r9,0x2f38
    9f64:	0d 60 01 23 	wh16	r9,0x3
    9f68:	10 40 01 29 	ld32	r9,r9
    9f6c:	00 00 01 10 	add	r8,r16
    9f70:	20 70 03 e2 	movepc	rret,8
    9f74:	14 30 d8 27 	br	10 <compare>,#al
    9f78:	00 10 00 41 	add	r2,1
    9f7c:	0d 41 85 1c 	wl16	r8,0xc3c
    9f80:	0d 60 01 03 	wh16	r8,0x3
    9f84:	10 40 01 08 	ld32	r8,r8
    9f88:	0d 43 b6 1c 	wl16	r16,0x1dbc
    9f8c:	0d 60 02 03 	wh16	r16,0x3
    9f90:	10 40 02 10 	ld32	r16,r16
    9f94:	0d 45 e5 3c 	wl16	r9,0x2f3c
    9f98:	0d 60 01 23 	wh16	r9,0x3
    9f9c:	10 40 01 29 	ld32	r9,r9
    9fa0:	00 00 01 10 	add	r8,r16
    9fa4:	20 70 03 e2 	movepc	rret,8
    9fa8:	14 30 d8 1a 	br	10 <compare>,#al
    9fac:	00 10 00 41 	add	r2,1
    9fb0:	0d 41 89 00 	wl16	r8,0xc40
    9fb4:	0d 60 01 03 	wh16	r8,0x3
    9fb8:	10 40 01 08 	ld32	r8,r8
    9fbc:	0d 43 ba 00 	wl16	r16,0x1dc0
    9fc0:	0d 60 02 03 	wh16	r16,0x3
    9fc4:	10 40 02 10 	ld32	r16,r16
    9fc8:	0d 45 e9 20 	wl16	r9,0x2f40
    9fcc:	0d 60 01 23 	wh16	r9,0x3
    9fd0:	10 40 01 29 	ld32	r9,r9
    9fd4:	00 00 01 10 	add	r8,r16
    9fd8:	20 70 03 e2 	movepc	rret,8
    9fdc:	14 30 d8 0d 	br	10 <compare>,#al
    9fe0:	00 10 00 41 	add	r2,1
    9fe4:	0d 41 89 04 	wl16	r8,0xc44
    9fe8:	0d 60 01 03 	wh16	r8,0x3
    9fec:	10 40 01 08 	ld32	r8,r8
    9ff0:	0d 43 ba 04 	wl16	r16,0x1dc4
    9ff4:	0d 60 02 03 	wh16	r16,0x3
    9ff8:	10 40 02 10 	ld32	r16,r16
    9ffc:	0d 45 e9 24 	wl16	r9,0x2f44
    a000:	0d 60 01 23 	wh16	r9,0x3
    a004:	10 40 01 29 	ld32	r9,r9
    a008:	00 00 01 10 	add	r8,r16
    a00c:	20 70 03 e2 	movepc	rret,8
    a010:	14 30 d8 00 	br	10 <compare>,#al
    a014:	00 10 00 41 	add	r2,1
    a018:	0d 41 89 08 	wl16	r8,0xc48
    a01c:	0d 60 01 03 	wh16	r8,0x3
    a020:	10 40 01 08 	ld32	r8,r8
    a024:	0d 43 ba 08 	wl16	r16,0x1dc8
    a028:	0d 60 02 03 	wh16	r16,0x3
    a02c:	10 40 02 10 	ld32	r16,r16
    a030:	0d 45 e9 28 	wl16	r9,0x2f48
    a034:	0d 60 01 23 	wh16	r9,0x3
    a038:	10 40 01 29 	ld32	r9,r9
    a03c:	00 00 01 10 	add	r8,r16
    a040:	20 70 03 e2 	movepc	rret,8
    a044:	14 30 d7 f3 	br	10 <compare>,#al
    a048:	00 10 00 41 	add	r2,1
    a04c:	0d 41 89 0c 	wl16	r8,0xc4c
    a050:	0d 60 01 03 	wh16	r8,0x3
    a054:	10 40 01 08 	ld32	r8,r8
    a058:	0d 43 ba 0c 	wl16	r16,0x1dcc
    a05c:	0d 60 02 03 	wh16	r16,0x3
    a060:	10 40 02 10 	ld32	r16,r16
    a064:	0d 45 e9 2c 	wl16	r9,0x2f4c
    a068:	0d 60 01 23 	wh16	r9,0x3
    a06c:	10 40 01 29 	ld32	r9,r9
    a070:	00 00 01 10 	add	r8,r16
    a074:	20 70 03 e2 	movepc	rret,8
    a078:	14 30 d7 e6 	br	10 <compare>,#al
    a07c:	00 10 00 41 	add	r2,1
    a080:	0d 41 89 10 	wl16	r8,0xc50
    a084:	0d 60 01 03 	wh16	r8,0x3
    a088:	10 40 01 08 	ld32	r8,r8
    a08c:	0d 43 ba 10 	wl16	r16,0x1dd0
    a090:	0d 60 02 03 	wh16	r16,0x3
    a094:	10 40 02 10 	ld32	r16,r16
    a098:	0d 45 e9 30 	wl16	r9,0x2f50
    a09c:	0d 60 01 23 	wh16	r9,0x3
    a0a0:	10 40 01 29 	ld32	r9,r9
    a0a4:	00 00 01 10 	add	r8,r16
    a0a8:	20 70 03 e2 	movepc	rret,8
    a0ac:	14 30 d7 d9 	br	10 <compare>,#al
    a0b0:	00 10 00 41 	add	r2,1
    a0b4:	0d 41 89 14 	wl16	r8,0xc54
    a0b8:	0d 60 01 03 	wh16	r8,0x3
    a0bc:	10 40 01 08 	ld32	r8,r8
    a0c0:	0d 43 ba 14 	wl16	r16,0x1dd4
    a0c4:	0d 60 02 03 	wh16	r16,0x3
    a0c8:	10 40 02 10 	ld32	r16,r16
    a0cc:	0d 45 e9 34 	wl16	r9,0x2f54
    a0d0:	0d 60 01 23 	wh16	r9,0x3
    a0d4:	10 40 01 29 	ld32	r9,r9
    a0d8:	00 00 01 10 	add	r8,r16
    a0dc:	20 70 03 e2 	movepc	rret,8
    a0e0:	14 30 d7 cc 	br	10 <compare>,#al
    a0e4:	00 10 00 41 	add	r2,1
    a0e8:	0d 41 89 18 	wl16	r8,0xc58
    a0ec:	0d 60 01 03 	wh16	r8,0x3
    a0f0:	10 40 01 08 	ld32	r8,r8
    a0f4:	0d 43 ba 18 	wl16	r16,0x1dd8
    a0f8:	0d 60 02 03 	wh16	r16,0x3
    a0fc:	10 40 02 10 	ld32	r16,r16
    a100:	0d 45 e9 38 	wl16	r9,0x2f58
    a104:	0d 60 01 23 	wh16	r9,0x3
    a108:	10 40 01 29 	ld32	r9,r9
    a10c:	00 00 01 10 	add	r8,r16
    a110:	20 70 03 e2 	movepc	rret,8
    a114:	14 30 d7 bf 	br	10 <compare>,#al
    a118:	00 10 00 41 	add	r2,1
    a11c:	0d 41 89 1c 	wl16	r8,0xc5c
    a120:	0d 60 01 03 	wh16	r8,0x3
    a124:	10 40 01 08 	ld32	r8,r8
    a128:	0d 43 ba 1c 	wl16	r16,0x1ddc
    a12c:	0d 60 02 03 	wh16	r16,0x3
    a130:	10 40 02 10 	ld32	r16,r16
    a134:	0d 45 e9 3c 	wl16	r9,0x2f5c
    a138:	0d 60 01 23 	wh16	r9,0x3
    a13c:	10 40 01 29 	ld32	r9,r9
    a140:	00 00 01 10 	add	r8,r16
    a144:	20 70 03 e2 	movepc	rret,8
    a148:	14 30 d7 b2 	br	10 <compare>,#al
    a14c:	00 10 00 41 	add	r2,1
    a150:	0d 41 8d 00 	wl16	r8,0xc60
    a154:	0d 60 01 03 	wh16	r8,0x3
    a158:	10 40 01 08 	ld32	r8,r8
    a15c:	0d 43 be 00 	wl16	r16,0x1de0
    a160:	0d 60 02 03 	wh16	r16,0x3
    a164:	10 40 02 10 	ld32	r16,r16
    a168:	0d 45 ed 20 	wl16	r9,0x2f60
    a16c:	0d 60 01 23 	wh16	r9,0x3
    a170:	10 40 01 29 	ld32	r9,r9
    a174:	00 00 01 10 	add	r8,r16
    a178:	20 70 03 e2 	movepc	rret,8
    a17c:	14 30 d7 a5 	br	10 <compare>,#al
    a180:	00 10 00 41 	add	r2,1
    a184:	0d 41 8d 04 	wl16	r8,0xc64
    a188:	0d 60 01 03 	wh16	r8,0x3
    a18c:	10 40 01 08 	ld32	r8,r8
    a190:	0d 43 be 04 	wl16	r16,0x1de4
    a194:	0d 60 02 03 	wh16	r16,0x3
    a198:	10 40 02 10 	ld32	r16,r16
    a19c:	0d 45 ed 24 	wl16	r9,0x2f64
    a1a0:	0d 60 01 23 	wh16	r9,0x3
    a1a4:	10 40 01 29 	ld32	r9,r9
    a1a8:	00 00 01 10 	add	r8,r16
    a1ac:	20 70 03 e2 	movepc	rret,8
    a1b0:	14 30 d7 98 	br	10 <compare>,#al
    a1b4:	00 10 00 41 	add	r2,1
    a1b8:	0d 41 8d 08 	wl16	r8,0xc68
    a1bc:	0d 60 01 03 	wh16	r8,0x3
    a1c0:	10 40 01 08 	ld32	r8,r8
    a1c4:	0d 43 be 08 	wl16	r16,0x1de8
    a1c8:	0d 60 02 03 	wh16	r16,0x3
    a1cc:	10 40 02 10 	ld32	r16,r16
    a1d0:	0d 45 ed 28 	wl16	r9,0x2f68
    a1d4:	0d 60 01 23 	wh16	r9,0x3
    a1d8:	10 40 01 29 	ld32	r9,r9
    a1dc:	00 00 01 10 	add	r8,r16
    a1e0:	20 70 03 e2 	movepc	rret,8
    a1e4:	14 30 d7 8b 	br	10 <compare>,#al
    a1e8:	00 10 00 41 	add	r2,1
    a1ec:	0d 41 8d 0c 	wl16	r8,0xc6c
    a1f0:	0d 60 01 03 	wh16	r8,0x3
    a1f4:	10 40 01 08 	ld32	r8,r8
    a1f8:	0d 43 be 0c 	wl16	r16,0x1dec
    a1fc:	0d 60 02 03 	wh16	r16,0x3
    a200:	10 40 02 10 	ld32	r16,r16
    a204:	0d 45 ed 2c 	wl16	r9,0x2f6c
    a208:	0d 60 01 23 	wh16	r9,0x3
    a20c:	10 40 01 29 	ld32	r9,r9
    a210:	00 00 01 10 	add	r8,r16
    a214:	20 70 03 e2 	movepc	rret,8
    a218:	14 30 d7 7e 	br	10 <compare>,#al
    a21c:	00 10 00 41 	add	r2,1
    a220:	0d 41 8d 10 	wl16	r8,0xc70
    a224:	0d 60 01 03 	wh16	r8,0x3
    a228:	10 40 01 08 	ld32	r8,r8
    a22c:	0d 43 be 10 	wl16	r16,0x1df0
    a230:	0d 60 02 03 	wh16	r16,0x3
    a234:	10 40 02 10 	ld32	r16,r16
    a238:	0d 45 ed 30 	wl16	r9,0x2f70
    a23c:	0d 60 01 23 	wh16	r9,0x3
    a240:	10 40 01 29 	ld32	r9,r9
    a244:	00 00 01 10 	add	r8,r16
    a248:	20 70 03 e2 	movepc	rret,8
    a24c:	14 30 d7 71 	br	10 <compare>,#al
    a250:	00 10 00 41 	add	r2,1
    a254:	0d 41 8d 14 	wl16	r8,0xc74
    a258:	0d 60 01 03 	wh16	r8,0x3
    a25c:	10 40 01 08 	ld32	r8,r8
    a260:	0d 43 be 14 	wl16	r16,0x1df4
    a264:	0d 60 02 03 	wh16	r16,0x3
    a268:	10 40 02 10 	ld32	r16,r16
    a26c:	0d 45 ed 34 	wl16	r9,0x2f74
    a270:	0d 60 01 23 	wh16	r9,0x3
    a274:	10 40 01 29 	ld32	r9,r9
    a278:	00 00 01 10 	add	r8,r16
    a27c:	20 70 03 e2 	movepc	rret,8
    a280:	14 30 d7 64 	br	10 <compare>,#al
    a284:	00 10 00 41 	add	r2,1
    a288:	0d 41 8d 18 	wl16	r8,0xc78
    a28c:	0d 60 01 03 	wh16	r8,0x3
    a290:	10 40 01 08 	ld32	r8,r8
    a294:	0d 43 be 18 	wl16	r16,0x1df8
    a298:	0d 60 02 03 	wh16	r16,0x3
    a29c:	10 40 02 10 	ld32	r16,r16
    a2a0:	0d 45 ed 38 	wl16	r9,0x2f78
    a2a4:	0d 60 01 23 	wh16	r9,0x3
    a2a8:	10 40 01 29 	ld32	r9,r9
    a2ac:	00 00 01 10 	add	r8,r16
    a2b0:	20 70 03 e2 	movepc	rret,8
    a2b4:	14 30 d7 57 	br	10 <compare>,#al
    a2b8:	00 10 00 41 	add	r2,1
    a2bc:	0d 41 8d 1c 	wl16	r8,0xc7c
    a2c0:	0d 60 01 03 	wh16	r8,0x3
    a2c4:	10 40 01 08 	ld32	r8,r8
    a2c8:	0d 43 be 1c 	wl16	r16,0x1dfc
    a2cc:	0d 60 02 03 	wh16	r16,0x3
    a2d0:	10 40 02 10 	ld32	r16,r16
    a2d4:	0d 45 ed 3c 	wl16	r9,0x2f7c
    a2d8:	0d 60 01 23 	wh16	r9,0x3
    a2dc:	10 40 01 29 	ld32	r9,r9
    a2e0:	00 00 01 10 	add	r8,r16
    a2e4:	20 70 03 e2 	movepc	rret,8
    a2e8:	14 30 d7 4a 	br	10 <compare>,#al
    a2ec:	00 10 00 41 	add	r2,1
    a2f0:	0d 41 91 00 	wl16	r8,0xc80
    a2f4:	0d 60 01 03 	wh16	r8,0x3
    a2f8:	10 40 01 08 	ld32	r8,r8
    a2fc:	0d 43 c2 00 	wl16	r16,0x1e00
    a300:	0d 60 02 03 	wh16	r16,0x3
    a304:	10 40 02 10 	ld32	r16,r16
    a308:	0d 45 f1 20 	wl16	r9,0x2f80
    a30c:	0d 60 01 23 	wh16	r9,0x3
    a310:	10 40 01 29 	ld32	r9,r9
    a314:	00 00 01 10 	add	r8,r16
    a318:	20 70 03 e2 	movepc	rret,8
    a31c:	14 30 d7 3d 	br	10 <compare>,#al
    a320:	00 10 00 41 	add	r2,1
    a324:	0d 41 91 04 	wl16	r8,0xc84
    a328:	0d 60 01 03 	wh16	r8,0x3
    a32c:	10 40 01 08 	ld32	r8,r8
    a330:	0d 43 c2 04 	wl16	r16,0x1e04
    a334:	0d 60 02 03 	wh16	r16,0x3
    a338:	10 40 02 10 	ld32	r16,r16
    a33c:	0d 45 f1 24 	wl16	r9,0x2f84
    a340:	0d 60 01 23 	wh16	r9,0x3
    a344:	10 40 01 29 	ld32	r9,r9
    a348:	00 00 01 10 	add	r8,r16
    a34c:	20 70 03 e2 	movepc	rret,8
    a350:	14 30 d7 30 	br	10 <compare>,#al
    a354:	00 10 00 41 	add	r2,1
    a358:	0d 41 91 08 	wl16	r8,0xc88
    a35c:	0d 60 01 03 	wh16	r8,0x3
    a360:	10 40 01 08 	ld32	r8,r8
    a364:	0d 43 c2 08 	wl16	r16,0x1e08
    a368:	0d 60 02 03 	wh16	r16,0x3
    a36c:	10 40 02 10 	ld32	r16,r16
    a370:	0d 45 f1 28 	wl16	r9,0x2f88
    a374:	0d 60 01 23 	wh16	r9,0x3
    a378:	10 40 01 29 	ld32	r9,r9
    a37c:	00 00 01 10 	add	r8,r16
    a380:	20 70 03 e2 	movepc	rret,8
    a384:	14 30 d7 23 	br	10 <compare>,#al
    a388:	00 10 00 41 	add	r2,1
    a38c:	0d 41 91 0c 	wl16	r8,0xc8c
    a390:	0d 60 01 03 	wh16	r8,0x3
    a394:	10 40 01 08 	ld32	r8,r8
    a398:	0d 43 c2 0c 	wl16	r16,0x1e0c
    a39c:	0d 60 02 03 	wh16	r16,0x3
    a3a0:	10 40 02 10 	ld32	r16,r16
    a3a4:	0d 45 f1 2c 	wl16	r9,0x2f8c
    a3a8:	0d 60 01 23 	wh16	r9,0x3
    a3ac:	10 40 01 29 	ld32	r9,r9
    a3b0:	00 00 01 10 	add	r8,r16
    a3b4:	20 70 03 e2 	movepc	rret,8
    a3b8:	14 30 d7 16 	br	10 <compare>,#al
    a3bc:	00 10 00 41 	add	r2,1
    a3c0:	0d 41 91 10 	wl16	r8,0xc90
    a3c4:	0d 60 01 03 	wh16	r8,0x3
    a3c8:	10 40 01 08 	ld32	r8,r8
    a3cc:	0d 43 c2 10 	wl16	r16,0x1e10
    a3d0:	0d 60 02 03 	wh16	r16,0x3
    a3d4:	10 40 02 10 	ld32	r16,r16
    a3d8:	0d 45 f1 30 	wl16	r9,0x2f90
    a3dc:	0d 60 01 23 	wh16	r9,0x3
    a3e0:	10 40 01 29 	ld32	r9,r9
    a3e4:	00 00 01 10 	add	r8,r16
    a3e8:	20 70 03 e2 	movepc	rret,8
    a3ec:	14 30 d7 09 	br	10 <compare>,#al
    a3f0:	00 10 00 41 	add	r2,1
    a3f4:	0d 41 91 14 	wl16	r8,0xc94
    a3f8:	0d 60 01 03 	wh16	r8,0x3
    a3fc:	10 40 01 08 	ld32	r8,r8
    a400:	0d 43 c2 14 	wl16	r16,0x1e14
    a404:	0d 60 02 03 	wh16	r16,0x3
    a408:	10 40 02 10 	ld32	r16,r16
    a40c:	0d 45 f1 34 	wl16	r9,0x2f94
    a410:	0d 60 01 23 	wh16	r9,0x3
    a414:	10 40 01 29 	ld32	r9,r9
    a418:	00 00 01 10 	add	r8,r16
    a41c:	20 70 03 e2 	movepc	rret,8
    a420:	14 30 d6 fc 	br	10 <compare>,#al
    a424:	00 10 00 41 	add	r2,1
    a428:	0d 41 91 18 	wl16	r8,0xc98
    a42c:	0d 60 01 03 	wh16	r8,0x3
    a430:	10 40 01 08 	ld32	r8,r8
    a434:	0d 43 c2 18 	wl16	r16,0x1e18
    a438:	0d 60 02 03 	wh16	r16,0x3
    a43c:	10 40 02 10 	ld32	r16,r16
    a440:	0d 45 f1 38 	wl16	r9,0x2f98
    a444:	0d 60 01 23 	wh16	r9,0x3
    a448:	10 40 01 29 	ld32	r9,r9
    a44c:	00 00 01 10 	add	r8,r16
    a450:	20 70 03 e2 	movepc	rret,8
    a454:	14 30 d6 ef 	br	10 <compare>,#al
    a458:	00 10 00 41 	add	r2,1
    a45c:	0d 41 91 1c 	wl16	r8,0xc9c
    a460:	0d 60 01 03 	wh16	r8,0x3
    a464:	10 40 01 08 	ld32	r8,r8
    a468:	0d 43 c2 1c 	wl16	r16,0x1e1c
    a46c:	0d 60 02 03 	wh16	r16,0x3
    a470:	10 40 02 10 	ld32	r16,r16
    a474:	0d 45 f1 3c 	wl16	r9,0x2f9c
    a478:	0d 60 01 23 	wh16	r9,0x3
    a47c:	10 40 01 29 	ld32	r9,r9
    a480:	00 00 01 10 	add	r8,r16
    a484:	20 70 03 e2 	movepc	rret,8
    a488:	14 30 d6 e2 	br	10 <compare>,#al
    a48c:	00 10 00 41 	add	r2,1
    a490:	0d 41 95 00 	wl16	r8,0xca0
    a494:	0d 60 01 03 	wh16	r8,0x3
    a498:	10 40 01 08 	ld32	r8,r8
    a49c:	0d 43 c6 00 	wl16	r16,0x1e20
    a4a0:	0d 60 02 03 	wh16	r16,0x3
    a4a4:	10 40 02 10 	ld32	r16,r16
    a4a8:	0d 45 f5 20 	wl16	r9,0x2fa0
    a4ac:	0d 60 01 23 	wh16	r9,0x3
    a4b0:	10 40 01 29 	ld32	r9,r9
    a4b4:	00 00 01 10 	add	r8,r16
    a4b8:	20 70 03 e2 	movepc	rret,8
    a4bc:	14 30 d6 d5 	br	10 <compare>,#al
    a4c0:	00 10 00 41 	add	r2,1
    a4c4:	0d 41 95 04 	wl16	r8,0xca4
    a4c8:	0d 60 01 03 	wh16	r8,0x3
    a4cc:	10 40 01 08 	ld32	r8,r8
    a4d0:	0d 43 c6 04 	wl16	r16,0x1e24
    a4d4:	0d 60 02 03 	wh16	r16,0x3
    a4d8:	10 40 02 10 	ld32	r16,r16
    a4dc:	0d 45 f5 24 	wl16	r9,0x2fa4
    a4e0:	0d 60 01 23 	wh16	r9,0x3
    a4e4:	10 40 01 29 	ld32	r9,r9
    a4e8:	00 00 01 10 	add	r8,r16
    a4ec:	20 70 03 e2 	movepc	rret,8
    a4f0:	14 30 d6 c8 	br	10 <compare>,#al
    a4f4:	00 10 00 41 	add	r2,1
    a4f8:	0d 41 95 08 	wl16	r8,0xca8
    a4fc:	0d 60 01 03 	wh16	r8,0x3
    a500:	10 40 01 08 	ld32	r8,r8
    a504:	0d 43 c6 08 	wl16	r16,0x1e28
    a508:	0d 60 02 03 	wh16	r16,0x3
    a50c:	10 40 02 10 	ld32	r16,r16
    a510:	0d 45 f5 28 	wl16	r9,0x2fa8
    a514:	0d 60 01 23 	wh16	r9,0x3
    a518:	10 40 01 29 	ld32	r9,r9
    a51c:	00 00 01 10 	add	r8,r16
    a520:	20 70 03 e2 	movepc	rret,8
    a524:	14 30 d6 bb 	br	10 <compare>,#al
    a528:	00 10 00 41 	add	r2,1
    a52c:	0d 41 95 0c 	wl16	r8,0xcac
    a530:	0d 60 01 03 	wh16	r8,0x3
    a534:	10 40 01 08 	ld32	r8,r8
    a538:	0d 43 c6 0c 	wl16	r16,0x1e2c
    a53c:	0d 60 02 03 	wh16	r16,0x3
    a540:	10 40 02 10 	ld32	r16,r16
    a544:	0d 45 f5 2c 	wl16	r9,0x2fac
    a548:	0d 60 01 23 	wh16	r9,0x3
    a54c:	10 40 01 29 	ld32	r9,r9
    a550:	00 00 01 10 	add	r8,r16
    a554:	20 70 03 e2 	movepc	rret,8
    a558:	14 30 d6 ae 	br	10 <compare>,#al
    a55c:	00 10 00 41 	add	r2,1
    a560:	0d 41 95 10 	wl16	r8,0xcb0
    a564:	0d 60 01 03 	wh16	r8,0x3
    a568:	10 40 01 08 	ld32	r8,r8
    a56c:	0d 43 c6 10 	wl16	r16,0x1e30
    a570:	0d 60 02 03 	wh16	r16,0x3
    a574:	10 40 02 10 	ld32	r16,r16
    a578:	0d 45 f5 30 	wl16	r9,0x2fb0
    a57c:	0d 60 01 23 	wh16	r9,0x3
    a580:	10 40 01 29 	ld32	r9,r9
    a584:	00 00 01 10 	add	r8,r16
    a588:	20 70 03 e2 	movepc	rret,8
    a58c:	14 30 d6 a1 	br	10 <compare>,#al
    a590:	00 10 00 41 	add	r2,1
    a594:	0d 41 95 14 	wl16	r8,0xcb4
    a598:	0d 60 01 03 	wh16	r8,0x3
    a59c:	10 40 01 08 	ld32	r8,r8
    a5a0:	0d 43 c6 14 	wl16	r16,0x1e34
    a5a4:	0d 60 02 03 	wh16	r16,0x3
    a5a8:	10 40 02 10 	ld32	r16,r16
    a5ac:	0d 45 f5 34 	wl16	r9,0x2fb4
    a5b0:	0d 60 01 23 	wh16	r9,0x3
    a5b4:	10 40 01 29 	ld32	r9,r9
    a5b8:	00 00 01 10 	add	r8,r16
    a5bc:	20 70 03 e2 	movepc	rret,8
    a5c0:	14 30 d6 94 	br	10 <compare>,#al
    a5c4:	00 10 00 41 	add	r2,1
    a5c8:	0d 41 95 18 	wl16	r8,0xcb8
    a5cc:	0d 60 01 03 	wh16	r8,0x3
    a5d0:	10 40 01 08 	ld32	r8,r8
    a5d4:	0d 43 c6 18 	wl16	r16,0x1e38
    a5d8:	0d 60 02 03 	wh16	r16,0x3
    a5dc:	10 40 02 10 	ld32	r16,r16
    a5e0:	0d 45 f5 38 	wl16	r9,0x2fb8
    a5e4:	0d 60 01 23 	wh16	r9,0x3
    a5e8:	10 40 01 29 	ld32	r9,r9
    a5ec:	00 00 01 10 	add	r8,r16
    a5f0:	20 70 03 e2 	movepc	rret,8
    a5f4:	14 30 d6 87 	br	10 <compare>,#al
    a5f8:	00 10 00 41 	add	r2,1
    a5fc:	0d 41 95 1c 	wl16	r8,0xcbc
    a600:	0d 60 01 03 	wh16	r8,0x3
    a604:	10 40 01 08 	ld32	r8,r8
    a608:	0d 43 c6 1c 	wl16	r16,0x1e3c
    a60c:	0d 60 02 03 	wh16	r16,0x3
    a610:	10 40 02 10 	ld32	r16,r16
    a614:	0d 45 f5 3c 	wl16	r9,0x2fbc
    a618:	0d 60 01 23 	wh16	r9,0x3
    a61c:	10 40 01 29 	ld32	r9,r9
    a620:	00 00 01 10 	add	r8,r16
    a624:	20 70 03 e2 	movepc	rret,8
    a628:	14 30 d6 7a 	br	10 <compare>,#al
    a62c:	00 10 00 41 	add	r2,1
    a630:	0d 41 99 00 	wl16	r8,0xcc0
    a634:	0d 60 01 03 	wh16	r8,0x3
    a638:	10 40 01 08 	ld32	r8,r8
    a63c:	0d 43 ca 00 	wl16	r16,0x1e40
    a640:	0d 60 02 03 	wh16	r16,0x3
    a644:	10 40 02 10 	ld32	r16,r16
    a648:	0d 45 f9 20 	wl16	r9,0x2fc0
    a64c:	0d 60 01 23 	wh16	r9,0x3
    a650:	10 40 01 29 	ld32	r9,r9
    a654:	00 00 01 10 	add	r8,r16
    a658:	20 70 03 e2 	movepc	rret,8
    a65c:	14 30 d6 6d 	br	10 <compare>,#al
    a660:	00 10 00 41 	add	r2,1
    a664:	0d 41 99 04 	wl16	r8,0xcc4
    a668:	0d 60 01 03 	wh16	r8,0x3
    a66c:	10 40 01 08 	ld32	r8,r8
    a670:	0d 43 ca 04 	wl16	r16,0x1e44
    a674:	0d 60 02 03 	wh16	r16,0x3
    a678:	10 40 02 10 	ld32	r16,r16
    a67c:	0d 45 f9 24 	wl16	r9,0x2fc4
    a680:	0d 60 01 23 	wh16	r9,0x3
    a684:	10 40 01 29 	ld32	r9,r9
    a688:	00 00 01 10 	add	r8,r16
    a68c:	20 70 03 e2 	movepc	rret,8
    a690:	14 30 d6 60 	br	10 <compare>,#al
    a694:	00 10 00 41 	add	r2,1
    a698:	0d 41 99 08 	wl16	r8,0xcc8
    a69c:	0d 60 01 03 	wh16	r8,0x3
    a6a0:	10 40 01 08 	ld32	r8,r8
    a6a4:	0d 43 ca 08 	wl16	r16,0x1e48
    a6a8:	0d 60 02 03 	wh16	r16,0x3
    a6ac:	10 40 02 10 	ld32	r16,r16
    a6b0:	0d 45 f9 28 	wl16	r9,0x2fc8
    a6b4:	0d 60 01 23 	wh16	r9,0x3
    a6b8:	10 40 01 29 	ld32	r9,r9
    a6bc:	00 00 01 10 	add	r8,r16
    a6c0:	20 70 03 e2 	movepc	rret,8
    a6c4:	14 30 d6 53 	br	10 <compare>,#al
    a6c8:	00 10 00 41 	add	r2,1
    a6cc:	0d 41 99 0c 	wl16	r8,0xccc
    a6d0:	0d 60 01 03 	wh16	r8,0x3
    a6d4:	10 40 01 08 	ld32	r8,r8
    a6d8:	0d 43 ca 0c 	wl16	r16,0x1e4c
    a6dc:	0d 60 02 03 	wh16	r16,0x3
    a6e0:	10 40 02 10 	ld32	r16,r16
    a6e4:	0d 45 f9 2c 	wl16	r9,0x2fcc
    a6e8:	0d 60 01 23 	wh16	r9,0x3
    a6ec:	10 40 01 29 	ld32	r9,r9
    a6f0:	00 00 01 10 	add	r8,r16
    a6f4:	20 70 03 e2 	movepc	rret,8
    a6f8:	14 30 d6 46 	br	10 <compare>,#al
    a6fc:	00 10 00 41 	add	r2,1
    a700:	0d 41 99 10 	wl16	r8,0xcd0
    a704:	0d 60 01 03 	wh16	r8,0x3
    a708:	10 40 01 08 	ld32	r8,r8
    a70c:	0d 43 ca 10 	wl16	r16,0x1e50
    a710:	0d 60 02 03 	wh16	r16,0x3
    a714:	10 40 02 10 	ld32	r16,r16
    a718:	0d 45 f9 30 	wl16	r9,0x2fd0
    a71c:	0d 60 01 23 	wh16	r9,0x3
    a720:	10 40 01 29 	ld32	r9,r9
    a724:	00 00 01 10 	add	r8,r16
    a728:	20 70 03 e2 	movepc	rret,8
    a72c:	14 30 d6 39 	br	10 <compare>,#al
    a730:	00 10 00 41 	add	r2,1
    a734:	0d 41 99 14 	wl16	r8,0xcd4
    a738:	0d 60 01 03 	wh16	r8,0x3
    a73c:	10 40 01 08 	ld32	r8,r8
    a740:	0d 43 ca 14 	wl16	r16,0x1e54
    a744:	0d 60 02 03 	wh16	r16,0x3
    a748:	10 40 02 10 	ld32	r16,r16
    a74c:	0d 45 f9 34 	wl16	r9,0x2fd4
    a750:	0d 60 01 23 	wh16	r9,0x3
    a754:	10 40 01 29 	ld32	r9,r9
    a758:	00 00 01 10 	add	r8,r16
    a75c:	20 70 03 e2 	movepc	rret,8
    a760:	14 30 d6 2c 	br	10 <compare>,#al
    a764:	00 10 00 41 	add	r2,1
    a768:	0d 41 99 18 	wl16	r8,0xcd8
    a76c:	0d 60 01 03 	wh16	r8,0x3
    a770:	10 40 01 08 	ld32	r8,r8
    a774:	0d 43 ca 18 	wl16	r16,0x1e58
    a778:	0d 60 02 03 	wh16	r16,0x3
    a77c:	10 40 02 10 	ld32	r16,r16
    a780:	0d 45 f9 38 	wl16	r9,0x2fd8
    a784:	0d 60 01 23 	wh16	r9,0x3
    a788:	10 40 01 29 	ld32	r9,r9
    a78c:	00 00 01 10 	add	r8,r16
    a790:	20 70 03 e2 	movepc	rret,8
    a794:	14 30 d6 1f 	br	10 <compare>,#al
    a798:	00 10 00 41 	add	r2,1
    a79c:	0d 41 99 1c 	wl16	r8,0xcdc
    a7a0:	0d 60 01 03 	wh16	r8,0x3
    a7a4:	10 40 01 08 	ld32	r8,r8
    a7a8:	0d 43 ca 1c 	wl16	r16,0x1e5c
    a7ac:	0d 60 02 03 	wh16	r16,0x3
    a7b0:	10 40 02 10 	ld32	r16,r16
    a7b4:	0d 45 f9 3c 	wl16	r9,0x2fdc
    a7b8:	0d 60 01 23 	wh16	r9,0x3
    a7bc:	10 40 01 29 	ld32	r9,r9
    a7c0:	00 00 01 10 	add	r8,r16
    a7c4:	20 70 03 e2 	movepc	rret,8
    a7c8:	14 30 d6 12 	br	10 <compare>,#al
    a7cc:	00 10 00 41 	add	r2,1
    a7d0:	0d 41 9d 00 	wl16	r8,0xce0
    a7d4:	0d 60 01 03 	wh16	r8,0x3
    a7d8:	10 40 01 08 	ld32	r8,r8
    a7dc:	0d 43 ce 00 	wl16	r16,0x1e60
    a7e0:	0d 60 02 03 	wh16	r16,0x3
    a7e4:	10 40 02 10 	ld32	r16,r16
    a7e8:	0d 45 fd 20 	wl16	r9,0x2fe0
    a7ec:	0d 60 01 23 	wh16	r9,0x3
    a7f0:	10 40 01 29 	ld32	r9,r9
    a7f4:	00 00 01 10 	add	r8,r16
    a7f8:	20 70 03 e2 	movepc	rret,8
    a7fc:	14 30 d6 05 	br	10 <compare>,#al
    a800:	00 10 00 41 	add	r2,1
    a804:	0d 41 9d 04 	wl16	r8,0xce4
    a808:	0d 60 01 03 	wh16	r8,0x3
    a80c:	10 40 01 08 	ld32	r8,r8
    a810:	0d 43 ce 04 	wl16	r16,0x1e64
    a814:	0d 60 02 03 	wh16	r16,0x3
    a818:	10 40 02 10 	ld32	r16,r16
    a81c:	0d 45 fd 24 	wl16	r9,0x2fe4
    a820:	0d 60 01 23 	wh16	r9,0x3
    a824:	10 40 01 29 	ld32	r9,r9
    a828:	00 00 01 10 	add	r8,r16
    a82c:	20 70 03 e2 	movepc	rret,8
    a830:	14 30 d5 f8 	br	10 <compare>,#al
    a834:	00 10 00 41 	add	r2,1
    a838:	0d 41 9d 08 	wl16	r8,0xce8
    a83c:	0d 60 01 03 	wh16	r8,0x3
    a840:	10 40 01 08 	ld32	r8,r8
    a844:	0d 43 ce 08 	wl16	r16,0x1e68
    a848:	0d 60 02 03 	wh16	r16,0x3
    a84c:	10 40 02 10 	ld32	r16,r16
    a850:	0d 45 fd 28 	wl16	r9,0x2fe8
    a854:	0d 60 01 23 	wh16	r9,0x3
    a858:	10 40 01 29 	ld32	r9,r9
    a85c:	00 00 01 10 	add	r8,r16
    a860:	20 70 03 e2 	movepc	rret,8
    a864:	14 30 d5 eb 	br	10 <compare>,#al
    a868:	00 10 00 41 	add	r2,1
    a86c:	0d 41 9d 0c 	wl16	r8,0xcec
    a870:	0d 60 01 03 	wh16	r8,0x3
    a874:	10 40 01 08 	ld32	r8,r8
    a878:	0d 43 ce 0c 	wl16	r16,0x1e6c
    a87c:	0d 60 02 03 	wh16	r16,0x3
    a880:	10 40 02 10 	ld32	r16,r16
    a884:	0d 45 fd 2c 	wl16	r9,0x2fec
    a888:	0d 60 01 23 	wh16	r9,0x3
    a88c:	10 40 01 29 	ld32	r9,r9
    a890:	00 00 01 10 	add	r8,r16
    a894:	20 70 03 e2 	movepc	rret,8
    a898:	14 30 d5 de 	br	10 <compare>,#al
    a89c:	00 10 00 41 	add	r2,1
    a8a0:	0d 41 9d 10 	wl16	r8,0xcf0
    a8a4:	0d 60 01 03 	wh16	r8,0x3
    a8a8:	10 40 01 08 	ld32	r8,r8
    a8ac:	0d 43 ce 10 	wl16	r16,0x1e70
    a8b0:	0d 60 02 03 	wh16	r16,0x3
    a8b4:	10 40 02 10 	ld32	r16,r16
    a8b8:	0d 45 fd 30 	wl16	r9,0x2ff0
    a8bc:	0d 60 01 23 	wh16	r9,0x3
    a8c0:	10 40 01 29 	ld32	r9,r9
    a8c4:	00 00 01 10 	add	r8,r16
    a8c8:	20 70 03 e2 	movepc	rret,8
    a8cc:	14 30 d5 d1 	br	10 <compare>,#al
    a8d0:	00 10 00 41 	add	r2,1
    a8d4:	0d 41 9d 14 	wl16	r8,0xcf4
    a8d8:	0d 60 01 03 	wh16	r8,0x3
    a8dc:	10 40 01 08 	ld32	r8,r8
    a8e0:	0d 43 ce 14 	wl16	r16,0x1e74
    a8e4:	0d 60 02 03 	wh16	r16,0x3
    a8e8:	10 40 02 10 	ld32	r16,r16
    a8ec:	0d 45 fd 34 	wl16	r9,0x2ff4
    a8f0:	0d 60 01 23 	wh16	r9,0x3
    a8f4:	10 40 01 29 	ld32	r9,r9
    a8f8:	00 00 01 10 	add	r8,r16
    a8fc:	20 70 03 e2 	movepc	rret,8
    a900:	14 30 d5 c4 	br	10 <compare>,#al
    a904:	00 10 00 41 	add	r2,1
    a908:	0d 41 9d 18 	wl16	r8,0xcf8
    a90c:	0d 60 01 03 	wh16	r8,0x3
    a910:	10 40 01 08 	ld32	r8,r8
    a914:	0d 43 ce 18 	wl16	r16,0x1e78
    a918:	0d 60 02 03 	wh16	r16,0x3
    a91c:	10 40 02 10 	ld32	r16,r16
    a920:	0d 45 fd 38 	wl16	r9,0x2ff8
    a924:	0d 60 01 23 	wh16	r9,0x3
    a928:	10 40 01 29 	ld32	r9,r9
    a92c:	00 00 01 10 	add	r8,r16
    a930:	20 70 03 e2 	movepc	rret,8
    a934:	14 30 d5 b7 	br	10 <compare>,#al
    a938:	00 10 00 41 	add	r2,1
    a93c:	0d 41 9d 1c 	wl16	r8,0xcfc
    a940:	0d 60 01 03 	wh16	r8,0x3
    a944:	10 40 01 08 	ld32	r8,r8
    a948:	0d 43 ce 1c 	wl16	r16,0x1e7c
    a94c:	0d 60 02 03 	wh16	r16,0x3
    a950:	10 40 02 10 	ld32	r16,r16
    a954:	0d 45 fd 3c 	wl16	r9,0x2ffc
    a958:	0d 60 01 23 	wh16	r9,0x3
    a95c:	10 40 01 29 	ld32	r9,r9
    a960:	00 00 01 10 	add	r8,r16
    a964:	20 70 03 e2 	movepc	rret,8
    a968:	14 30 d5 aa 	br	10 <compare>,#al
    a96c:	00 10 00 41 	add	r2,1
    a970:	0d 41 a1 00 	wl16	r8,0xd00
    a974:	0d 60 01 03 	wh16	r8,0x3
    a978:	10 40 01 08 	ld32	r8,r8
    a97c:	0d 43 d2 00 	wl16	r16,0x1e80
    a980:	0d 60 02 03 	wh16	r16,0x3
    a984:	10 40 02 10 	ld32	r16,r16
    a988:	0d 46 01 20 	wl16	r9,0x3000
    a98c:	0d 60 01 23 	wh16	r9,0x3
    a990:	10 40 01 29 	ld32	r9,r9
    a994:	00 00 01 10 	add	r8,r16
    a998:	20 70 03 e2 	movepc	rret,8
    a99c:	14 30 d5 9d 	br	10 <compare>,#al
    a9a0:	00 10 00 41 	add	r2,1
    a9a4:	0d 41 a1 04 	wl16	r8,0xd04
    a9a8:	0d 60 01 03 	wh16	r8,0x3
    a9ac:	10 40 01 08 	ld32	r8,r8
    a9b0:	0d 43 d2 04 	wl16	r16,0x1e84
    a9b4:	0d 60 02 03 	wh16	r16,0x3
    a9b8:	10 40 02 10 	ld32	r16,r16
    a9bc:	0d 46 01 24 	wl16	r9,0x3004
    a9c0:	0d 60 01 23 	wh16	r9,0x3
    a9c4:	10 40 01 29 	ld32	r9,r9
    a9c8:	00 00 01 10 	add	r8,r16
    a9cc:	20 70 03 e2 	movepc	rret,8
    a9d0:	14 30 d5 90 	br	10 <compare>,#al
    a9d4:	00 10 00 41 	add	r2,1
    a9d8:	0d 41 a1 08 	wl16	r8,0xd08
    a9dc:	0d 60 01 03 	wh16	r8,0x3
    a9e0:	10 40 01 08 	ld32	r8,r8
    a9e4:	0d 43 d2 08 	wl16	r16,0x1e88
    a9e8:	0d 60 02 03 	wh16	r16,0x3
    a9ec:	10 40 02 10 	ld32	r16,r16
    a9f0:	0d 46 01 28 	wl16	r9,0x3008
    a9f4:	0d 60 01 23 	wh16	r9,0x3
    a9f8:	10 40 01 29 	ld32	r9,r9
    a9fc:	00 00 01 10 	add	r8,r16
    aa00:	20 70 03 e2 	movepc	rret,8
    aa04:	14 30 d5 83 	br	10 <compare>,#al
    aa08:	00 10 00 41 	add	r2,1
    aa0c:	0d 41 a1 0c 	wl16	r8,0xd0c
    aa10:	0d 60 01 03 	wh16	r8,0x3
    aa14:	10 40 01 08 	ld32	r8,r8
    aa18:	0d 43 d2 0c 	wl16	r16,0x1e8c
    aa1c:	0d 60 02 03 	wh16	r16,0x3
    aa20:	10 40 02 10 	ld32	r16,r16
    aa24:	0d 46 01 2c 	wl16	r9,0x300c
    aa28:	0d 60 01 23 	wh16	r9,0x3
    aa2c:	10 40 01 29 	ld32	r9,r9
    aa30:	00 00 01 10 	add	r8,r16
    aa34:	20 70 03 e2 	movepc	rret,8
    aa38:	14 30 d5 76 	br	10 <compare>,#al
    aa3c:	00 10 00 41 	add	r2,1
    aa40:	0d 41 a1 10 	wl16	r8,0xd10
    aa44:	0d 60 01 03 	wh16	r8,0x3
    aa48:	10 40 01 08 	ld32	r8,r8
    aa4c:	0d 43 d2 10 	wl16	r16,0x1e90
    aa50:	0d 60 02 03 	wh16	r16,0x3
    aa54:	10 40 02 10 	ld32	r16,r16
    aa58:	0d 46 01 30 	wl16	r9,0x3010
    aa5c:	0d 60 01 23 	wh16	r9,0x3
    aa60:	10 40 01 29 	ld32	r9,r9
    aa64:	00 00 01 10 	add	r8,r16
    aa68:	20 70 03 e2 	movepc	rret,8
    aa6c:	14 30 d5 69 	br	10 <compare>,#al
    aa70:	00 10 00 41 	add	r2,1
    aa74:	0d 41 a1 14 	wl16	r8,0xd14
    aa78:	0d 60 01 03 	wh16	r8,0x3
    aa7c:	10 40 01 08 	ld32	r8,r8
    aa80:	0d 43 d2 14 	wl16	r16,0x1e94
    aa84:	0d 60 02 03 	wh16	r16,0x3
    aa88:	10 40 02 10 	ld32	r16,r16
    aa8c:	0d 46 01 34 	wl16	r9,0x3014
    aa90:	0d 60 01 23 	wh16	r9,0x3
    aa94:	10 40 01 29 	ld32	r9,r9
    aa98:	00 00 01 10 	add	r8,r16
    aa9c:	20 70 03 e2 	movepc	rret,8
    aaa0:	14 30 d5 5c 	br	10 <compare>,#al
    aaa4:	00 10 00 41 	add	r2,1
    aaa8:	0d 41 a1 18 	wl16	r8,0xd18
    aaac:	0d 60 01 03 	wh16	r8,0x3
    aab0:	10 40 01 08 	ld32	r8,r8
    aab4:	0d 43 d2 18 	wl16	r16,0x1e98
    aab8:	0d 60 02 03 	wh16	r16,0x3
    aabc:	10 40 02 10 	ld32	r16,r16
    aac0:	0d 46 01 38 	wl16	r9,0x3018
    aac4:	0d 60 01 23 	wh16	r9,0x3
    aac8:	10 40 01 29 	ld32	r9,r9
    aacc:	00 00 01 10 	add	r8,r16
    aad0:	20 70 03 e2 	movepc	rret,8
    aad4:	14 30 d5 4f 	br	10 <compare>,#al
    aad8:	00 10 00 41 	add	r2,1
    aadc:	0d 41 a1 1c 	wl16	r8,0xd1c
    aae0:	0d 60 01 03 	wh16	r8,0x3
    aae4:	10 40 01 08 	ld32	r8,r8
    aae8:	0d 43 d2 1c 	wl16	r16,0x1e9c
    aaec:	0d 60 02 03 	wh16	r16,0x3
    aaf0:	10 40 02 10 	ld32	r16,r16
    aaf4:	0d 46 01 3c 	wl16	r9,0x301c
    aaf8:	0d 60 01 23 	wh16	r9,0x3
    aafc:	10 40 01 29 	ld32	r9,r9
    ab00:	00 00 01 10 	add	r8,r16
    ab04:	20 70 03 e2 	movepc	rret,8
    ab08:	14 30 d5 42 	br	10 <compare>,#al
    ab0c:	00 10 00 41 	add	r2,1
    ab10:	0d 41 a5 00 	wl16	r8,0xd20
    ab14:	0d 60 01 03 	wh16	r8,0x3
    ab18:	10 40 01 08 	ld32	r8,r8
    ab1c:	0d 43 d6 00 	wl16	r16,0x1ea0
    ab20:	0d 60 02 03 	wh16	r16,0x3
    ab24:	10 40 02 10 	ld32	r16,r16
    ab28:	0d 46 05 20 	wl16	r9,0x3020
    ab2c:	0d 60 01 23 	wh16	r9,0x3
    ab30:	10 40 01 29 	ld32	r9,r9
    ab34:	00 00 01 10 	add	r8,r16
    ab38:	20 70 03 e2 	movepc	rret,8
    ab3c:	14 30 d5 35 	br	10 <compare>,#al
    ab40:	00 10 00 41 	add	r2,1
    ab44:	0d 41 a5 04 	wl16	r8,0xd24
    ab48:	0d 60 01 03 	wh16	r8,0x3
    ab4c:	10 40 01 08 	ld32	r8,r8
    ab50:	0d 43 d6 04 	wl16	r16,0x1ea4
    ab54:	0d 60 02 03 	wh16	r16,0x3
    ab58:	10 40 02 10 	ld32	r16,r16
    ab5c:	0d 46 05 24 	wl16	r9,0x3024
    ab60:	0d 60 01 23 	wh16	r9,0x3
    ab64:	10 40 01 29 	ld32	r9,r9
    ab68:	00 00 01 10 	add	r8,r16
    ab6c:	20 70 03 e2 	movepc	rret,8
    ab70:	14 30 d5 28 	br	10 <compare>,#al
    ab74:	00 10 00 41 	add	r2,1
    ab78:	0d 41 a5 08 	wl16	r8,0xd28
    ab7c:	0d 60 01 03 	wh16	r8,0x3
    ab80:	10 40 01 08 	ld32	r8,r8
    ab84:	0d 43 d6 08 	wl16	r16,0x1ea8
    ab88:	0d 60 02 03 	wh16	r16,0x3
    ab8c:	10 40 02 10 	ld32	r16,r16
    ab90:	0d 46 05 28 	wl16	r9,0x3028
    ab94:	0d 60 01 23 	wh16	r9,0x3
    ab98:	10 40 01 29 	ld32	r9,r9
    ab9c:	00 00 01 10 	add	r8,r16
    aba0:	20 70 03 e2 	movepc	rret,8
    aba4:	14 30 d5 1b 	br	10 <compare>,#al
    aba8:	00 10 00 41 	add	r2,1
    abac:	0d 41 a5 0c 	wl16	r8,0xd2c
    abb0:	0d 60 01 03 	wh16	r8,0x3
    abb4:	10 40 01 08 	ld32	r8,r8
    abb8:	0d 43 d6 0c 	wl16	r16,0x1eac
    abbc:	0d 60 02 03 	wh16	r16,0x3
    abc0:	10 40 02 10 	ld32	r16,r16
    abc4:	0d 46 05 2c 	wl16	r9,0x302c
    abc8:	0d 60 01 23 	wh16	r9,0x3
    abcc:	10 40 01 29 	ld32	r9,r9
    abd0:	00 00 01 10 	add	r8,r16
    abd4:	20 70 03 e2 	movepc	rret,8
    abd8:	14 30 d5 0e 	br	10 <compare>,#al
    abdc:	00 10 00 41 	add	r2,1
    abe0:	0d 41 a5 10 	wl16	r8,0xd30
    abe4:	0d 60 01 03 	wh16	r8,0x3
    abe8:	10 40 01 08 	ld32	r8,r8
    abec:	0d 43 d6 10 	wl16	r16,0x1eb0
    abf0:	0d 60 02 03 	wh16	r16,0x3
    abf4:	10 40 02 10 	ld32	r16,r16
    abf8:	0d 46 05 30 	wl16	r9,0x3030
    abfc:	0d 60 01 23 	wh16	r9,0x3
    ac00:	10 40 01 29 	ld32	r9,r9
    ac04:	00 00 01 10 	add	r8,r16
    ac08:	20 70 03 e2 	movepc	rret,8
    ac0c:	14 30 d5 01 	br	10 <compare>,#al
    ac10:	00 10 00 41 	add	r2,1
    ac14:	0d 41 a5 14 	wl16	r8,0xd34
    ac18:	0d 60 01 03 	wh16	r8,0x3
    ac1c:	10 40 01 08 	ld32	r8,r8
    ac20:	0d 43 d6 14 	wl16	r16,0x1eb4
    ac24:	0d 60 02 03 	wh16	r16,0x3
    ac28:	10 40 02 10 	ld32	r16,r16
    ac2c:	0d 46 05 34 	wl16	r9,0x3034
    ac30:	0d 60 01 23 	wh16	r9,0x3
    ac34:	10 40 01 29 	ld32	r9,r9
    ac38:	00 00 01 10 	add	r8,r16
    ac3c:	20 70 03 e2 	movepc	rret,8
    ac40:	14 30 d4 f4 	br	10 <compare>,#al
    ac44:	00 10 00 41 	add	r2,1
    ac48:	0d 41 a5 18 	wl16	r8,0xd38
    ac4c:	0d 60 01 03 	wh16	r8,0x3
    ac50:	10 40 01 08 	ld32	r8,r8
    ac54:	0d 43 d6 18 	wl16	r16,0x1eb8
    ac58:	0d 60 02 03 	wh16	r16,0x3
    ac5c:	10 40 02 10 	ld32	r16,r16
    ac60:	0d 46 05 38 	wl16	r9,0x3038
    ac64:	0d 60 01 23 	wh16	r9,0x3
    ac68:	10 40 01 29 	ld32	r9,r9
    ac6c:	00 00 01 10 	add	r8,r16
    ac70:	20 70 03 e2 	movepc	rret,8
    ac74:	14 30 d4 e7 	br	10 <compare>,#al
    ac78:	00 10 00 41 	add	r2,1
    ac7c:	0d 41 a5 1c 	wl16	r8,0xd3c
    ac80:	0d 60 01 03 	wh16	r8,0x3
    ac84:	10 40 01 08 	ld32	r8,r8
    ac88:	0d 43 d6 1c 	wl16	r16,0x1ebc
    ac8c:	0d 60 02 03 	wh16	r16,0x3
    ac90:	10 40 02 10 	ld32	r16,r16
    ac94:	0d 46 05 3c 	wl16	r9,0x303c
    ac98:	0d 60 01 23 	wh16	r9,0x3
    ac9c:	10 40 01 29 	ld32	r9,r9
    aca0:	00 00 01 10 	add	r8,r16
    aca4:	20 70 03 e2 	movepc	rret,8
    aca8:	14 30 d4 da 	br	10 <compare>,#al
    acac:	00 10 00 41 	add	r2,1
    acb0:	0d 41 a9 00 	wl16	r8,0xd40
    acb4:	0d 60 01 03 	wh16	r8,0x3
    acb8:	10 40 01 08 	ld32	r8,r8
    acbc:	0d 43 da 00 	wl16	r16,0x1ec0
    acc0:	0d 60 02 03 	wh16	r16,0x3
    acc4:	10 40 02 10 	ld32	r16,r16
    acc8:	0d 46 09 20 	wl16	r9,0x3040
    accc:	0d 60 01 23 	wh16	r9,0x3
    acd0:	10 40 01 29 	ld32	r9,r9
    acd4:	00 00 01 10 	add	r8,r16
    acd8:	20 70 03 e2 	movepc	rret,8
    acdc:	14 30 d4 cd 	br	10 <compare>,#al
    ace0:	00 10 00 41 	add	r2,1
    ace4:	0d 41 a9 04 	wl16	r8,0xd44
    ace8:	0d 60 01 03 	wh16	r8,0x3
    acec:	10 40 01 08 	ld32	r8,r8
    acf0:	0d 43 da 04 	wl16	r16,0x1ec4
    acf4:	0d 60 02 03 	wh16	r16,0x3
    acf8:	10 40 02 10 	ld32	r16,r16
    acfc:	0d 46 09 24 	wl16	r9,0x3044
    ad00:	0d 60 01 23 	wh16	r9,0x3
    ad04:	10 40 01 29 	ld32	r9,r9
    ad08:	00 00 01 10 	add	r8,r16
    ad0c:	20 70 03 e2 	movepc	rret,8
    ad10:	14 30 d4 c0 	br	10 <compare>,#al
    ad14:	00 10 00 41 	add	r2,1
    ad18:	0d 41 a9 08 	wl16	r8,0xd48
    ad1c:	0d 60 01 03 	wh16	r8,0x3
    ad20:	10 40 01 08 	ld32	r8,r8
    ad24:	0d 43 da 08 	wl16	r16,0x1ec8
    ad28:	0d 60 02 03 	wh16	r16,0x3
    ad2c:	10 40 02 10 	ld32	r16,r16
    ad30:	0d 46 09 28 	wl16	r9,0x3048
    ad34:	0d 60 01 23 	wh16	r9,0x3
    ad38:	10 40 01 29 	ld32	r9,r9
    ad3c:	00 00 01 10 	add	r8,r16
    ad40:	20 70 03 e2 	movepc	rret,8
    ad44:	14 30 d4 b3 	br	10 <compare>,#al
    ad48:	00 10 00 41 	add	r2,1
    ad4c:	0d 41 a9 0c 	wl16	r8,0xd4c
    ad50:	0d 60 01 03 	wh16	r8,0x3
    ad54:	10 40 01 08 	ld32	r8,r8
    ad58:	0d 43 da 0c 	wl16	r16,0x1ecc
    ad5c:	0d 60 02 03 	wh16	r16,0x3
    ad60:	10 40 02 10 	ld32	r16,r16
    ad64:	0d 46 09 2c 	wl16	r9,0x304c
    ad68:	0d 60 01 23 	wh16	r9,0x3
    ad6c:	10 40 01 29 	ld32	r9,r9
    ad70:	00 00 01 10 	add	r8,r16
    ad74:	20 70 03 e2 	movepc	rret,8
    ad78:	14 30 d4 a6 	br	10 <compare>,#al
    ad7c:	00 10 00 41 	add	r2,1
    ad80:	0d 41 a9 10 	wl16	r8,0xd50
    ad84:	0d 60 01 03 	wh16	r8,0x3
    ad88:	10 40 01 08 	ld32	r8,r8
    ad8c:	0d 43 da 10 	wl16	r16,0x1ed0
    ad90:	0d 60 02 03 	wh16	r16,0x3
    ad94:	10 40 02 10 	ld32	r16,r16
    ad98:	0d 46 09 30 	wl16	r9,0x3050
    ad9c:	0d 60 01 23 	wh16	r9,0x3
    ada0:	10 40 01 29 	ld32	r9,r9
    ada4:	00 00 01 10 	add	r8,r16
    ada8:	20 70 03 e2 	movepc	rret,8
    adac:	14 30 d4 99 	br	10 <compare>,#al
    adb0:	00 10 00 41 	add	r2,1
    adb4:	0d 41 a9 14 	wl16	r8,0xd54
    adb8:	0d 60 01 03 	wh16	r8,0x3
    adbc:	10 40 01 08 	ld32	r8,r8
    adc0:	0d 43 da 14 	wl16	r16,0x1ed4
    adc4:	0d 60 02 03 	wh16	r16,0x3
    adc8:	10 40 02 10 	ld32	r16,r16
    adcc:	0d 46 09 34 	wl16	r9,0x3054
    add0:	0d 60 01 23 	wh16	r9,0x3
    add4:	10 40 01 29 	ld32	r9,r9
    add8:	00 00 01 10 	add	r8,r16
    addc:	20 70 03 e2 	movepc	rret,8
    ade0:	14 30 d4 8c 	br	10 <compare>,#al
    ade4:	00 10 00 41 	add	r2,1
    ade8:	0d 41 a9 18 	wl16	r8,0xd58
    adec:	0d 60 01 03 	wh16	r8,0x3
    adf0:	10 40 01 08 	ld32	r8,r8
    adf4:	0d 43 da 18 	wl16	r16,0x1ed8
    adf8:	0d 60 02 03 	wh16	r16,0x3
    adfc:	10 40 02 10 	ld32	r16,r16
    ae00:	0d 46 09 38 	wl16	r9,0x3058
    ae04:	0d 60 01 23 	wh16	r9,0x3
    ae08:	10 40 01 29 	ld32	r9,r9
    ae0c:	00 00 01 10 	add	r8,r16
    ae10:	20 70 03 e2 	movepc	rret,8
    ae14:	14 30 d4 7f 	br	10 <compare>,#al
    ae18:	00 10 00 41 	add	r2,1
    ae1c:	0d 41 a9 1c 	wl16	r8,0xd5c
    ae20:	0d 60 01 03 	wh16	r8,0x3
    ae24:	10 40 01 08 	ld32	r8,r8
    ae28:	0d 43 da 1c 	wl16	r16,0x1edc
    ae2c:	0d 60 02 03 	wh16	r16,0x3
    ae30:	10 40 02 10 	ld32	r16,r16
    ae34:	0d 46 09 3c 	wl16	r9,0x305c
    ae38:	0d 60 01 23 	wh16	r9,0x3
    ae3c:	10 40 01 29 	ld32	r9,r9
    ae40:	00 00 01 10 	add	r8,r16
    ae44:	20 70 03 e2 	movepc	rret,8
    ae48:	14 30 d4 72 	br	10 <compare>,#al
    ae4c:	00 10 00 41 	add	r2,1
    ae50:	0d 41 ad 00 	wl16	r8,0xd60
    ae54:	0d 60 01 03 	wh16	r8,0x3
    ae58:	10 40 01 08 	ld32	r8,r8
    ae5c:	0d 43 de 00 	wl16	r16,0x1ee0
    ae60:	0d 60 02 03 	wh16	r16,0x3
    ae64:	10 40 02 10 	ld32	r16,r16
    ae68:	0d 46 0d 20 	wl16	r9,0x3060
    ae6c:	0d 60 01 23 	wh16	r9,0x3
    ae70:	10 40 01 29 	ld32	r9,r9
    ae74:	00 00 01 10 	add	r8,r16
    ae78:	20 70 03 e2 	movepc	rret,8
    ae7c:	14 30 d4 65 	br	10 <compare>,#al
    ae80:	00 10 00 41 	add	r2,1
    ae84:	0d 41 ad 04 	wl16	r8,0xd64
    ae88:	0d 60 01 03 	wh16	r8,0x3
    ae8c:	10 40 01 08 	ld32	r8,r8
    ae90:	0d 43 de 04 	wl16	r16,0x1ee4
    ae94:	0d 60 02 03 	wh16	r16,0x3
    ae98:	10 40 02 10 	ld32	r16,r16
    ae9c:	0d 46 0d 24 	wl16	r9,0x3064
    aea0:	0d 60 01 23 	wh16	r9,0x3
    aea4:	10 40 01 29 	ld32	r9,r9
    aea8:	00 00 01 10 	add	r8,r16
    aeac:	20 70 03 e2 	movepc	rret,8
    aeb0:	14 30 d4 58 	br	10 <compare>,#al
    aeb4:	00 10 00 41 	add	r2,1
    aeb8:	0d 41 ad 08 	wl16	r8,0xd68
    aebc:	0d 60 01 03 	wh16	r8,0x3
    aec0:	10 40 01 08 	ld32	r8,r8
    aec4:	0d 43 de 08 	wl16	r16,0x1ee8
    aec8:	0d 60 02 03 	wh16	r16,0x3
    aecc:	10 40 02 10 	ld32	r16,r16
    aed0:	0d 46 0d 28 	wl16	r9,0x3068
    aed4:	0d 60 01 23 	wh16	r9,0x3
    aed8:	10 40 01 29 	ld32	r9,r9
    aedc:	00 00 01 10 	add	r8,r16
    aee0:	20 70 03 e2 	movepc	rret,8
    aee4:	14 30 d4 4b 	br	10 <compare>,#al
    aee8:	00 10 00 41 	add	r2,1
    aeec:	0d 41 ad 0c 	wl16	r8,0xd6c
    aef0:	0d 60 01 03 	wh16	r8,0x3
    aef4:	10 40 01 08 	ld32	r8,r8
    aef8:	0d 43 de 0c 	wl16	r16,0x1eec
    aefc:	0d 60 02 03 	wh16	r16,0x3
    af00:	10 40 02 10 	ld32	r16,r16
    af04:	0d 46 0d 2c 	wl16	r9,0x306c
    af08:	0d 60 01 23 	wh16	r9,0x3
    af0c:	10 40 01 29 	ld32	r9,r9
    af10:	00 00 01 10 	add	r8,r16
    af14:	20 70 03 e2 	movepc	rret,8
    af18:	14 30 d4 3e 	br	10 <compare>,#al
    af1c:	00 10 00 41 	add	r2,1
    af20:	0d 41 ad 10 	wl16	r8,0xd70
    af24:	0d 60 01 03 	wh16	r8,0x3
    af28:	10 40 01 08 	ld32	r8,r8
    af2c:	0d 43 de 10 	wl16	r16,0x1ef0
    af30:	0d 60 02 03 	wh16	r16,0x3
    af34:	10 40 02 10 	ld32	r16,r16
    af38:	0d 46 0d 30 	wl16	r9,0x3070
    af3c:	0d 60 01 23 	wh16	r9,0x3
    af40:	10 40 01 29 	ld32	r9,r9
    af44:	00 00 01 10 	add	r8,r16
    af48:	20 70 03 e2 	movepc	rret,8
    af4c:	14 30 d4 31 	br	10 <compare>,#al
    af50:	00 10 00 41 	add	r2,1
    af54:	0d 41 ad 14 	wl16	r8,0xd74
    af58:	0d 60 01 03 	wh16	r8,0x3
    af5c:	10 40 01 08 	ld32	r8,r8
    af60:	0d 43 de 14 	wl16	r16,0x1ef4
    af64:	0d 60 02 03 	wh16	r16,0x3
    af68:	10 40 02 10 	ld32	r16,r16
    af6c:	0d 46 0d 34 	wl16	r9,0x3074
    af70:	0d 60 01 23 	wh16	r9,0x3
    af74:	10 40 01 29 	ld32	r9,r9
    af78:	00 00 01 10 	add	r8,r16
    af7c:	20 70 03 e2 	movepc	rret,8
    af80:	14 30 d4 24 	br	10 <compare>,#al
    af84:	00 10 00 41 	add	r2,1
    af88:	0d 41 ad 18 	wl16	r8,0xd78
    af8c:	0d 60 01 03 	wh16	r8,0x3
    af90:	10 40 01 08 	ld32	r8,r8
    af94:	0d 43 de 18 	wl16	r16,0x1ef8
    af98:	0d 60 02 03 	wh16	r16,0x3
    af9c:	10 40 02 10 	ld32	r16,r16
    afa0:	0d 46 0d 38 	wl16	r9,0x3078
    afa4:	0d 60 01 23 	wh16	r9,0x3
    afa8:	10 40 01 29 	ld32	r9,r9
    afac:	00 00 01 10 	add	r8,r16
    afb0:	20 70 03 e2 	movepc	rret,8
    afb4:	14 30 d4 17 	br	10 <compare>,#al
    afb8:	00 10 00 41 	add	r2,1
    afbc:	0d 41 ad 1c 	wl16	r8,0xd7c
    afc0:	0d 60 01 03 	wh16	r8,0x3
    afc4:	10 40 01 08 	ld32	r8,r8
    afc8:	0d 43 de 1c 	wl16	r16,0x1efc
    afcc:	0d 60 02 03 	wh16	r16,0x3
    afd0:	10 40 02 10 	ld32	r16,r16
    afd4:	0d 46 0d 3c 	wl16	r9,0x307c
    afd8:	0d 60 01 23 	wh16	r9,0x3
    afdc:	10 40 01 29 	ld32	r9,r9
    afe0:	00 00 01 10 	add	r8,r16
    afe4:	20 70 03 e2 	movepc	rret,8
    afe8:	14 30 d4 0a 	br	10 <compare>,#al
    afec:	00 10 00 41 	add	r2,1
    aff0:	0d 41 b1 00 	wl16	r8,0xd80
    aff4:	0d 60 01 03 	wh16	r8,0x3
    aff8:	10 40 01 08 	ld32	r8,r8
    affc:	0d 43 e2 00 	wl16	r16,0x1f00
    b000:	0d 60 02 03 	wh16	r16,0x3
    b004:	10 40 02 10 	ld32	r16,r16
    b008:	0d 46 11 20 	wl16	r9,0x3080
    b00c:	0d 60 01 23 	wh16	r9,0x3
    b010:	10 40 01 29 	ld32	r9,r9
    b014:	00 00 01 10 	add	r8,r16
    b018:	20 70 03 e2 	movepc	rret,8
    b01c:	14 30 d3 fd 	br	10 <compare>,#al
    b020:	00 10 00 41 	add	r2,1
    b024:	0d 41 b1 04 	wl16	r8,0xd84
    b028:	0d 60 01 03 	wh16	r8,0x3
    b02c:	10 40 01 08 	ld32	r8,r8
    b030:	0d 43 e2 04 	wl16	r16,0x1f04
    b034:	0d 60 02 03 	wh16	r16,0x3
    b038:	10 40 02 10 	ld32	r16,r16
    b03c:	0d 46 11 24 	wl16	r9,0x3084
    b040:	0d 60 01 23 	wh16	r9,0x3
    b044:	10 40 01 29 	ld32	r9,r9
    b048:	00 00 01 10 	add	r8,r16
    b04c:	20 70 03 e2 	movepc	rret,8
    b050:	14 30 d3 f0 	br	10 <compare>,#al
    b054:	00 10 00 41 	add	r2,1
    b058:	0d 41 b1 08 	wl16	r8,0xd88
    b05c:	0d 60 01 03 	wh16	r8,0x3
    b060:	10 40 01 08 	ld32	r8,r8
    b064:	0d 43 e2 08 	wl16	r16,0x1f08
    b068:	0d 60 02 03 	wh16	r16,0x3
    b06c:	10 40 02 10 	ld32	r16,r16
    b070:	0d 46 11 28 	wl16	r9,0x3088
    b074:	0d 60 01 23 	wh16	r9,0x3
    b078:	10 40 01 29 	ld32	r9,r9
    b07c:	00 00 01 10 	add	r8,r16
    b080:	20 70 03 e2 	movepc	rret,8
    b084:	14 30 d3 e3 	br	10 <compare>,#al
    b088:	00 10 00 41 	add	r2,1
    b08c:	0d 41 b1 0c 	wl16	r8,0xd8c
    b090:	0d 60 01 03 	wh16	r8,0x3
    b094:	10 40 01 08 	ld32	r8,r8
    b098:	0d 43 e2 0c 	wl16	r16,0x1f0c
    b09c:	0d 60 02 03 	wh16	r16,0x3
    b0a0:	10 40 02 10 	ld32	r16,r16
    b0a4:	0d 46 11 2c 	wl16	r9,0x308c
    b0a8:	0d 60 01 23 	wh16	r9,0x3
    b0ac:	10 40 01 29 	ld32	r9,r9
    b0b0:	00 00 01 10 	add	r8,r16
    b0b4:	20 70 03 e2 	movepc	rret,8
    b0b8:	14 30 d3 d6 	br	10 <compare>,#al
    b0bc:	00 10 00 41 	add	r2,1
    b0c0:	0d 41 b1 10 	wl16	r8,0xd90
    b0c4:	0d 60 01 03 	wh16	r8,0x3
    b0c8:	10 40 01 08 	ld32	r8,r8
    b0cc:	0d 43 e2 10 	wl16	r16,0x1f10
    b0d0:	0d 60 02 03 	wh16	r16,0x3
    b0d4:	10 40 02 10 	ld32	r16,r16
    b0d8:	0d 46 11 30 	wl16	r9,0x3090
    b0dc:	0d 60 01 23 	wh16	r9,0x3
    b0e0:	10 40 01 29 	ld32	r9,r9
    b0e4:	00 00 01 10 	add	r8,r16
    b0e8:	20 70 03 e2 	movepc	rret,8
    b0ec:	14 30 d3 c9 	br	10 <compare>,#al
    b0f0:	00 10 00 41 	add	r2,1
    b0f4:	0d 41 b1 14 	wl16	r8,0xd94
    b0f8:	0d 60 01 03 	wh16	r8,0x3
    b0fc:	10 40 01 08 	ld32	r8,r8
    b100:	0d 43 e2 14 	wl16	r16,0x1f14
    b104:	0d 60 02 03 	wh16	r16,0x3
    b108:	10 40 02 10 	ld32	r16,r16
    b10c:	0d 46 11 34 	wl16	r9,0x3094
    b110:	0d 60 01 23 	wh16	r9,0x3
    b114:	10 40 01 29 	ld32	r9,r9
    b118:	00 00 01 10 	add	r8,r16
    b11c:	20 70 03 e2 	movepc	rret,8
    b120:	14 30 d3 bc 	br	10 <compare>,#al
    b124:	00 10 00 41 	add	r2,1
    b128:	0d 41 b1 18 	wl16	r8,0xd98
    b12c:	0d 60 01 03 	wh16	r8,0x3
    b130:	10 40 01 08 	ld32	r8,r8
    b134:	0d 43 e2 18 	wl16	r16,0x1f18
    b138:	0d 60 02 03 	wh16	r16,0x3
    b13c:	10 40 02 10 	ld32	r16,r16
    b140:	0d 46 11 38 	wl16	r9,0x3098
    b144:	0d 60 01 23 	wh16	r9,0x3
    b148:	10 40 01 29 	ld32	r9,r9
    b14c:	00 00 01 10 	add	r8,r16
    b150:	20 70 03 e2 	movepc	rret,8
    b154:	14 30 d3 af 	br	10 <compare>,#al
    b158:	00 10 00 41 	add	r2,1
    b15c:	0d 41 b1 1c 	wl16	r8,0xd9c
    b160:	0d 60 01 03 	wh16	r8,0x3
    b164:	10 40 01 08 	ld32	r8,r8
    b168:	0d 43 e2 1c 	wl16	r16,0x1f1c
    b16c:	0d 60 02 03 	wh16	r16,0x3
    b170:	10 40 02 10 	ld32	r16,r16
    b174:	0d 46 11 3c 	wl16	r9,0x309c
    b178:	0d 60 01 23 	wh16	r9,0x3
    b17c:	10 40 01 29 	ld32	r9,r9
    b180:	00 00 01 10 	add	r8,r16
    b184:	20 70 03 e2 	movepc	rret,8
    b188:	14 30 d3 a2 	br	10 <compare>,#al
    b18c:	00 10 00 41 	add	r2,1
    b190:	0d 41 b5 00 	wl16	r8,0xda0
    b194:	0d 60 01 03 	wh16	r8,0x3
    b198:	10 40 01 08 	ld32	r8,r8
    b19c:	0d 43 e6 00 	wl16	r16,0x1f20
    b1a0:	0d 60 02 03 	wh16	r16,0x3
    b1a4:	10 40 02 10 	ld32	r16,r16
    b1a8:	0d 46 15 20 	wl16	r9,0x30a0
    b1ac:	0d 60 01 23 	wh16	r9,0x3
    b1b0:	10 40 01 29 	ld32	r9,r9
    b1b4:	00 00 01 10 	add	r8,r16
    b1b8:	20 70 03 e2 	movepc	rret,8
    b1bc:	14 30 d3 95 	br	10 <compare>,#al
    b1c0:	00 10 00 41 	add	r2,1
    b1c4:	0d 41 b5 04 	wl16	r8,0xda4
    b1c8:	0d 60 01 03 	wh16	r8,0x3
    b1cc:	10 40 01 08 	ld32	r8,r8
    b1d0:	0d 43 e6 04 	wl16	r16,0x1f24
    b1d4:	0d 60 02 03 	wh16	r16,0x3
    b1d8:	10 40 02 10 	ld32	r16,r16
    b1dc:	0d 46 15 24 	wl16	r9,0x30a4
    b1e0:	0d 60 01 23 	wh16	r9,0x3
    b1e4:	10 40 01 29 	ld32	r9,r9
    b1e8:	00 00 01 10 	add	r8,r16
    b1ec:	20 70 03 e2 	movepc	rret,8
    b1f0:	14 30 d3 88 	br	10 <compare>,#al
    b1f4:	00 10 00 41 	add	r2,1
    b1f8:	0d 41 b5 08 	wl16	r8,0xda8
    b1fc:	0d 60 01 03 	wh16	r8,0x3
    b200:	10 40 01 08 	ld32	r8,r8
    b204:	0d 43 e6 08 	wl16	r16,0x1f28
    b208:	0d 60 02 03 	wh16	r16,0x3
    b20c:	10 40 02 10 	ld32	r16,r16
    b210:	0d 46 15 28 	wl16	r9,0x30a8
    b214:	0d 60 01 23 	wh16	r9,0x3
    b218:	10 40 01 29 	ld32	r9,r9
    b21c:	00 00 01 10 	add	r8,r16
    b220:	20 70 03 e2 	movepc	rret,8
    b224:	14 30 d3 7b 	br	10 <compare>,#al
    b228:	00 10 00 41 	add	r2,1
    b22c:	0d 41 b5 0c 	wl16	r8,0xdac
    b230:	0d 60 01 03 	wh16	r8,0x3
    b234:	10 40 01 08 	ld32	r8,r8
    b238:	0d 43 e6 0c 	wl16	r16,0x1f2c
    b23c:	0d 60 02 03 	wh16	r16,0x3
    b240:	10 40 02 10 	ld32	r16,r16
    b244:	0d 46 15 2c 	wl16	r9,0x30ac
    b248:	0d 60 01 23 	wh16	r9,0x3
    b24c:	10 40 01 29 	ld32	r9,r9
    b250:	00 00 01 10 	add	r8,r16
    b254:	20 70 03 e2 	movepc	rret,8
    b258:	14 30 d3 6e 	br	10 <compare>,#al
    b25c:	00 10 00 41 	add	r2,1
    b260:	0d 41 b5 10 	wl16	r8,0xdb0
    b264:	0d 60 01 03 	wh16	r8,0x3
    b268:	10 40 01 08 	ld32	r8,r8
    b26c:	0d 43 e6 10 	wl16	r16,0x1f30
    b270:	0d 60 02 03 	wh16	r16,0x3
    b274:	10 40 02 10 	ld32	r16,r16
    b278:	0d 46 15 30 	wl16	r9,0x30b0
    b27c:	0d 60 01 23 	wh16	r9,0x3
    b280:	10 40 01 29 	ld32	r9,r9
    b284:	00 00 01 10 	add	r8,r16
    b288:	20 70 03 e2 	movepc	rret,8
    b28c:	14 30 d3 61 	br	10 <compare>,#al
    b290:	00 10 00 41 	add	r2,1
    b294:	0d 41 b5 14 	wl16	r8,0xdb4
    b298:	0d 60 01 03 	wh16	r8,0x3
    b29c:	10 40 01 08 	ld32	r8,r8
    b2a0:	0d 43 e6 14 	wl16	r16,0x1f34
    b2a4:	0d 60 02 03 	wh16	r16,0x3
    b2a8:	10 40 02 10 	ld32	r16,r16
    b2ac:	0d 46 15 34 	wl16	r9,0x30b4
    b2b0:	0d 60 01 23 	wh16	r9,0x3
    b2b4:	10 40 01 29 	ld32	r9,r9
    b2b8:	00 00 01 10 	add	r8,r16
    b2bc:	20 70 03 e2 	movepc	rret,8
    b2c0:	14 30 d3 54 	br	10 <compare>,#al
    b2c4:	00 10 00 41 	add	r2,1
    b2c8:	0d 41 b5 18 	wl16	r8,0xdb8
    b2cc:	0d 60 01 03 	wh16	r8,0x3
    b2d0:	10 40 01 08 	ld32	r8,r8
    b2d4:	0d 43 e6 18 	wl16	r16,0x1f38
    b2d8:	0d 60 02 03 	wh16	r16,0x3
    b2dc:	10 40 02 10 	ld32	r16,r16
    b2e0:	0d 46 15 38 	wl16	r9,0x30b8
    b2e4:	0d 60 01 23 	wh16	r9,0x3
    b2e8:	10 40 01 29 	ld32	r9,r9
    b2ec:	00 00 01 10 	add	r8,r16
    b2f0:	20 70 03 e2 	movepc	rret,8
    b2f4:	14 30 d3 47 	br	10 <compare>,#al
    b2f8:	00 10 00 41 	add	r2,1
    b2fc:	0d 41 b5 1c 	wl16	r8,0xdbc
    b300:	0d 60 01 03 	wh16	r8,0x3
    b304:	10 40 01 08 	ld32	r8,r8
    b308:	0d 43 e6 1c 	wl16	r16,0x1f3c
    b30c:	0d 60 02 03 	wh16	r16,0x3
    b310:	10 40 02 10 	ld32	r16,r16
    b314:	0d 46 15 3c 	wl16	r9,0x30bc
    b318:	0d 60 01 23 	wh16	r9,0x3
    b31c:	10 40 01 29 	ld32	r9,r9
    b320:	00 00 01 10 	add	r8,r16
    b324:	20 70 03 e2 	movepc	rret,8
    b328:	14 30 d3 3a 	br	10 <compare>,#al
    b32c:	00 10 00 41 	add	r2,1
    b330:	0d 41 b9 00 	wl16	r8,0xdc0
    b334:	0d 60 01 03 	wh16	r8,0x3
    b338:	10 40 01 08 	ld32	r8,r8
    b33c:	0d 43 ea 00 	wl16	r16,0x1f40
    b340:	0d 60 02 03 	wh16	r16,0x3
    b344:	10 40 02 10 	ld32	r16,r16
    b348:	0d 46 19 20 	wl16	r9,0x30c0
    b34c:	0d 60 01 23 	wh16	r9,0x3
    b350:	10 40 01 29 	ld32	r9,r9
    b354:	00 00 01 10 	add	r8,r16
    b358:	20 70 03 e2 	movepc	rret,8
    b35c:	14 30 d3 2d 	br	10 <compare>,#al
    b360:	00 10 00 41 	add	r2,1
    b364:	0d 41 b9 04 	wl16	r8,0xdc4
    b368:	0d 60 01 03 	wh16	r8,0x3
    b36c:	10 40 01 08 	ld32	r8,r8
    b370:	0d 43 ea 04 	wl16	r16,0x1f44
    b374:	0d 60 02 03 	wh16	r16,0x3
    b378:	10 40 02 10 	ld32	r16,r16
    b37c:	0d 46 19 24 	wl16	r9,0x30c4
    b380:	0d 60 01 23 	wh16	r9,0x3
    b384:	10 40 01 29 	ld32	r9,r9
    b388:	00 00 01 10 	add	r8,r16
    b38c:	20 70 03 e2 	movepc	rret,8
    b390:	14 30 d3 20 	br	10 <compare>,#al
    b394:	00 10 00 41 	add	r2,1
    b398:	0d 41 b9 08 	wl16	r8,0xdc8
    b39c:	0d 60 01 03 	wh16	r8,0x3
    b3a0:	10 40 01 08 	ld32	r8,r8
    b3a4:	0d 43 ea 08 	wl16	r16,0x1f48
    b3a8:	0d 60 02 03 	wh16	r16,0x3
    b3ac:	10 40 02 10 	ld32	r16,r16
    b3b0:	0d 46 19 28 	wl16	r9,0x30c8
    b3b4:	0d 60 01 23 	wh16	r9,0x3
    b3b8:	10 40 01 29 	ld32	r9,r9
    b3bc:	00 00 01 10 	add	r8,r16
    b3c0:	20 70 03 e2 	movepc	rret,8
    b3c4:	14 30 d3 13 	br	10 <compare>,#al
    b3c8:	00 10 00 41 	add	r2,1
    b3cc:	0d 41 b9 0c 	wl16	r8,0xdcc
    b3d0:	0d 60 01 03 	wh16	r8,0x3
    b3d4:	10 40 01 08 	ld32	r8,r8
    b3d8:	0d 43 ea 0c 	wl16	r16,0x1f4c
    b3dc:	0d 60 02 03 	wh16	r16,0x3
    b3e0:	10 40 02 10 	ld32	r16,r16
    b3e4:	0d 46 19 2c 	wl16	r9,0x30cc
    b3e8:	0d 60 01 23 	wh16	r9,0x3
    b3ec:	10 40 01 29 	ld32	r9,r9
    b3f0:	00 00 01 10 	add	r8,r16
    b3f4:	20 70 03 e2 	movepc	rret,8
    b3f8:	14 30 d3 06 	br	10 <compare>,#al
    b3fc:	00 10 00 41 	add	r2,1
    b400:	0d 41 b9 10 	wl16	r8,0xdd0
    b404:	0d 60 01 03 	wh16	r8,0x3
    b408:	10 40 01 08 	ld32	r8,r8
    b40c:	0d 43 ea 10 	wl16	r16,0x1f50
    b410:	0d 60 02 03 	wh16	r16,0x3
    b414:	10 40 02 10 	ld32	r16,r16
    b418:	0d 46 19 30 	wl16	r9,0x30d0
    b41c:	0d 60 01 23 	wh16	r9,0x3
    b420:	10 40 01 29 	ld32	r9,r9
    b424:	00 00 01 10 	add	r8,r16
    b428:	20 70 03 e2 	movepc	rret,8
    b42c:	14 30 d2 f9 	br	10 <compare>,#al
    b430:	00 10 00 41 	add	r2,1
    b434:	0d 41 b9 14 	wl16	r8,0xdd4
    b438:	0d 60 01 03 	wh16	r8,0x3
    b43c:	10 40 01 08 	ld32	r8,r8
    b440:	0d 43 ea 14 	wl16	r16,0x1f54
    b444:	0d 60 02 03 	wh16	r16,0x3
    b448:	10 40 02 10 	ld32	r16,r16
    b44c:	0d 46 19 34 	wl16	r9,0x30d4
    b450:	0d 60 01 23 	wh16	r9,0x3
    b454:	10 40 01 29 	ld32	r9,r9
    b458:	00 00 01 10 	add	r8,r16
    b45c:	20 70 03 e2 	movepc	rret,8
    b460:	14 30 d2 ec 	br	10 <compare>,#al
    b464:	00 10 00 41 	add	r2,1
    b468:	0d 41 b9 18 	wl16	r8,0xdd8
    b46c:	0d 60 01 03 	wh16	r8,0x3
    b470:	10 40 01 08 	ld32	r8,r8
    b474:	0d 43 ea 18 	wl16	r16,0x1f58
    b478:	0d 60 02 03 	wh16	r16,0x3
    b47c:	10 40 02 10 	ld32	r16,r16
    b480:	0d 46 19 38 	wl16	r9,0x30d8
    b484:	0d 60 01 23 	wh16	r9,0x3
    b488:	10 40 01 29 	ld32	r9,r9
    b48c:	00 00 01 10 	add	r8,r16
    b490:	20 70 03 e2 	movepc	rret,8
    b494:	14 30 d2 df 	br	10 <compare>,#al
    b498:	00 10 00 41 	add	r2,1
    b49c:	0d 41 b9 1c 	wl16	r8,0xddc
    b4a0:	0d 60 01 03 	wh16	r8,0x3
    b4a4:	10 40 01 08 	ld32	r8,r8
    b4a8:	0d 43 ea 1c 	wl16	r16,0x1f5c
    b4ac:	0d 60 02 03 	wh16	r16,0x3
    b4b0:	10 40 02 10 	ld32	r16,r16
    b4b4:	0d 46 19 3c 	wl16	r9,0x30dc
    b4b8:	0d 60 01 23 	wh16	r9,0x3
    b4bc:	10 40 01 29 	ld32	r9,r9
    b4c0:	00 00 01 10 	add	r8,r16
    b4c4:	20 70 03 e2 	movepc	rret,8
    b4c8:	14 30 d2 d2 	br	10 <compare>,#al
    b4cc:	00 10 00 41 	add	r2,1
    b4d0:	0d 41 bd 00 	wl16	r8,0xde0
    b4d4:	0d 60 01 03 	wh16	r8,0x3
    b4d8:	10 40 01 08 	ld32	r8,r8
    b4dc:	0d 43 ee 00 	wl16	r16,0x1f60
    b4e0:	0d 60 02 03 	wh16	r16,0x3
    b4e4:	10 40 02 10 	ld32	r16,r16
    b4e8:	0d 46 1d 20 	wl16	r9,0x30e0
    b4ec:	0d 60 01 23 	wh16	r9,0x3
    b4f0:	10 40 01 29 	ld32	r9,r9
    b4f4:	00 00 01 10 	add	r8,r16
    b4f8:	20 70 03 e2 	movepc	rret,8
    b4fc:	14 30 d2 c5 	br	10 <compare>,#al
    b500:	00 10 00 41 	add	r2,1
    b504:	0d 41 bd 04 	wl16	r8,0xde4
    b508:	0d 60 01 03 	wh16	r8,0x3
    b50c:	10 40 01 08 	ld32	r8,r8
    b510:	0d 43 ee 04 	wl16	r16,0x1f64
    b514:	0d 60 02 03 	wh16	r16,0x3
    b518:	10 40 02 10 	ld32	r16,r16
    b51c:	0d 46 1d 24 	wl16	r9,0x30e4
    b520:	0d 60 01 23 	wh16	r9,0x3
    b524:	10 40 01 29 	ld32	r9,r9
    b528:	00 00 01 10 	add	r8,r16
    b52c:	20 70 03 e2 	movepc	rret,8
    b530:	14 30 d2 b8 	br	10 <compare>,#al
    b534:	00 10 00 41 	add	r2,1
    b538:	0d 41 bd 08 	wl16	r8,0xde8
    b53c:	0d 60 01 03 	wh16	r8,0x3
    b540:	10 40 01 08 	ld32	r8,r8
    b544:	0d 43 ee 08 	wl16	r16,0x1f68
    b548:	0d 60 02 03 	wh16	r16,0x3
    b54c:	10 40 02 10 	ld32	r16,r16
    b550:	0d 46 1d 28 	wl16	r9,0x30e8
    b554:	0d 60 01 23 	wh16	r9,0x3
    b558:	10 40 01 29 	ld32	r9,r9
    b55c:	00 00 01 10 	add	r8,r16
    b560:	20 70 03 e2 	movepc	rret,8
    b564:	14 30 d2 ab 	br	10 <compare>,#al
    b568:	00 10 00 41 	add	r2,1
    b56c:	0d 41 bd 0c 	wl16	r8,0xdec
    b570:	0d 60 01 03 	wh16	r8,0x3
    b574:	10 40 01 08 	ld32	r8,r8
    b578:	0d 43 ee 0c 	wl16	r16,0x1f6c
    b57c:	0d 60 02 03 	wh16	r16,0x3
    b580:	10 40 02 10 	ld32	r16,r16
    b584:	0d 46 1d 2c 	wl16	r9,0x30ec
    b588:	0d 60 01 23 	wh16	r9,0x3
    b58c:	10 40 01 29 	ld32	r9,r9
    b590:	00 00 01 10 	add	r8,r16
    b594:	20 70 03 e2 	movepc	rret,8
    b598:	14 30 d2 9e 	br	10 <compare>,#al
    b59c:	00 10 00 41 	add	r2,1
    b5a0:	0d 41 bd 10 	wl16	r8,0xdf0
    b5a4:	0d 60 01 03 	wh16	r8,0x3
    b5a8:	10 40 01 08 	ld32	r8,r8
    b5ac:	0d 43 ee 10 	wl16	r16,0x1f70
    b5b0:	0d 60 02 03 	wh16	r16,0x3
    b5b4:	10 40 02 10 	ld32	r16,r16
    b5b8:	0d 46 1d 30 	wl16	r9,0x30f0
    b5bc:	0d 60 01 23 	wh16	r9,0x3
    b5c0:	10 40 01 29 	ld32	r9,r9
    b5c4:	00 00 01 10 	add	r8,r16
    b5c8:	20 70 03 e2 	movepc	rret,8
    b5cc:	14 30 d2 91 	br	10 <compare>,#al
    b5d0:	00 10 00 41 	add	r2,1
    b5d4:	0d 41 bd 14 	wl16	r8,0xdf4
    b5d8:	0d 60 01 03 	wh16	r8,0x3
    b5dc:	10 40 01 08 	ld32	r8,r8
    b5e0:	0d 43 ee 14 	wl16	r16,0x1f74
    b5e4:	0d 60 02 03 	wh16	r16,0x3
    b5e8:	10 40 02 10 	ld32	r16,r16
    b5ec:	0d 46 1d 34 	wl16	r9,0x30f4
    b5f0:	0d 60 01 23 	wh16	r9,0x3
    b5f4:	10 40 01 29 	ld32	r9,r9
    b5f8:	00 00 01 10 	add	r8,r16
    b5fc:	20 70 03 e2 	movepc	rret,8
    b600:	14 30 d2 84 	br	10 <compare>,#al
    b604:	00 10 00 41 	add	r2,1
    b608:	0d 41 bd 18 	wl16	r8,0xdf8
    b60c:	0d 60 01 03 	wh16	r8,0x3
    b610:	10 40 01 08 	ld32	r8,r8
    b614:	0d 43 ee 18 	wl16	r16,0x1f78
    b618:	0d 60 02 03 	wh16	r16,0x3
    b61c:	10 40 02 10 	ld32	r16,r16
    b620:	0d 46 1d 38 	wl16	r9,0x30f8
    b624:	0d 60 01 23 	wh16	r9,0x3
    b628:	10 40 01 29 	ld32	r9,r9
    b62c:	00 00 01 10 	add	r8,r16
    b630:	20 70 03 e2 	movepc	rret,8
    b634:	14 30 d2 77 	br	10 <compare>,#al
    b638:	00 10 00 41 	add	r2,1
    b63c:	0d 41 bd 1c 	wl16	r8,0xdfc
    b640:	0d 60 01 03 	wh16	r8,0x3
    b644:	10 40 01 08 	ld32	r8,r8
    b648:	0d 43 ee 1c 	wl16	r16,0x1f7c
    b64c:	0d 60 02 03 	wh16	r16,0x3
    b650:	10 40 02 10 	ld32	r16,r16
    b654:	0d 46 1d 3c 	wl16	r9,0x30fc
    b658:	0d 60 01 23 	wh16	r9,0x3
    b65c:	10 40 01 29 	ld32	r9,r9
    b660:	00 00 01 10 	add	r8,r16
    b664:	20 70 03 e2 	movepc	rret,8
    b668:	14 30 d2 6a 	br	10 <compare>,#al
    b66c:	00 10 00 41 	add	r2,1
    b670:	0d 41 c1 00 	wl16	r8,0xe00
    b674:	0d 60 01 03 	wh16	r8,0x3
    b678:	10 40 01 08 	ld32	r8,r8
    b67c:	0d 43 f2 00 	wl16	r16,0x1f80
    b680:	0d 60 02 03 	wh16	r16,0x3
    b684:	10 40 02 10 	ld32	r16,r16
    b688:	0d 46 21 20 	wl16	r9,0x3100
    b68c:	0d 60 01 23 	wh16	r9,0x3
    b690:	10 40 01 29 	ld32	r9,r9
    b694:	00 00 01 10 	add	r8,r16
    b698:	20 70 03 e2 	movepc	rret,8
    b69c:	14 30 d2 5d 	br	10 <compare>,#al
    b6a0:	00 10 00 41 	add	r2,1
    b6a4:	0d 41 c1 04 	wl16	r8,0xe04
    b6a8:	0d 60 01 03 	wh16	r8,0x3
    b6ac:	10 40 01 08 	ld32	r8,r8
    b6b0:	0d 43 f2 04 	wl16	r16,0x1f84
    b6b4:	0d 60 02 03 	wh16	r16,0x3
    b6b8:	10 40 02 10 	ld32	r16,r16
    b6bc:	0d 46 21 24 	wl16	r9,0x3104
    b6c0:	0d 60 01 23 	wh16	r9,0x3
    b6c4:	10 40 01 29 	ld32	r9,r9
    b6c8:	00 00 01 10 	add	r8,r16
    b6cc:	20 70 03 e2 	movepc	rret,8
    b6d0:	14 30 d2 50 	br	10 <compare>,#al
    b6d4:	00 10 00 41 	add	r2,1
    b6d8:	0d 41 c1 08 	wl16	r8,0xe08
    b6dc:	0d 60 01 03 	wh16	r8,0x3
    b6e0:	10 40 01 08 	ld32	r8,r8
    b6e4:	0d 43 f2 08 	wl16	r16,0x1f88
    b6e8:	0d 60 02 03 	wh16	r16,0x3
    b6ec:	10 40 02 10 	ld32	r16,r16
    b6f0:	0d 46 21 28 	wl16	r9,0x3108
    b6f4:	0d 60 01 23 	wh16	r9,0x3
    b6f8:	10 40 01 29 	ld32	r9,r9
    b6fc:	00 00 01 10 	add	r8,r16
    b700:	20 70 03 e2 	movepc	rret,8
    b704:	14 30 d2 43 	br	10 <compare>,#al
    b708:	00 10 00 41 	add	r2,1
    b70c:	0d 41 c1 0c 	wl16	r8,0xe0c
    b710:	0d 60 01 03 	wh16	r8,0x3
    b714:	10 40 01 08 	ld32	r8,r8
    b718:	0d 43 f2 0c 	wl16	r16,0x1f8c
    b71c:	0d 60 02 03 	wh16	r16,0x3
    b720:	10 40 02 10 	ld32	r16,r16
    b724:	0d 46 21 2c 	wl16	r9,0x310c
    b728:	0d 60 01 23 	wh16	r9,0x3
    b72c:	10 40 01 29 	ld32	r9,r9
    b730:	00 00 01 10 	add	r8,r16
    b734:	20 70 03 e2 	movepc	rret,8
    b738:	14 30 d2 36 	br	10 <compare>,#al
    b73c:	00 10 00 41 	add	r2,1
    b740:	0d 41 c1 10 	wl16	r8,0xe10
    b744:	0d 60 01 03 	wh16	r8,0x3
    b748:	10 40 01 08 	ld32	r8,r8
    b74c:	0d 43 f2 10 	wl16	r16,0x1f90
    b750:	0d 60 02 03 	wh16	r16,0x3
    b754:	10 40 02 10 	ld32	r16,r16
    b758:	0d 46 21 30 	wl16	r9,0x3110
    b75c:	0d 60 01 23 	wh16	r9,0x3
    b760:	10 40 01 29 	ld32	r9,r9
    b764:	00 00 01 10 	add	r8,r16
    b768:	20 70 03 e2 	movepc	rret,8
    b76c:	14 30 d2 29 	br	10 <compare>,#al
    b770:	00 10 00 41 	add	r2,1
    b774:	0d 41 c1 14 	wl16	r8,0xe14
    b778:	0d 60 01 03 	wh16	r8,0x3
    b77c:	10 40 01 08 	ld32	r8,r8
    b780:	0d 43 f2 14 	wl16	r16,0x1f94
    b784:	0d 60 02 03 	wh16	r16,0x3
    b788:	10 40 02 10 	ld32	r16,r16
    b78c:	0d 46 21 34 	wl16	r9,0x3114
    b790:	0d 60 01 23 	wh16	r9,0x3
    b794:	10 40 01 29 	ld32	r9,r9
    b798:	00 00 01 10 	add	r8,r16
    b79c:	20 70 03 e2 	movepc	rret,8
    b7a0:	14 30 d2 1c 	br	10 <compare>,#al
    b7a4:	00 10 00 41 	add	r2,1
    b7a8:	0d 41 c1 18 	wl16	r8,0xe18
    b7ac:	0d 60 01 03 	wh16	r8,0x3
    b7b0:	10 40 01 08 	ld32	r8,r8
    b7b4:	0d 43 f2 18 	wl16	r16,0x1f98
    b7b8:	0d 60 02 03 	wh16	r16,0x3
    b7bc:	10 40 02 10 	ld32	r16,r16
    b7c0:	0d 46 21 38 	wl16	r9,0x3118
    b7c4:	0d 60 01 23 	wh16	r9,0x3
    b7c8:	10 40 01 29 	ld32	r9,r9
    b7cc:	00 00 01 10 	add	r8,r16
    b7d0:	20 70 03 e2 	movepc	rret,8
    b7d4:	14 30 d2 0f 	br	10 <compare>,#al
    b7d8:	00 10 00 41 	add	r2,1
    b7dc:	0d 41 c1 1c 	wl16	r8,0xe1c
    b7e0:	0d 60 01 03 	wh16	r8,0x3
    b7e4:	10 40 01 08 	ld32	r8,r8
    b7e8:	0d 43 f2 1c 	wl16	r16,0x1f9c
    b7ec:	0d 60 02 03 	wh16	r16,0x3
    b7f0:	10 40 02 10 	ld32	r16,r16
    b7f4:	0d 46 21 3c 	wl16	r9,0x311c
    b7f8:	0d 60 01 23 	wh16	r9,0x3
    b7fc:	10 40 01 29 	ld32	r9,r9
    b800:	00 00 01 10 	add	r8,r16
    b804:	20 70 03 e2 	movepc	rret,8
    b808:	14 30 d2 02 	br	10 <compare>,#al
    b80c:	00 10 00 41 	add	r2,1
    b810:	0d 41 c5 00 	wl16	r8,0xe20
    b814:	0d 60 01 03 	wh16	r8,0x3
    b818:	10 40 01 08 	ld32	r8,r8
    b81c:	0d 43 f6 00 	wl16	r16,0x1fa0
    b820:	0d 60 02 03 	wh16	r16,0x3
    b824:	10 40 02 10 	ld32	r16,r16
    b828:	0d 46 25 20 	wl16	r9,0x3120
    b82c:	0d 60 01 23 	wh16	r9,0x3
    b830:	10 40 01 29 	ld32	r9,r9
    b834:	00 00 01 10 	add	r8,r16
    b838:	20 70 03 e2 	movepc	rret,8
    b83c:	14 30 d1 f5 	br	10 <compare>,#al
    b840:	00 10 00 41 	add	r2,1
    b844:	0d 41 c5 04 	wl16	r8,0xe24
    b848:	0d 60 01 03 	wh16	r8,0x3
    b84c:	10 40 01 08 	ld32	r8,r8
    b850:	0d 43 f6 04 	wl16	r16,0x1fa4
    b854:	0d 60 02 03 	wh16	r16,0x3
    b858:	10 40 02 10 	ld32	r16,r16
    b85c:	0d 46 25 24 	wl16	r9,0x3124
    b860:	0d 60 01 23 	wh16	r9,0x3
    b864:	10 40 01 29 	ld32	r9,r9
    b868:	00 00 01 10 	add	r8,r16
    b86c:	20 70 03 e2 	movepc	rret,8
    b870:	14 30 d1 e8 	br	10 <compare>,#al
    b874:	00 10 00 41 	add	r2,1
    b878:	0d 41 c5 08 	wl16	r8,0xe28
    b87c:	0d 60 01 03 	wh16	r8,0x3
    b880:	10 40 01 08 	ld32	r8,r8
    b884:	0d 43 f6 08 	wl16	r16,0x1fa8
    b888:	0d 60 02 03 	wh16	r16,0x3
    b88c:	10 40 02 10 	ld32	r16,r16
    b890:	0d 46 25 28 	wl16	r9,0x3128
    b894:	0d 60 01 23 	wh16	r9,0x3
    b898:	10 40 01 29 	ld32	r9,r9
    b89c:	00 00 01 10 	add	r8,r16
    b8a0:	20 70 03 e2 	movepc	rret,8
    b8a4:	14 30 d1 db 	br	10 <compare>,#al
    b8a8:	00 10 00 41 	add	r2,1
    b8ac:	0d 41 c5 0c 	wl16	r8,0xe2c
    b8b0:	0d 60 01 03 	wh16	r8,0x3
    b8b4:	10 40 01 08 	ld32	r8,r8
    b8b8:	0d 43 f6 0c 	wl16	r16,0x1fac
    b8bc:	0d 60 02 03 	wh16	r16,0x3
    b8c0:	10 40 02 10 	ld32	r16,r16
    b8c4:	0d 46 25 2c 	wl16	r9,0x312c
    b8c8:	0d 60 01 23 	wh16	r9,0x3
    b8cc:	10 40 01 29 	ld32	r9,r9
    b8d0:	00 00 01 10 	add	r8,r16
    b8d4:	20 70 03 e2 	movepc	rret,8
    b8d8:	14 30 d1 ce 	br	10 <compare>,#al
    b8dc:	00 10 00 41 	add	r2,1
    b8e0:	0d 41 c5 10 	wl16	r8,0xe30
    b8e4:	0d 60 01 03 	wh16	r8,0x3
    b8e8:	10 40 01 08 	ld32	r8,r8
    b8ec:	0d 43 f6 10 	wl16	r16,0x1fb0
    b8f0:	0d 60 02 03 	wh16	r16,0x3
    b8f4:	10 40 02 10 	ld32	r16,r16
    b8f8:	0d 46 25 30 	wl16	r9,0x3130
    b8fc:	0d 60 01 23 	wh16	r9,0x3
    b900:	10 40 01 29 	ld32	r9,r9
    b904:	00 00 01 10 	add	r8,r16
    b908:	20 70 03 e2 	movepc	rret,8
    b90c:	14 30 d1 c1 	br	10 <compare>,#al
    b910:	00 10 00 41 	add	r2,1
    b914:	0d 41 c5 14 	wl16	r8,0xe34
    b918:	0d 60 01 03 	wh16	r8,0x3
    b91c:	10 40 01 08 	ld32	r8,r8
    b920:	0d 43 f6 14 	wl16	r16,0x1fb4
    b924:	0d 60 02 03 	wh16	r16,0x3
    b928:	10 40 02 10 	ld32	r16,r16
    b92c:	0d 46 25 34 	wl16	r9,0x3134
    b930:	0d 60 01 23 	wh16	r9,0x3
    b934:	10 40 01 29 	ld32	r9,r9
    b938:	00 00 01 10 	add	r8,r16
    b93c:	20 70 03 e2 	movepc	rret,8
    b940:	14 30 d1 b4 	br	10 <compare>,#al
    b944:	00 10 00 41 	add	r2,1
    b948:	0d 41 c5 18 	wl16	r8,0xe38
    b94c:	0d 60 01 03 	wh16	r8,0x3
    b950:	10 40 01 08 	ld32	r8,r8
    b954:	0d 43 f6 18 	wl16	r16,0x1fb8
    b958:	0d 60 02 03 	wh16	r16,0x3
    b95c:	10 40 02 10 	ld32	r16,r16
    b960:	0d 46 25 38 	wl16	r9,0x3138
    b964:	0d 60 01 23 	wh16	r9,0x3
    b968:	10 40 01 29 	ld32	r9,r9
    b96c:	00 00 01 10 	add	r8,r16
    b970:	20 70 03 e2 	movepc	rret,8
    b974:	14 30 d1 a7 	br	10 <compare>,#al
    b978:	00 10 00 41 	add	r2,1
    b97c:	0d 41 c5 1c 	wl16	r8,0xe3c
    b980:	0d 60 01 03 	wh16	r8,0x3
    b984:	10 40 01 08 	ld32	r8,r8
    b988:	0d 43 f6 1c 	wl16	r16,0x1fbc
    b98c:	0d 60 02 03 	wh16	r16,0x3
    b990:	10 40 02 10 	ld32	r16,r16
    b994:	0d 46 25 3c 	wl16	r9,0x313c
    b998:	0d 60 01 23 	wh16	r9,0x3
    b99c:	10 40 01 29 	ld32	r9,r9
    b9a0:	00 00 01 10 	add	r8,r16
    b9a4:	20 70 03 e2 	movepc	rret,8
    b9a8:	14 30 d1 9a 	br	10 <compare>,#al
    b9ac:	00 10 00 41 	add	r2,1
    b9b0:	0d 41 c9 00 	wl16	r8,0xe40
    b9b4:	0d 60 01 03 	wh16	r8,0x3
    b9b8:	10 40 01 08 	ld32	r8,r8
    b9bc:	0d 43 fa 00 	wl16	r16,0x1fc0
    b9c0:	0d 60 02 03 	wh16	r16,0x3
    b9c4:	10 40 02 10 	ld32	r16,r16
    b9c8:	0d 46 29 20 	wl16	r9,0x3140
    b9cc:	0d 60 01 23 	wh16	r9,0x3
    b9d0:	10 40 01 29 	ld32	r9,r9
    b9d4:	00 00 01 10 	add	r8,r16
    b9d8:	20 70 03 e2 	movepc	rret,8
    b9dc:	14 30 d1 8d 	br	10 <compare>,#al
    b9e0:	00 10 00 41 	add	r2,1
    b9e4:	0d 41 c9 04 	wl16	r8,0xe44
    b9e8:	0d 60 01 03 	wh16	r8,0x3
    b9ec:	10 40 01 08 	ld32	r8,r8
    b9f0:	0d 43 fa 04 	wl16	r16,0x1fc4
    b9f4:	0d 60 02 03 	wh16	r16,0x3
    b9f8:	10 40 02 10 	ld32	r16,r16
    b9fc:	0d 46 29 24 	wl16	r9,0x3144
    ba00:	0d 60 01 23 	wh16	r9,0x3
    ba04:	10 40 01 29 	ld32	r9,r9
    ba08:	00 00 01 10 	add	r8,r16
    ba0c:	20 70 03 e2 	movepc	rret,8
    ba10:	14 30 d1 80 	br	10 <compare>,#al
    ba14:	00 10 00 41 	add	r2,1
    ba18:	0d 41 c9 08 	wl16	r8,0xe48
    ba1c:	0d 60 01 03 	wh16	r8,0x3
    ba20:	10 40 01 08 	ld32	r8,r8
    ba24:	0d 43 fa 08 	wl16	r16,0x1fc8
    ba28:	0d 60 02 03 	wh16	r16,0x3
    ba2c:	10 40 02 10 	ld32	r16,r16
    ba30:	0d 46 29 28 	wl16	r9,0x3148
    ba34:	0d 60 01 23 	wh16	r9,0x3
    ba38:	10 40 01 29 	ld32	r9,r9
    ba3c:	00 00 01 10 	add	r8,r16
    ba40:	20 70 03 e2 	movepc	rret,8
    ba44:	14 30 d1 73 	br	10 <compare>,#al
    ba48:	00 10 00 41 	add	r2,1
    ba4c:	0d 41 c9 0c 	wl16	r8,0xe4c
    ba50:	0d 60 01 03 	wh16	r8,0x3
    ba54:	10 40 01 08 	ld32	r8,r8
    ba58:	0d 43 fa 0c 	wl16	r16,0x1fcc
    ba5c:	0d 60 02 03 	wh16	r16,0x3
    ba60:	10 40 02 10 	ld32	r16,r16
    ba64:	0d 46 29 2c 	wl16	r9,0x314c
    ba68:	0d 60 01 23 	wh16	r9,0x3
    ba6c:	10 40 01 29 	ld32	r9,r9
    ba70:	00 00 01 10 	add	r8,r16
    ba74:	20 70 03 e2 	movepc	rret,8
    ba78:	14 30 d1 66 	br	10 <compare>,#al
    ba7c:	00 10 00 41 	add	r2,1
    ba80:	0d 41 c9 10 	wl16	r8,0xe50
    ba84:	0d 60 01 03 	wh16	r8,0x3
    ba88:	10 40 01 08 	ld32	r8,r8
    ba8c:	0d 43 fa 10 	wl16	r16,0x1fd0
    ba90:	0d 60 02 03 	wh16	r16,0x3
    ba94:	10 40 02 10 	ld32	r16,r16
    ba98:	0d 46 29 30 	wl16	r9,0x3150
    ba9c:	0d 60 01 23 	wh16	r9,0x3
    baa0:	10 40 01 29 	ld32	r9,r9
    baa4:	00 00 01 10 	add	r8,r16
    baa8:	20 70 03 e2 	movepc	rret,8
    baac:	14 30 d1 59 	br	10 <compare>,#al
    bab0:	00 10 00 41 	add	r2,1
    bab4:	0d 41 c9 14 	wl16	r8,0xe54
    bab8:	0d 60 01 03 	wh16	r8,0x3
    babc:	10 40 01 08 	ld32	r8,r8
    bac0:	0d 43 fa 14 	wl16	r16,0x1fd4
    bac4:	0d 60 02 03 	wh16	r16,0x3
    bac8:	10 40 02 10 	ld32	r16,r16
    bacc:	0d 46 29 34 	wl16	r9,0x3154
    bad0:	0d 60 01 23 	wh16	r9,0x3
    bad4:	10 40 01 29 	ld32	r9,r9
    bad8:	00 00 01 10 	add	r8,r16
    badc:	20 70 03 e2 	movepc	rret,8
    bae0:	14 30 d1 4c 	br	10 <compare>,#al
    bae4:	00 10 00 41 	add	r2,1
    bae8:	0d 41 c9 18 	wl16	r8,0xe58
    baec:	0d 60 01 03 	wh16	r8,0x3
    baf0:	10 40 01 08 	ld32	r8,r8
    baf4:	0d 43 fa 18 	wl16	r16,0x1fd8
    baf8:	0d 60 02 03 	wh16	r16,0x3
    bafc:	10 40 02 10 	ld32	r16,r16
    bb00:	0d 46 29 38 	wl16	r9,0x3158
    bb04:	0d 60 01 23 	wh16	r9,0x3
    bb08:	10 40 01 29 	ld32	r9,r9
    bb0c:	00 00 01 10 	add	r8,r16
    bb10:	20 70 03 e2 	movepc	rret,8
    bb14:	14 30 d1 3f 	br	10 <compare>,#al
    bb18:	00 10 00 41 	add	r2,1
    bb1c:	0d 41 c9 1c 	wl16	r8,0xe5c
    bb20:	0d 60 01 03 	wh16	r8,0x3
    bb24:	10 40 01 08 	ld32	r8,r8
    bb28:	0d 43 fa 1c 	wl16	r16,0x1fdc
    bb2c:	0d 60 02 03 	wh16	r16,0x3
    bb30:	10 40 02 10 	ld32	r16,r16
    bb34:	0d 46 29 3c 	wl16	r9,0x315c
    bb38:	0d 60 01 23 	wh16	r9,0x3
    bb3c:	10 40 01 29 	ld32	r9,r9
    bb40:	00 00 01 10 	add	r8,r16
    bb44:	20 70 03 e2 	movepc	rret,8
    bb48:	14 30 d1 32 	br	10 <compare>,#al
    bb4c:	00 10 00 41 	add	r2,1
    bb50:	0d 41 cd 00 	wl16	r8,0xe60
    bb54:	0d 60 01 03 	wh16	r8,0x3
    bb58:	10 40 01 08 	ld32	r8,r8
    bb5c:	0d 43 fe 00 	wl16	r16,0x1fe0
    bb60:	0d 60 02 03 	wh16	r16,0x3
    bb64:	10 40 02 10 	ld32	r16,r16
    bb68:	0d 46 2d 20 	wl16	r9,0x3160
    bb6c:	0d 60 01 23 	wh16	r9,0x3
    bb70:	10 40 01 29 	ld32	r9,r9
    bb74:	00 00 01 10 	add	r8,r16
    bb78:	20 70 03 e2 	movepc	rret,8
    bb7c:	14 30 d1 25 	br	10 <compare>,#al
    bb80:	00 10 00 41 	add	r2,1
    bb84:	0d 41 cd 04 	wl16	r8,0xe64
    bb88:	0d 60 01 03 	wh16	r8,0x3
    bb8c:	10 40 01 08 	ld32	r8,r8
    bb90:	0d 43 fe 04 	wl16	r16,0x1fe4
    bb94:	0d 60 02 03 	wh16	r16,0x3
    bb98:	10 40 02 10 	ld32	r16,r16
    bb9c:	0d 46 2d 24 	wl16	r9,0x3164
    bba0:	0d 60 01 23 	wh16	r9,0x3
    bba4:	10 40 01 29 	ld32	r9,r9
    bba8:	00 00 01 10 	add	r8,r16
    bbac:	20 70 03 e2 	movepc	rret,8
    bbb0:	14 30 d1 18 	br	10 <compare>,#al
    bbb4:	00 10 00 41 	add	r2,1
    bbb8:	0d 41 cd 08 	wl16	r8,0xe68
    bbbc:	0d 60 01 03 	wh16	r8,0x3
    bbc0:	10 40 01 08 	ld32	r8,r8
    bbc4:	0d 43 fe 08 	wl16	r16,0x1fe8
    bbc8:	0d 60 02 03 	wh16	r16,0x3
    bbcc:	10 40 02 10 	ld32	r16,r16
    bbd0:	0d 46 2d 28 	wl16	r9,0x3168
    bbd4:	0d 60 01 23 	wh16	r9,0x3
    bbd8:	10 40 01 29 	ld32	r9,r9
    bbdc:	00 00 01 10 	add	r8,r16
    bbe0:	20 70 03 e2 	movepc	rret,8
    bbe4:	14 30 d1 0b 	br	10 <compare>,#al
    bbe8:	00 10 00 41 	add	r2,1
    bbec:	0d 41 cd 0c 	wl16	r8,0xe6c
    bbf0:	0d 60 01 03 	wh16	r8,0x3
    bbf4:	10 40 01 08 	ld32	r8,r8
    bbf8:	0d 43 fe 0c 	wl16	r16,0x1fec
    bbfc:	0d 60 02 03 	wh16	r16,0x3
    bc00:	10 40 02 10 	ld32	r16,r16
    bc04:	0d 46 2d 2c 	wl16	r9,0x316c
    bc08:	0d 60 01 23 	wh16	r9,0x3
    bc0c:	10 40 01 29 	ld32	r9,r9
    bc10:	00 00 01 10 	add	r8,r16
    bc14:	20 70 03 e2 	movepc	rret,8
    bc18:	14 30 d0 fe 	br	10 <compare>,#al
    bc1c:	00 10 00 41 	add	r2,1
    bc20:	0d 41 cd 10 	wl16	r8,0xe70
    bc24:	0d 60 01 03 	wh16	r8,0x3
    bc28:	10 40 01 08 	ld32	r8,r8
    bc2c:	0d 43 fe 10 	wl16	r16,0x1ff0
    bc30:	0d 60 02 03 	wh16	r16,0x3
    bc34:	10 40 02 10 	ld32	r16,r16
    bc38:	0d 46 2d 30 	wl16	r9,0x3170
    bc3c:	0d 60 01 23 	wh16	r9,0x3
    bc40:	10 40 01 29 	ld32	r9,r9
    bc44:	00 00 01 10 	add	r8,r16
    bc48:	20 70 03 e2 	movepc	rret,8
    bc4c:	14 30 d0 f1 	br	10 <compare>,#al
    bc50:	00 10 00 41 	add	r2,1
    bc54:	0d 41 cd 14 	wl16	r8,0xe74
    bc58:	0d 60 01 03 	wh16	r8,0x3
    bc5c:	10 40 01 08 	ld32	r8,r8
    bc60:	0d 43 fe 14 	wl16	r16,0x1ff4
    bc64:	0d 60 02 03 	wh16	r16,0x3
    bc68:	10 40 02 10 	ld32	r16,r16
    bc6c:	0d 46 2d 34 	wl16	r9,0x3174
    bc70:	0d 60 01 23 	wh16	r9,0x3
    bc74:	10 40 01 29 	ld32	r9,r9
    bc78:	00 00 01 10 	add	r8,r16
    bc7c:	20 70 03 e2 	movepc	rret,8
    bc80:	14 30 d0 e4 	br	10 <compare>,#al
    bc84:	00 10 00 41 	add	r2,1
    bc88:	0d 41 cd 18 	wl16	r8,0xe78
    bc8c:	0d 60 01 03 	wh16	r8,0x3
    bc90:	10 40 01 08 	ld32	r8,r8
    bc94:	0d 43 fe 18 	wl16	r16,0x1ff8
    bc98:	0d 60 02 03 	wh16	r16,0x3
    bc9c:	10 40 02 10 	ld32	r16,r16
    bca0:	0d 46 2d 38 	wl16	r9,0x3178
    bca4:	0d 60 01 23 	wh16	r9,0x3
    bca8:	10 40 01 29 	ld32	r9,r9
    bcac:	00 00 01 10 	add	r8,r16
    bcb0:	20 70 03 e2 	movepc	rret,8
    bcb4:	14 30 d0 d7 	br	10 <compare>,#al
    bcb8:	00 10 00 41 	add	r2,1
    bcbc:	0d 41 cd 1c 	wl16	r8,0xe7c
    bcc0:	0d 60 01 03 	wh16	r8,0x3
    bcc4:	10 40 01 08 	ld32	r8,r8
    bcc8:	0d 43 fe 1c 	wl16	r16,0x1ffc
    bccc:	0d 60 02 03 	wh16	r16,0x3
    bcd0:	10 40 02 10 	ld32	r16,r16
    bcd4:	0d 46 2d 3c 	wl16	r9,0x317c
    bcd8:	0d 60 01 23 	wh16	r9,0x3
    bcdc:	10 40 01 29 	ld32	r9,r9
    bce0:	00 00 01 10 	add	r8,r16
    bce4:	20 70 03 e2 	movepc	rret,8
    bce8:	14 30 d0 ca 	br	10 <compare>,#al
    bcec:	00 10 00 41 	add	r2,1
    bcf0:	0d 41 d1 00 	wl16	r8,0xe80
    bcf4:	0d 60 01 03 	wh16	r8,0x3
    bcf8:	10 40 01 08 	ld32	r8,r8
    bcfc:	0d 44 02 00 	wl16	r16,0x2000
    bd00:	0d 60 02 03 	wh16	r16,0x3
    bd04:	10 40 02 10 	ld32	r16,r16
    bd08:	0d 46 31 20 	wl16	r9,0x3180
    bd0c:	0d 60 01 23 	wh16	r9,0x3
    bd10:	10 40 01 29 	ld32	r9,r9
    bd14:	00 00 01 10 	add	r8,r16
    bd18:	20 70 03 e2 	movepc	rret,8
    bd1c:	14 30 d0 bd 	br	10 <compare>,#al
    bd20:	00 10 00 41 	add	r2,1
    bd24:	0d 41 d1 04 	wl16	r8,0xe84
    bd28:	0d 60 01 03 	wh16	r8,0x3
    bd2c:	10 40 01 08 	ld32	r8,r8
    bd30:	0d 44 02 04 	wl16	r16,0x2004
    bd34:	0d 60 02 03 	wh16	r16,0x3
    bd38:	10 40 02 10 	ld32	r16,r16
    bd3c:	0d 46 31 24 	wl16	r9,0x3184
    bd40:	0d 60 01 23 	wh16	r9,0x3
    bd44:	10 40 01 29 	ld32	r9,r9
    bd48:	00 00 01 10 	add	r8,r16
    bd4c:	20 70 03 e2 	movepc	rret,8
    bd50:	14 30 d0 b0 	br	10 <compare>,#al
    bd54:	00 10 00 41 	add	r2,1
    bd58:	0d 41 d1 08 	wl16	r8,0xe88
    bd5c:	0d 60 01 03 	wh16	r8,0x3
    bd60:	10 40 01 08 	ld32	r8,r8
    bd64:	0d 44 02 08 	wl16	r16,0x2008
    bd68:	0d 60 02 03 	wh16	r16,0x3
    bd6c:	10 40 02 10 	ld32	r16,r16
    bd70:	0d 46 31 28 	wl16	r9,0x3188
    bd74:	0d 60 01 23 	wh16	r9,0x3
    bd78:	10 40 01 29 	ld32	r9,r9
    bd7c:	00 00 01 10 	add	r8,r16
    bd80:	20 70 03 e2 	movepc	rret,8
    bd84:	14 30 d0 a3 	br	10 <compare>,#al
    bd88:	00 10 00 41 	add	r2,1
    bd8c:	0d 41 d1 0c 	wl16	r8,0xe8c
    bd90:	0d 60 01 03 	wh16	r8,0x3
    bd94:	10 40 01 08 	ld32	r8,r8
    bd98:	0d 44 02 0c 	wl16	r16,0x200c
    bd9c:	0d 60 02 03 	wh16	r16,0x3
    bda0:	10 40 02 10 	ld32	r16,r16
    bda4:	0d 46 31 2c 	wl16	r9,0x318c
    bda8:	0d 60 01 23 	wh16	r9,0x3
    bdac:	10 40 01 29 	ld32	r9,r9
    bdb0:	00 00 01 10 	add	r8,r16
    bdb4:	20 70 03 e2 	movepc	rret,8
    bdb8:	14 30 d0 96 	br	10 <compare>,#al
    bdbc:	00 10 00 41 	add	r2,1
    bdc0:	0d 41 d1 10 	wl16	r8,0xe90
    bdc4:	0d 60 01 03 	wh16	r8,0x3
    bdc8:	10 40 01 08 	ld32	r8,r8
    bdcc:	0d 44 02 10 	wl16	r16,0x2010
    bdd0:	0d 60 02 03 	wh16	r16,0x3
    bdd4:	10 40 02 10 	ld32	r16,r16
    bdd8:	0d 46 31 30 	wl16	r9,0x3190
    bddc:	0d 60 01 23 	wh16	r9,0x3
    bde0:	10 40 01 29 	ld32	r9,r9
    bde4:	00 00 01 10 	add	r8,r16
    bde8:	20 70 03 e2 	movepc	rret,8
    bdec:	14 30 d0 89 	br	10 <compare>,#al
    bdf0:	00 10 00 41 	add	r2,1
    bdf4:	0d 41 d1 14 	wl16	r8,0xe94
    bdf8:	0d 60 01 03 	wh16	r8,0x3
    bdfc:	10 40 01 08 	ld32	r8,r8
    be00:	0d 44 02 14 	wl16	r16,0x2014
    be04:	0d 60 02 03 	wh16	r16,0x3
    be08:	10 40 02 10 	ld32	r16,r16
    be0c:	0d 46 31 34 	wl16	r9,0x3194
    be10:	0d 60 01 23 	wh16	r9,0x3
    be14:	10 40 01 29 	ld32	r9,r9
    be18:	00 00 01 10 	add	r8,r16
    be1c:	20 70 03 e2 	movepc	rret,8
    be20:	14 30 d0 7c 	br	10 <compare>,#al
    be24:	00 10 00 41 	add	r2,1
    be28:	0d 41 d1 18 	wl16	r8,0xe98
    be2c:	0d 60 01 03 	wh16	r8,0x3
    be30:	10 40 01 08 	ld32	r8,r8
    be34:	0d 44 02 18 	wl16	r16,0x2018
    be38:	0d 60 02 03 	wh16	r16,0x3
    be3c:	10 40 02 10 	ld32	r16,r16
    be40:	0d 46 31 38 	wl16	r9,0x3198
    be44:	0d 60 01 23 	wh16	r9,0x3
    be48:	10 40 01 29 	ld32	r9,r9
    be4c:	00 00 01 10 	add	r8,r16
    be50:	20 70 03 e2 	movepc	rret,8
    be54:	14 30 d0 6f 	br	10 <compare>,#al
    be58:	00 10 00 41 	add	r2,1
    be5c:	0d 41 d1 1c 	wl16	r8,0xe9c
    be60:	0d 60 01 03 	wh16	r8,0x3
    be64:	10 40 01 08 	ld32	r8,r8
    be68:	0d 44 02 1c 	wl16	r16,0x201c
    be6c:	0d 60 02 03 	wh16	r16,0x3
    be70:	10 40 02 10 	ld32	r16,r16
    be74:	0d 46 31 3c 	wl16	r9,0x319c
    be78:	0d 60 01 23 	wh16	r9,0x3
    be7c:	10 40 01 29 	ld32	r9,r9
    be80:	00 00 01 10 	add	r8,r16
    be84:	20 70 03 e2 	movepc	rret,8
    be88:	14 30 d0 62 	br	10 <compare>,#al
    be8c:	00 10 00 41 	add	r2,1
    be90:	0d 41 d5 00 	wl16	r8,0xea0
    be94:	0d 60 01 03 	wh16	r8,0x3
    be98:	10 40 01 08 	ld32	r8,r8
    be9c:	0d 44 06 00 	wl16	r16,0x2020
    bea0:	0d 60 02 03 	wh16	r16,0x3
    bea4:	10 40 02 10 	ld32	r16,r16
    bea8:	0d 46 35 20 	wl16	r9,0x31a0
    beac:	0d 60 01 23 	wh16	r9,0x3
    beb0:	10 40 01 29 	ld32	r9,r9
    beb4:	00 00 01 10 	add	r8,r16
    beb8:	20 70 03 e2 	movepc	rret,8
    bebc:	14 30 d0 55 	br	10 <compare>,#al
    bec0:	00 10 00 41 	add	r2,1
    bec4:	0d 41 d5 04 	wl16	r8,0xea4
    bec8:	0d 60 01 03 	wh16	r8,0x3
    becc:	10 40 01 08 	ld32	r8,r8
    bed0:	0d 44 06 04 	wl16	r16,0x2024
    bed4:	0d 60 02 03 	wh16	r16,0x3
    bed8:	10 40 02 10 	ld32	r16,r16
    bedc:	0d 46 35 24 	wl16	r9,0x31a4
    bee0:	0d 60 01 23 	wh16	r9,0x3
    bee4:	10 40 01 29 	ld32	r9,r9
    bee8:	00 00 01 10 	add	r8,r16
    beec:	20 70 03 e2 	movepc	rret,8
    bef0:	14 30 d0 48 	br	10 <compare>,#al
    bef4:	00 10 00 41 	add	r2,1
    bef8:	0d 41 d5 08 	wl16	r8,0xea8
    befc:	0d 60 01 03 	wh16	r8,0x3
    bf00:	10 40 01 08 	ld32	r8,r8
    bf04:	0d 44 06 08 	wl16	r16,0x2028
    bf08:	0d 60 02 03 	wh16	r16,0x3
    bf0c:	10 40 02 10 	ld32	r16,r16
    bf10:	0d 46 35 28 	wl16	r9,0x31a8
    bf14:	0d 60 01 23 	wh16	r9,0x3
    bf18:	10 40 01 29 	ld32	r9,r9
    bf1c:	00 00 01 10 	add	r8,r16
    bf20:	20 70 03 e2 	movepc	rret,8
    bf24:	14 30 d0 3b 	br	10 <compare>,#al
    bf28:	00 10 00 41 	add	r2,1
    bf2c:	0d 41 d5 0c 	wl16	r8,0xeac
    bf30:	0d 60 01 03 	wh16	r8,0x3
    bf34:	10 40 01 08 	ld32	r8,r8
    bf38:	0d 44 06 0c 	wl16	r16,0x202c
    bf3c:	0d 60 02 03 	wh16	r16,0x3
    bf40:	10 40 02 10 	ld32	r16,r16
    bf44:	0d 46 35 2c 	wl16	r9,0x31ac
    bf48:	0d 60 01 23 	wh16	r9,0x3
    bf4c:	10 40 01 29 	ld32	r9,r9
    bf50:	00 00 01 10 	add	r8,r16
    bf54:	20 70 03 e2 	movepc	rret,8
    bf58:	14 30 d0 2e 	br	10 <compare>,#al
    bf5c:	00 10 00 41 	add	r2,1
    bf60:	0d 41 d5 10 	wl16	r8,0xeb0
    bf64:	0d 60 01 03 	wh16	r8,0x3
    bf68:	10 40 01 08 	ld32	r8,r8
    bf6c:	0d 44 06 10 	wl16	r16,0x2030
    bf70:	0d 60 02 03 	wh16	r16,0x3
    bf74:	10 40 02 10 	ld32	r16,r16
    bf78:	0d 46 35 30 	wl16	r9,0x31b0
    bf7c:	0d 60 01 23 	wh16	r9,0x3
    bf80:	10 40 01 29 	ld32	r9,r9
    bf84:	00 00 01 10 	add	r8,r16
    bf88:	20 70 03 e2 	movepc	rret,8
    bf8c:	14 30 d0 21 	br	10 <compare>,#al
    bf90:	00 10 00 41 	add	r2,1
    bf94:	0d 41 d5 14 	wl16	r8,0xeb4
    bf98:	0d 60 01 03 	wh16	r8,0x3
    bf9c:	10 40 01 08 	ld32	r8,r8
    bfa0:	0d 44 06 14 	wl16	r16,0x2034
    bfa4:	0d 60 02 03 	wh16	r16,0x3
    bfa8:	10 40 02 10 	ld32	r16,r16
    bfac:	0d 46 35 34 	wl16	r9,0x31b4
    bfb0:	0d 60 01 23 	wh16	r9,0x3
    bfb4:	10 40 01 29 	ld32	r9,r9
    bfb8:	00 00 01 10 	add	r8,r16
    bfbc:	20 70 03 e2 	movepc	rret,8
    bfc0:	14 30 d0 14 	br	10 <compare>,#al
    bfc4:	00 10 00 41 	add	r2,1
    bfc8:	0d 41 d5 18 	wl16	r8,0xeb8
    bfcc:	0d 60 01 03 	wh16	r8,0x3
    bfd0:	10 40 01 08 	ld32	r8,r8
    bfd4:	0d 44 06 18 	wl16	r16,0x2038
    bfd8:	0d 60 02 03 	wh16	r16,0x3
    bfdc:	10 40 02 10 	ld32	r16,r16
    bfe0:	0d 46 35 38 	wl16	r9,0x31b8
    bfe4:	0d 60 01 23 	wh16	r9,0x3
    bfe8:	10 40 01 29 	ld32	r9,r9
    bfec:	00 00 01 10 	add	r8,r16
    bff0:	20 70 03 e2 	movepc	rret,8
    bff4:	14 30 d0 07 	br	10 <compare>,#al
    bff8:	00 10 00 41 	add	r2,1
    bffc:	0d 41 d5 1c 	wl16	r8,0xebc
    c000:	0d 60 01 03 	wh16	r8,0x3
    c004:	10 40 01 08 	ld32	r8,r8
    c008:	0d 44 06 1c 	wl16	r16,0x203c
    c00c:	0d 60 02 03 	wh16	r16,0x3
    c010:	10 40 02 10 	ld32	r16,r16
    c014:	0d 46 35 3c 	wl16	r9,0x31bc
    c018:	0d 60 01 23 	wh16	r9,0x3
    c01c:	10 40 01 29 	ld32	r9,r9
    c020:	00 00 01 10 	add	r8,r16
    c024:	20 70 03 e2 	movepc	rret,8
    c028:	14 30 cf fa 	br	10 <compare>,#al
    c02c:	00 10 00 41 	add	r2,1
    c030:	0d 41 d9 00 	wl16	r8,0xec0
    c034:	0d 60 01 03 	wh16	r8,0x3
    c038:	10 40 01 08 	ld32	r8,r8
    c03c:	0d 44 0a 00 	wl16	r16,0x2040
    c040:	0d 60 02 03 	wh16	r16,0x3
    c044:	10 40 02 10 	ld32	r16,r16
    c048:	0d 46 39 20 	wl16	r9,0x31c0
    c04c:	0d 60 01 23 	wh16	r9,0x3
    c050:	10 40 01 29 	ld32	r9,r9
    c054:	00 00 01 10 	add	r8,r16
    c058:	20 70 03 e2 	movepc	rret,8
    c05c:	14 30 cf ed 	br	10 <compare>,#al
    c060:	00 10 00 41 	add	r2,1
    c064:	0d 41 d9 04 	wl16	r8,0xec4
    c068:	0d 60 01 03 	wh16	r8,0x3
    c06c:	10 40 01 08 	ld32	r8,r8
    c070:	0d 44 0a 04 	wl16	r16,0x2044
    c074:	0d 60 02 03 	wh16	r16,0x3
    c078:	10 40 02 10 	ld32	r16,r16
    c07c:	0d 46 39 24 	wl16	r9,0x31c4
    c080:	0d 60 01 23 	wh16	r9,0x3
    c084:	10 40 01 29 	ld32	r9,r9
    c088:	00 00 01 10 	add	r8,r16
    c08c:	20 70 03 e2 	movepc	rret,8
    c090:	14 30 cf e0 	br	10 <compare>,#al
    c094:	00 10 00 41 	add	r2,1
    c098:	0d 41 d9 08 	wl16	r8,0xec8
    c09c:	0d 60 01 03 	wh16	r8,0x3
    c0a0:	10 40 01 08 	ld32	r8,r8
    c0a4:	0d 44 0a 08 	wl16	r16,0x2048
    c0a8:	0d 60 02 03 	wh16	r16,0x3
    c0ac:	10 40 02 10 	ld32	r16,r16
    c0b0:	0d 46 39 28 	wl16	r9,0x31c8
    c0b4:	0d 60 01 23 	wh16	r9,0x3
    c0b8:	10 40 01 29 	ld32	r9,r9
    c0bc:	00 00 01 10 	add	r8,r16
    c0c0:	20 70 03 e2 	movepc	rret,8
    c0c4:	14 30 cf d3 	br	10 <compare>,#al
    c0c8:	00 10 00 41 	add	r2,1
    c0cc:	0d 41 d9 0c 	wl16	r8,0xecc
    c0d0:	0d 60 01 03 	wh16	r8,0x3
    c0d4:	10 40 01 08 	ld32	r8,r8
    c0d8:	0d 44 0a 0c 	wl16	r16,0x204c
    c0dc:	0d 60 02 03 	wh16	r16,0x3
    c0e0:	10 40 02 10 	ld32	r16,r16
    c0e4:	0d 46 39 2c 	wl16	r9,0x31cc
    c0e8:	0d 60 01 23 	wh16	r9,0x3
    c0ec:	10 40 01 29 	ld32	r9,r9
    c0f0:	00 00 01 10 	add	r8,r16
    c0f4:	20 70 03 e2 	movepc	rret,8
    c0f8:	14 30 cf c6 	br	10 <compare>,#al
    c0fc:	00 10 00 41 	add	r2,1
    c100:	0d 41 d9 10 	wl16	r8,0xed0
    c104:	0d 60 01 03 	wh16	r8,0x3
    c108:	10 40 01 08 	ld32	r8,r8
    c10c:	0d 44 0a 10 	wl16	r16,0x2050
    c110:	0d 60 02 03 	wh16	r16,0x3
    c114:	10 40 02 10 	ld32	r16,r16
    c118:	0d 46 39 30 	wl16	r9,0x31d0
    c11c:	0d 60 01 23 	wh16	r9,0x3
    c120:	10 40 01 29 	ld32	r9,r9
    c124:	00 00 01 10 	add	r8,r16
    c128:	20 70 03 e2 	movepc	rret,8
    c12c:	14 30 cf b9 	br	10 <compare>,#al
    c130:	00 10 00 41 	add	r2,1
    c134:	0d 41 d9 14 	wl16	r8,0xed4
    c138:	0d 60 01 03 	wh16	r8,0x3
    c13c:	10 40 01 08 	ld32	r8,r8
    c140:	0d 44 0a 14 	wl16	r16,0x2054
    c144:	0d 60 02 03 	wh16	r16,0x3
    c148:	10 40 02 10 	ld32	r16,r16
    c14c:	0d 46 39 34 	wl16	r9,0x31d4
    c150:	0d 60 01 23 	wh16	r9,0x3
    c154:	10 40 01 29 	ld32	r9,r9
    c158:	00 00 01 10 	add	r8,r16
    c15c:	20 70 03 e2 	movepc	rret,8
    c160:	14 30 cf ac 	br	10 <compare>,#al
    c164:	00 10 00 41 	add	r2,1
    c168:	0d 41 d9 18 	wl16	r8,0xed8
    c16c:	0d 60 01 03 	wh16	r8,0x3
    c170:	10 40 01 08 	ld32	r8,r8
    c174:	0d 44 0a 18 	wl16	r16,0x2058
    c178:	0d 60 02 03 	wh16	r16,0x3
    c17c:	10 40 02 10 	ld32	r16,r16
    c180:	0d 46 39 38 	wl16	r9,0x31d8
    c184:	0d 60 01 23 	wh16	r9,0x3
    c188:	10 40 01 29 	ld32	r9,r9
    c18c:	00 00 01 10 	add	r8,r16
    c190:	20 70 03 e2 	movepc	rret,8
    c194:	14 30 cf 9f 	br	10 <compare>,#al
    c198:	00 10 00 41 	add	r2,1
    c19c:	0d 41 d9 1c 	wl16	r8,0xedc
    c1a0:	0d 60 01 03 	wh16	r8,0x3
    c1a4:	10 40 01 08 	ld32	r8,r8
    c1a8:	0d 44 0a 1c 	wl16	r16,0x205c
    c1ac:	0d 60 02 03 	wh16	r16,0x3
    c1b0:	10 40 02 10 	ld32	r16,r16
    c1b4:	0d 46 39 3c 	wl16	r9,0x31dc
    c1b8:	0d 60 01 23 	wh16	r9,0x3
    c1bc:	10 40 01 29 	ld32	r9,r9
    c1c0:	00 00 01 10 	add	r8,r16
    c1c4:	20 70 03 e2 	movepc	rret,8
    c1c8:	14 30 cf 92 	br	10 <compare>,#al
    c1cc:	00 10 00 41 	add	r2,1
    c1d0:	0d 41 dd 00 	wl16	r8,0xee0
    c1d4:	0d 60 01 03 	wh16	r8,0x3
    c1d8:	10 40 01 08 	ld32	r8,r8
    c1dc:	0d 44 0e 00 	wl16	r16,0x2060
    c1e0:	0d 60 02 03 	wh16	r16,0x3
    c1e4:	10 40 02 10 	ld32	r16,r16
    c1e8:	0d 46 3d 20 	wl16	r9,0x31e0
    c1ec:	0d 60 01 23 	wh16	r9,0x3
    c1f0:	10 40 01 29 	ld32	r9,r9
    c1f4:	00 00 01 10 	add	r8,r16
    c1f8:	20 70 03 e2 	movepc	rret,8
    c1fc:	14 30 cf 85 	br	10 <compare>,#al
    c200:	00 10 00 41 	add	r2,1
    c204:	0d 41 dd 04 	wl16	r8,0xee4
    c208:	0d 60 01 03 	wh16	r8,0x3
    c20c:	10 40 01 08 	ld32	r8,r8
    c210:	0d 44 0e 04 	wl16	r16,0x2064
    c214:	0d 60 02 03 	wh16	r16,0x3
    c218:	10 40 02 10 	ld32	r16,r16
    c21c:	0d 46 3d 24 	wl16	r9,0x31e4
    c220:	0d 60 01 23 	wh16	r9,0x3
    c224:	10 40 01 29 	ld32	r9,r9
    c228:	00 00 01 10 	add	r8,r16
    c22c:	20 70 03 e2 	movepc	rret,8
    c230:	14 30 cf 78 	br	10 <compare>,#al
    c234:	00 10 00 41 	add	r2,1
    c238:	0d 41 dd 08 	wl16	r8,0xee8
    c23c:	0d 60 01 03 	wh16	r8,0x3
    c240:	10 40 01 08 	ld32	r8,r8
    c244:	0d 44 0e 08 	wl16	r16,0x2068
    c248:	0d 60 02 03 	wh16	r16,0x3
    c24c:	10 40 02 10 	ld32	r16,r16
    c250:	0d 46 3d 28 	wl16	r9,0x31e8
    c254:	0d 60 01 23 	wh16	r9,0x3
    c258:	10 40 01 29 	ld32	r9,r9
    c25c:	00 00 01 10 	add	r8,r16
    c260:	20 70 03 e2 	movepc	rret,8
    c264:	14 30 cf 6b 	br	10 <compare>,#al
    c268:	00 10 00 41 	add	r2,1
    c26c:	0d 41 dd 0c 	wl16	r8,0xeec
    c270:	0d 60 01 03 	wh16	r8,0x3
    c274:	10 40 01 08 	ld32	r8,r8
    c278:	0d 44 0e 0c 	wl16	r16,0x206c
    c27c:	0d 60 02 03 	wh16	r16,0x3
    c280:	10 40 02 10 	ld32	r16,r16
    c284:	0d 46 3d 2c 	wl16	r9,0x31ec
    c288:	0d 60 01 23 	wh16	r9,0x3
    c28c:	10 40 01 29 	ld32	r9,r9
    c290:	00 00 01 10 	add	r8,r16
    c294:	20 70 03 e2 	movepc	rret,8
    c298:	14 30 cf 5e 	br	10 <compare>,#al
    c29c:	00 10 00 41 	add	r2,1
    c2a0:	0d 41 dd 10 	wl16	r8,0xef0
    c2a4:	0d 60 01 03 	wh16	r8,0x3
    c2a8:	10 40 01 08 	ld32	r8,r8
    c2ac:	0d 44 0e 10 	wl16	r16,0x2070
    c2b0:	0d 60 02 03 	wh16	r16,0x3
    c2b4:	10 40 02 10 	ld32	r16,r16
    c2b8:	0d 46 3d 30 	wl16	r9,0x31f0
    c2bc:	0d 60 01 23 	wh16	r9,0x3
    c2c0:	10 40 01 29 	ld32	r9,r9
    c2c4:	00 00 01 10 	add	r8,r16
    c2c8:	20 70 03 e2 	movepc	rret,8
    c2cc:	14 30 cf 51 	br	10 <compare>,#al
    c2d0:	00 10 00 41 	add	r2,1
    c2d4:	0d 41 dd 14 	wl16	r8,0xef4
    c2d8:	0d 60 01 03 	wh16	r8,0x3
    c2dc:	10 40 01 08 	ld32	r8,r8
    c2e0:	0d 44 0e 14 	wl16	r16,0x2074
    c2e4:	0d 60 02 03 	wh16	r16,0x3
    c2e8:	10 40 02 10 	ld32	r16,r16
    c2ec:	0d 46 3d 34 	wl16	r9,0x31f4
    c2f0:	0d 60 01 23 	wh16	r9,0x3
    c2f4:	10 40 01 29 	ld32	r9,r9
    c2f8:	00 00 01 10 	add	r8,r16
    c2fc:	20 70 03 e2 	movepc	rret,8
    c300:	14 30 cf 44 	br	10 <compare>,#al
    c304:	00 10 00 41 	add	r2,1
    c308:	0d 41 dd 18 	wl16	r8,0xef8
    c30c:	0d 60 01 03 	wh16	r8,0x3
    c310:	10 40 01 08 	ld32	r8,r8
    c314:	0d 44 0e 18 	wl16	r16,0x2078
    c318:	0d 60 02 03 	wh16	r16,0x3
    c31c:	10 40 02 10 	ld32	r16,r16
    c320:	0d 46 3d 38 	wl16	r9,0x31f8
    c324:	0d 60 01 23 	wh16	r9,0x3
    c328:	10 40 01 29 	ld32	r9,r9
    c32c:	00 00 01 10 	add	r8,r16
    c330:	20 70 03 e2 	movepc	rret,8
    c334:	14 30 cf 37 	br	10 <compare>,#al
    c338:	00 10 00 41 	add	r2,1
    c33c:	0d 41 dd 1c 	wl16	r8,0xefc
    c340:	0d 60 01 03 	wh16	r8,0x3
    c344:	10 40 01 08 	ld32	r8,r8
    c348:	0d 44 0e 1c 	wl16	r16,0x207c
    c34c:	0d 60 02 03 	wh16	r16,0x3
    c350:	10 40 02 10 	ld32	r16,r16
    c354:	0d 46 3d 3c 	wl16	r9,0x31fc
    c358:	0d 60 01 23 	wh16	r9,0x3
    c35c:	10 40 01 29 	ld32	r9,r9
    c360:	00 00 01 10 	add	r8,r16
    c364:	20 70 03 e2 	movepc	rret,8
    c368:	14 30 cf 2a 	br	10 <compare>,#al
    c36c:	00 10 00 41 	add	r2,1
    c370:	0d 41 e1 00 	wl16	r8,0xf00
    c374:	0d 60 01 03 	wh16	r8,0x3
    c378:	10 40 01 08 	ld32	r8,r8
    c37c:	0d 44 12 00 	wl16	r16,0x2080
    c380:	0d 60 02 03 	wh16	r16,0x3
    c384:	10 40 02 10 	ld32	r16,r16
    c388:	0d 46 41 20 	wl16	r9,0x3200
    c38c:	0d 60 01 23 	wh16	r9,0x3
    c390:	10 40 01 29 	ld32	r9,r9
    c394:	00 00 01 10 	add	r8,r16
    c398:	20 70 03 e2 	movepc	rret,8
    c39c:	14 30 cf 1d 	br	10 <compare>,#al
    c3a0:	00 10 00 41 	add	r2,1
    c3a4:	0d 41 e1 04 	wl16	r8,0xf04
    c3a8:	0d 60 01 03 	wh16	r8,0x3
    c3ac:	10 40 01 08 	ld32	r8,r8
    c3b0:	0d 44 12 04 	wl16	r16,0x2084
    c3b4:	0d 60 02 03 	wh16	r16,0x3
    c3b8:	10 40 02 10 	ld32	r16,r16
    c3bc:	0d 46 41 24 	wl16	r9,0x3204
    c3c0:	0d 60 01 23 	wh16	r9,0x3
    c3c4:	10 40 01 29 	ld32	r9,r9
    c3c8:	00 00 01 10 	add	r8,r16
    c3cc:	20 70 03 e2 	movepc	rret,8
    c3d0:	14 30 cf 10 	br	10 <compare>,#al
    c3d4:	00 10 00 41 	add	r2,1
    c3d8:	0d 41 e1 08 	wl16	r8,0xf08
    c3dc:	0d 60 01 03 	wh16	r8,0x3
    c3e0:	10 40 01 08 	ld32	r8,r8
    c3e4:	0d 44 12 08 	wl16	r16,0x2088
    c3e8:	0d 60 02 03 	wh16	r16,0x3
    c3ec:	10 40 02 10 	ld32	r16,r16
    c3f0:	0d 46 41 28 	wl16	r9,0x3208
    c3f4:	0d 60 01 23 	wh16	r9,0x3
    c3f8:	10 40 01 29 	ld32	r9,r9
    c3fc:	00 00 01 10 	add	r8,r16
    c400:	20 70 03 e2 	movepc	rret,8
    c404:	14 30 cf 03 	br	10 <compare>,#al
    c408:	00 10 00 41 	add	r2,1
    c40c:	0d 41 e1 0c 	wl16	r8,0xf0c
    c410:	0d 60 01 03 	wh16	r8,0x3
    c414:	10 40 01 08 	ld32	r8,r8
    c418:	0d 44 12 0c 	wl16	r16,0x208c
    c41c:	0d 60 02 03 	wh16	r16,0x3
    c420:	10 40 02 10 	ld32	r16,r16
    c424:	0d 46 41 2c 	wl16	r9,0x320c
    c428:	0d 60 01 23 	wh16	r9,0x3
    c42c:	10 40 01 29 	ld32	r9,r9
    c430:	00 00 01 10 	add	r8,r16
    c434:	20 70 03 e2 	movepc	rret,8
    c438:	14 30 ce f6 	br	10 <compare>,#al
    c43c:	00 10 00 41 	add	r2,1
    c440:	0d 41 e1 10 	wl16	r8,0xf10
    c444:	0d 60 01 03 	wh16	r8,0x3
    c448:	10 40 01 08 	ld32	r8,r8
    c44c:	0d 44 12 10 	wl16	r16,0x2090
    c450:	0d 60 02 03 	wh16	r16,0x3
    c454:	10 40 02 10 	ld32	r16,r16
    c458:	0d 46 41 30 	wl16	r9,0x3210
    c45c:	0d 60 01 23 	wh16	r9,0x3
    c460:	10 40 01 29 	ld32	r9,r9
    c464:	00 00 01 10 	add	r8,r16
    c468:	20 70 03 e2 	movepc	rret,8
    c46c:	14 30 ce e9 	br	10 <compare>,#al
    c470:	00 10 00 41 	add	r2,1
    c474:	0d 41 e1 14 	wl16	r8,0xf14
    c478:	0d 60 01 03 	wh16	r8,0x3
    c47c:	10 40 01 08 	ld32	r8,r8
    c480:	0d 44 12 14 	wl16	r16,0x2094
    c484:	0d 60 02 03 	wh16	r16,0x3
    c488:	10 40 02 10 	ld32	r16,r16
    c48c:	0d 46 41 34 	wl16	r9,0x3214
    c490:	0d 60 01 23 	wh16	r9,0x3
    c494:	10 40 01 29 	ld32	r9,r9
    c498:	00 00 01 10 	add	r8,r16
    c49c:	20 70 03 e2 	movepc	rret,8
    c4a0:	14 30 ce dc 	br	10 <compare>,#al
    c4a4:	00 10 00 41 	add	r2,1
    c4a8:	0d 41 e1 18 	wl16	r8,0xf18
    c4ac:	0d 60 01 03 	wh16	r8,0x3
    c4b0:	10 40 01 08 	ld32	r8,r8
    c4b4:	0d 44 12 18 	wl16	r16,0x2098
    c4b8:	0d 60 02 03 	wh16	r16,0x3
    c4bc:	10 40 02 10 	ld32	r16,r16
    c4c0:	0d 46 41 38 	wl16	r9,0x3218
    c4c4:	0d 60 01 23 	wh16	r9,0x3
    c4c8:	10 40 01 29 	ld32	r9,r9
    c4cc:	00 00 01 10 	add	r8,r16
    c4d0:	20 70 03 e2 	movepc	rret,8
    c4d4:	14 30 ce cf 	br	10 <compare>,#al
    c4d8:	00 10 00 41 	add	r2,1
    c4dc:	0d 41 e1 1c 	wl16	r8,0xf1c
    c4e0:	0d 60 01 03 	wh16	r8,0x3
    c4e4:	10 40 01 08 	ld32	r8,r8
    c4e8:	0d 44 12 1c 	wl16	r16,0x209c
    c4ec:	0d 60 02 03 	wh16	r16,0x3
    c4f0:	10 40 02 10 	ld32	r16,r16
    c4f4:	0d 46 41 3c 	wl16	r9,0x321c
    c4f8:	0d 60 01 23 	wh16	r9,0x3
    c4fc:	10 40 01 29 	ld32	r9,r9
    c500:	00 00 01 10 	add	r8,r16
    c504:	20 70 03 e2 	movepc	rret,8
    c508:	14 30 ce c2 	br	10 <compare>,#al
    c50c:	00 10 00 41 	add	r2,1
    c510:	0d 41 e5 00 	wl16	r8,0xf20
    c514:	0d 60 01 03 	wh16	r8,0x3
    c518:	10 40 01 08 	ld32	r8,r8
    c51c:	0d 44 16 00 	wl16	r16,0x20a0
    c520:	0d 60 02 03 	wh16	r16,0x3
    c524:	10 40 02 10 	ld32	r16,r16
    c528:	0d 46 45 20 	wl16	r9,0x3220
    c52c:	0d 60 01 23 	wh16	r9,0x3
    c530:	10 40 01 29 	ld32	r9,r9
    c534:	00 00 01 10 	add	r8,r16
    c538:	20 70 03 e2 	movepc	rret,8
    c53c:	14 30 ce b5 	br	10 <compare>,#al
    c540:	00 10 00 41 	add	r2,1
    c544:	0d 41 e5 04 	wl16	r8,0xf24
    c548:	0d 60 01 03 	wh16	r8,0x3
    c54c:	10 40 01 08 	ld32	r8,r8
    c550:	0d 44 16 04 	wl16	r16,0x20a4
    c554:	0d 60 02 03 	wh16	r16,0x3
    c558:	10 40 02 10 	ld32	r16,r16
    c55c:	0d 46 45 24 	wl16	r9,0x3224
    c560:	0d 60 01 23 	wh16	r9,0x3
    c564:	10 40 01 29 	ld32	r9,r9
    c568:	00 00 01 10 	add	r8,r16
    c56c:	20 70 03 e2 	movepc	rret,8
    c570:	14 30 ce a8 	br	10 <compare>,#al
    c574:	00 10 00 41 	add	r2,1
    c578:	0d 41 e5 08 	wl16	r8,0xf28
    c57c:	0d 60 01 03 	wh16	r8,0x3
    c580:	10 40 01 08 	ld32	r8,r8
    c584:	0d 44 16 08 	wl16	r16,0x20a8
    c588:	0d 60 02 03 	wh16	r16,0x3
    c58c:	10 40 02 10 	ld32	r16,r16
    c590:	0d 46 45 28 	wl16	r9,0x3228
    c594:	0d 60 01 23 	wh16	r9,0x3
    c598:	10 40 01 29 	ld32	r9,r9
    c59c:	00 00 01 10 	add	r8,r16
    c5a0:	20 70 03 e2 	movepc	rret,8
    c5a4:	14 30 ce 9b 	br	10 <compare>,#al
    c5a8:	00 10 00 41 	add	r2,1
    c5ac:	0d 41 e5 0c 	wl16	r8,0xf2c
    c5b0:	0d 60 01 03 	wh16	r8,0x3
    c5b4:	10 40 01 08 	ld32	r8,r8
    c5b8:	0d 44 16 0c 	wl16	r16,0x20ac
    c5bc:	0d 60 02 03 	wh16	r16,0x3
    c5c0:	10 40 02 10 	ld32	r16,r16
    c5c4:	0d 46 45 2c 	wl16	r9,0x322c
    c5c8:	0d 60 01 23 	wh16	r9,0x3
    c5cc:	10 40 01 29 	ld32	r9,r9
    c5d0:	00 00 01 10 	add	r8,r16
    c5d4:	20 70 03 e2 	movepc	rret,8
    c5d8:	14 30 ce 8e 	br	10 <compare>,#al
    c5dc:	00 10 00 41 	add	r2,1
    c5e0:	0d 41 e5 10 	wl16	r8,0xf30
    c5e4:	0d 60 01 03 	wh16	r8,0x3
    c5e8:	10 40 01 08 	ld32	r8,r8
    c5ec:	0d 44 16 10 	wl16	r16,0x20b0
    c5f0:	0d 60 02 03 	wh16	r16,0x3
    c5f4:	10 40 02 10 	ld32	r16,r16
    c5f8:	0d 46 45 30 	wl16	r9,0x3230
    c5fc:	0d 60 01 23 	wh16	r9,0x3
    c600:	10 40 01 29 	ld32	r9,r9
    c604:	00 00 01 10 	add	r8,r16
    c608:	20 70 03 e2 	movepc	rret,8
    c60c:	14 30 ce 81 	br	10 <compare>,#al
    c610:	00 10 00 41 	add	r2,1
    c614:	0d 41 e5 14 	wl16	r8,0xf34
    c618:	0d 60 01 03 	wh16	r8,0x3
    c61c:	10 40 01 08 	ld32	r8,r8
    c620:	0d 44 16 14 	wl16	r16,0x20b4
    c624:	0d 60 02 03 	wh16	r16,0x3
    c628:	10 40 02 10 	ld32	r16,r16
    c62c:	0d 46 45 34 	wl16	r9,0x3234
    c630:	0d 60 01 23 	wh16	r9,0x3
    c634:	10 40 01 29 	ld32	r9,r9
    c638:	00 00 01 10 	add	r8,r16
    c63c:	20 70 03 e2 	movepc	rret,8
    c640:	14 30 ce 74 	br	10 <compare>,#al
    c644:	00 10 00 41 	add	r2,1
    c648:	0d 41 e5 18 	wl16	r8,0xf38
    c64c:	0d 60 01 03 	wh16	r8,0x3
    c650:	10 40 01 08 	ld32	r8,r8
    c654:	0d 44 16 18 	wl16	r16,0x20b8
    c658:	0d 60 02 03 	wh16	r16,0x3
    c65c:	10 40 02 10 	ld32	r16,r16
    c660:	0d 46 45 38 	wl16	r9,0x3238
    c664:	0d 60 01 23 	wh16	r9,0x3
    c668:	10 40 01 29 	ld32	r9,r9
    c66c:	00 00 01 10 	add	r8,r16
    c670:	20 70 03 e2 	movepc	rret,8
    c674:	14 30 ce 67 	br	10 <compare>,#al
    c678:	00 10 00 41 	add	r2,1
    c67c:	0d 41 e5 1c 	wl16	r8,0xf3c
    c680:	0d 60 01 03 	wh16	r8,0x3
    c684:	10 40 01 08 	ld32	r8,r8
    c688:	0d 44 16 1c 	wl16	r16,0x20bc
    c68c:	0d 60 02 03 	wh16	r16,0x3
    c690:	10 40 02 10 	ld32	r16,r16
    c694:	0d 46 45 3c 	wl16	r9,0x323c
    c698:	0d 60 01 23 	wh16	r9,0x3
    c69c:	10 40 01 29 	ld32	r9,r9
    c6a0:	00 00 01 10 	add	r8,r16
    c6a4:	20 70 03 e2 	movepc	rret,8
    c6a8:	14 30 ce 5a 	br	10 <compare>,#al
    c6ac:	00 10 00 41 	add	r2,1
    c6b0:	0d 41 e9 00 	wl16	r8,0xf40
    c6b4:	0d 60 01 03 	wh16	r8,0x3
    c6b8:	10 40 01 08 	ld32	r8,r8
    c6bc:	0d 44 1a 00 	wl16	r16,0x20c0
    c6c0:	0d 60 02 03 	wh16	r16,0x3
    c6c4:	10 40 02 10 	ld32	r16,r16
    c6c8:	0d 46 49 20 	wl16	r9,0x3240
    c6cc:	0d 60 01 23 	wh16	r9,0x3
    c6d0:	10 40 01 29 	ld32	r9,r9
    c6d4:	00 00 01 10 	add	r8,r16
    c6d8:	20 70 03 e2 	movepc	rret,8
    c6dc:	14 30 ce 4d 	br	10 <compare>,#al
    c6e0:	00 10 00 41 	add	r2,1
    c6e4:	0d 41 e9 04 	wl16	r8,0xf44
    c6e8:	0d 60 01 03 	wh16	r8,0x3
    c6ec:	10 40 01 08 	ld32	r8,r8
    c6f0:	0d 44 1a 04 	wl16	r16,0x20c4
    c6f4:	0d 60 02 03 	wh16	r16,0x3
    c6f8:	10 40 02 10 	ld32	r16,r16
    c6fc:	0d 46 49 24 	wl16	r9,0x3244
    c700:	0d 60 01 23 	wh16	r9,0x3
    c704:	10 40 01 29 	ld32	r9,r9
    c708:	00 00 01 10 	add	r8,r16
    c70c:	20 70 03 e2 	movepc	rret,8
    c710:	14 30 ce 40 	br	10 <compare>,#al
    c714:	00 10 00 41 	add	r2,1
    c718:	0d 41 e9 08 	wl16	r8,0xf48
    c71c:	0d 60 01 03 	wh16	r8,0x3
    c720:	10 40 01 08 	ld32	r8,r8
    c724:	0d 44 1a 08 	wl16	r16,0x20c8
    c728:	0d 60 02 03 	wh16	r16,0x3
    c72c:	10 40 02 10 	ld32	r16,r16
    c730:	0d 46 49 28 	wl16	r9,0x3248
    c734:	0d 60 01 23 	wh16	r9,0x3
    c738:	10 40 01 29 	ld32	r9,r9
    c73c:	00 00 01 10 	add	r8,r16
    c740:	20 70 03 e2 	movepc	rret,8
    c744:	14 30 ce 33 	br	10 <compare>,#al
    c748:	00 10 00 41 	add	r2,1
    c74c:	0d 41 e9 0c 	wl16	r8,0xf4c
    c750:	0d 60 01 03 	wh16	r8,0x3
    c754:	10 40 01 08 	ld32	r8,r8
    c758:	0d 44 1a 0c 	wl16	r16,0x20cc
    c75c:	0d 60 02 03 	wh16	r16,0x3
    c760:	10 40 02 10 	ld32	r16,r16
    c764:	0d 46 49 2c 	wl16	r9,0x324c
    c768:	0d 60 01 23 	wh16	r9,0x3
    c76c:	10 40 01 29 	ld32	r9,r9
    c770:	00 00 01 10 	add	r8,r16
    c774:	20 70 03 e2 	movepc	rret,8
    c778:	14 30 ce 26 	br	10 <compare>,#al
    c77c:	00 10 00 41 	add	r2,1
    c780:	0d 41 e9 10 	wl16	r8,0xf50
    c784:	0d 60 01 03 	wh16	r8,0x3
    c788:	10 40 01 08 	ld32	r8,r8
    c78c:	0d 44 1a 10 	wl16	r16,0x20d0
    c790:	0d 60 02 03 	wh16	r16,0x3
    c794:	10 40 02 10 	ld32	r16,r16
    c798:	0d 46 49 30 	wl16	r9,0x3250
    c79c:	0d 60 01 23 	wh16	r9,0x3
    c7a0:	10 40 01 29 	ld32	r9,r9
    c7a4:	00 00 01 10 	add	r8,r16
    c7a8:	20 70 03 e2 	movepc	rret,8
    c7ac:	14 30 ce 19 	br	10 <compare>,#al
    c7b0:	00 10 00 41 	add	r2,1
    c7b4:	0d 41 e9 14 	wl16	r8,0xf54
    c7b8:	0d 60 01 03 	wh16	r8,0x3
    c7bc:	10 40 01 08 	ld32	r8,r8
    c7c0:	0d 44 1a 14 	wl16	r16,0x20d4
    c7c4:	0d 60 02 03 	wh16	r16,0x3
    c7c8:	10 40 02 10 	ld32	r16,r16
    c7cc:	0d 46 49 34 	wl16	r9,0x3254
    c7d0:	0d 60 01 23 	wh16	r9,0x3
    c7d4:	10 40 01 29 	ld32	r9,r9
    c7d8:	00 00 01 10 	add	r8,r16
    c7dc:	20 70 03 e2 	movepc	rret,8
    c7e0:	14 30 ce 0c 	br	10 <compare>,#al
    c7e4:	00 10 00 41 	add	r2,1
    c7e8:	0d 41 e9 18 	wl16	r8,0xf58
    c7ec:	0d 60 01 03 	wh16	r8,0x3
    c7f0:	10 40 01 08 	ld32	r8,r8
    c7f4:	0d 44 1a 18 	wl16	r16,0x20d8
    c7f8:	0d 60 02 03 	wh16	r16,0x3
    c7fc:	10 40 02 10 	ld32	r16,r16
    c800:	0d 46 49 38 	wl16	r9,0x3258
    c804:	0d 60 01 23 	wh16	r9,0x3
    c808:	10 40 01 29 	ld32	r9,r9
    c80c:	00 00 01 10 	add	r8,r16
    c810:	20 70 03 e2 	movepc	rret,8
    c814:	14 30 cd ff 	br	10 <compare>,#al
    c818:	00 10 00 41 	add	r2,1
    c81c:	0d 41 e9 1c 	wl16	r8,0xf5c
    c820:	0d 60 01 03 	wh16	r8,0x3
    c824:	10 40 01 08 	ld32	r8,r8
    c828:	0d 44 1a 1c 	wl16	r16,0x20dc
    c82c:	0d 60 02 03 	wh16	r16,0x3
    c830:	10 40 02 10 	ld32	r16,r16
    c834:	0d 46 49 3c 	wl16	r9,0x325c
    c838:	0d 60 01 23 	wh16	r9,0x3
    c83c:	10 40 01 29 	ld32	r9,r9
    c840:	00 00 01 10 	add	r8,r16
    c844:	20 70 03 e2 	movepc	rret,8
    c848:	14 30 cd f2 	br	10 <compare>,#al
    c84c:	00 10 00 41 	add	r2,1
    c850:	0d 41 ed 00 	wl16	r8,0xf60
    c854:	0d 60 01 03 	wh16	r8,0x3
    c858:	10 40 01 08 	ld32	r8,r8
    c85c:	0d 44 1e 00 	wl16	r16,0x20e0
    c860:	0d 60 02 03 	wh16	r16,0x3
    c864:	10 40 02 10 	ld32	r16,r16
    c868:	0d 46 4d 20 	wl16	r9,0x3260
    c86c:	0d 60 01 23 	wh16	r9,0x3
    c870:	10 40 01 29 	ld32	r9,r9
    c874:	00 00 01 10 	add	r8,r16
    c878:	20 70 03 e2 	movepc	rret,8
    c87c:	14 30 cd e5 	br	10 <compare>,#al
    c880:	00 10 00 41 	add	r2,1
    c884:	0d 41 ed 04 	wl16	r8,0xf64
    c888:	0d 60 01 03 	wh16	r8,0x3
    c88c:	10 40 01 08 	ld32	r8,r8
    c890:	0d 44 1e 04 	wl16	r16,0x20e4
    c894:	0d 60 02 03 	wh16	r16,0x3
    c898:	10 40 02 10 	ld32	r16,r16
    c89c:	0d 46 4d 24 	wl16	r9,0x3264
    c8a0:	0d 60 01 23 	wh16	r9,0x3
    c8a4:	10 40 01 29 	ld32	r9,r9
    c8a8:	00 00 01 10 	add	r8,r16
    c8ac:	20 70 03 e2 	movepc	rret,8
    c8b0:	14 30 cd d8 	br	10 <compare>,#al
    c8b4:	00 10 00 41 	add	r2,1
    c8b8:	0d 41 ed 08 	wl16	r8,0xf68
    c8bc:	0d 60 01 03 	wh16	r8,0x3
    c8c0:	10 40 01 08 	ld32	r8,r8
    c8c4:	0d 44 1e 08 	wl16	r16,0x20e8
    c8c8:	0d 60 02 03 	wh16	r16,0x3
    c8cc:	10 40 02 10 	ld32	r16,r16
    c8d0:	0d 46 4d 28 	wl16	r9,0x3268
    c8d4:	0d 60 01 23 	wh16	r9,0x3
    c8d8:	10 40 01 29 	ld32	r9,r9
    c8dc:	00 00 01 10 	add	r8,r16
    c8e0:	20 70 03 e2 	movepc	rret,8
    c8e4:	14 30 cd cb 	br	10 <compare>,#al
    c8e8:	00 10 00 41 	add	r2,1
    c8ec:	0d 41 ed 0c 	wl16	r8,0xf6c
    c8f0:	0d 60 01 03 	wh16	r8,0x3
    c8f4:	10 40 01 08 	ld32	r8,r8
    c8f8:	0d 44 1e 0c 	wl16	r16,0x20ec
    c8fc:	0d 60 02 03 	wh16	r16,0x3
    c900:	10 40 02 10 	ld32	r16,r16
    c904:	0d 46 4d 2c 	wl16	r9,0x326c
    c908:	0d 60 01 23 	wh16	r9,0x3
    c90c:	10 40 01 29 	ld32	r9,r9
    c910:	00 00 01 10 	add	r8,r16
    c914:	20 70 03 e2 	movepc	rret,8
    c918:	14 30 cd be 	br	10 <compare>,#al
    c91c:	00 10 00 41 	add	r2,1
    c920:	0d 41 ed 10 	wl16	r8,0xf70
    c924:	0d 60 01 03 	wh16	r8,0x3
    c928:	10 40 01 08 	ld32	r8,r8
    c92c:	0d 44 1e 10 	wl16	r16,0x20f0
    c930:	0d 60 02 03 	wh16	r16,0x3
    c934:	10 40 02 10 	ld32	r16,r16
    c938:	0d 46 4d 30 	wl16	r9,0x3270
    c93c:	0d 60 01 23 	wh16	r9,0x3
    c940:	10 40 01 29 	ld32	r9,r9
    c944:	00 00 01 10 	add	r8,r16
    c948:	20 70 03 e2 	movepc	rret,8
    c94c:	14 30 cd b1 	br	10 <compare>,#al
    c950:	00 10 00 41 	add	r2,1
    c954:	0d 41 ed 14 	wl16	r8,0xf74
    c958:	0d 60 01 03 	wh16	r8,0x3
    c95c:	10 40 01 08 	ld32	r8,r8
    c960:	0d 44 1e 14 	wl16	r16,0x20f4
    c964:	0d 60 02 03 	wh16	r16,0x3
    c968:	10 40 02 10 	ld32	r16,r16
    c96c:	0d 46 4d 34 	wl16	r9,0x3274
    c970:	0d 60 01 23 	wh16	r9,0x3
    c974:	10 40 01 29 	ld32	r9,r9
    c978:	00 00 01 10 	add	r8,r16
    c97c:	20 70 03 e2 	movepc	rret,8
    c980:	14 30 cd a4 	br	10 <compare>,#al
    c984:	00 10 00 41 	add	r2,1
    c988:	0d 41 ed 18 	wl16	r8,0xf78
    c98c:	0d 60 01 03 	wh16	r8,0x3
    c990:	10 40 01 08 	ld32	r8,r8
    c994:	0d 44 1e 18 	wl16	r16,0x20f8
    c998:	0d 60 02 03 	wh16	r16,0x3
    c99c:	10 40 02 10 	ld32	r16,r16
    c9a0:	0d 46 4d 38 	wl16	r9,0x3278
    c9a4:	0d 60 01 23 	wh16	r9,0x3
    c9a8:	10 40 01 29 	ld32	r9,r9
    c9ac:	00 00 01 10 	add	r8,r16
    c9b0:	20 70 03 e2 	movepc	rret,8
    c9b4:	14 30 cd 97 	br	10 <compare>,#al
    c9b8:	00 10 00 41 	add	r2,1
    c9bc:	0d 41 ed 1c 	wl16	r8,0xf7c
    c9c0:	0d 60 01 03 	wh16	r8,0x3
    c9c4:	10 40 01 08 	ld32	r8,r8
    c9c8:	0d 44 1e 1c 	wl16	r16,0x20fc
    c9cc:	0d 60 02 03 	wh16	r16,0x3
    c9d0:	10 40 02 10 	ld32	r16,r16
    c9d4:	0d 46 4d 3c 	wl16	r9,0x327c
    c9d8:	0d 60 01 23 	wh16	r9,0x3
    c9dc:	10 40 01 29 	ld32	r9,r9
    c9e0:	00 00 01 10 	add	r8,r16
    c9e4:	20 70 03 e2 	movepc	rret,8
    c9e8:	14 30 cd 8a 	br	10 <compare>,#al
    c9ec:	00 10 00 41 	add	r2,1
    c9f0:	0d 41 f1 00 	wl16	r8,0xf80
    c9f4:	0d 60 01 03 	wh16	r8,0x3
    c9f8:	10 40 01 08 	ld32	r8,r8
    c9fc:	0d 44 22 00 	wl16	r16,0x2100
    ca00:	0d 60 02 03 	wh16	r16,0x3
    ca04:	10 40 02 10 	ld32	r16,r16
    ca08:	0d 46 51 20 	wl16	r9,0x3280
    ca0c:	0d 60 01 23 	wh16	r9,0x3
    ca10:	10 40 01 29 	ld32	r9,r9
    ca14:	00 00 01 10 	add	r8,r16
    ca18:	20 70 03 e2 	movepc	rret,8
    ca1c:	14 30 cd 7d 	br	10 <compare>,#al
    ca20:	00 10 00 41 	add	r2,1
    ca24:	0d 41 f1 04 	wl16	r8,0xf84
    ca28:	0d 60 01 03 	wh16	r8,0x3
    ca2c:	10 40 01 08 	ld32	r8,r8
    ca30:	0d 44 22 04 	wl16	r16,0x2104
    ca34:	0d 60 02 03 	wh16	r16,0x3
    ca38:	10 40 02 10 	ld32	r16,r16
    ca3c:	0d 46 51 24 	wl16	r9,0x3284
    ca40:	0d 60 01 23 	wh16	r9,0x3
    ca44:	10 40 01 29 	ld32	r9,r9
    ca48:	00 00 01 10 	add	r8,r16
    ca4c:	20 70 03 e2 	movepc	rret,8
    ca50:	14 30 cd 70 	br	10 <compare>,#al
    ca54:	00 10 00 41 	add	r2,1
    ca58:	0d 41 f1 08 	wl16	r8,0xf88
    ca5c:	0d 60 01 03 	wh16	r8,0x3
    ca60:	10 40 01 08 	ld32	r8,r8
    ca64:	0d 44 22 08 	wl16	r16,0x2108
    ca68:	0d 60 02 03 	wh16	r16,0x3
    ca6c:	10 40 02 10 	ld32	r16,r16
    ca70:	0d 46 51 28 	wl16	r9,0x3288
    ca74:	0d 60 01 23 	wh16	r9,0x3
    ca78:	10 40 01 29 	ld32	r9,r9
    ca7c:	00 00 01 10 	add	r8,r16
    ca80:	20 70 03 e2 	movepc	rret,8
    ca84:	14 30 cd 63 	br	10 <compare>,#al
    ca88:	00 10 00 41 	add	r2,1
    ca8c:	0d 41 f1 0c 	wl16	r8,0xf8c
    ca90:	0d 60 01 03 	wh16	r8,0x3
    ca94:	10 40 01 08 	ld32	r8,r8
    ca98:	0d 44 22 0c 	wl16	r16,0x210c
    ca9c:	0d 60 02 03 	wh16	r16,0x3
    caa0:	10 40 02 10 	ld32	r16,r16
    caa4:	0d 46 51 2c 	wl16	r9,0x328c
    caa8:	0d 60 01 23 	wh16	r9,0x3
    caac:	10 40 01 29 	ld32	r9,r9
    cab0:	00 00 01 10 	add	r8,r16
    cab4:	20 70 03 e2 	movepc	rret,8
    cab8:	14 30 cd 56 	br	10 <compare>,#al
    cabc:	00 10 00 41 	add	r2,1
    cac0:	0d 41 f1 10 	wl16	r8,0xf90
    cac4:	0d 60 01 03 	wh16	r8,0x3
    cac8:	10 40 01 08 	ld32	r8,r8
    cacc:	0d 44 22 10 	wl16	r16,0x2110
    cad0:	0d 60 02 03 	wh16	r16,0x3
    cad4:	10 40 02 10 	ld32	r16,r16
    cad8:	0d 46 51 30 	wl16	r9,0x3290
    cadc:	0d 60 01 23 	wh16	r9,0x3
    cae0:	10 40 01 29 	ld32	r9,r9
    cae4:	00 00 01 10 	add	r8,r16
    cae8:	20 70 03 e2 	movepc	rret,8
    caec:	14 30 cd 49 	br	10 <compare>,#al
    caf0:	00 10 00 41 	add	r2,1
    caf4:	0d 41 f1 14 	wl16	r8,0xf94
    caf8:	0d 60 01 03 	wh16	r8,0x3
    cafc:	10 40 01 08 	ld32	r8,r8
    cb00:	0d 44 22 14 	wl16	r16,0x2114
    cb04:	0d 60 02 03 	wh16	r16,0x3
    cb08:	10 40 02 10 	ld32	r16,r16
    cb0c:	0d 46 51 34 	wl16	r9,0x3294
    cb10:	0d 60 01 23 	wh16	r9,0x3
    cb14:	10 40 01 29 	ld32	r9,r9
    cb18:	00 00 01 10 	add	r8,r16
    cb1c:	20 70 03 e2 	movepc	rret,8
    cb20:	14 30 cd 3c 	br	10 <compare>,#al
    cb24:	00 10 00 41 	add	r2,1
    cb28:	0d 41 f1 18 	wl16	r8,0xf98
    cb2c:	0d 60 01 03 	wh16	r8,0x3
    cb30:	10 40 01 08 	ld32	r8,r8
    cb34:	0d 44 22 18 	wl16	r16,0x2118
    cb38:	0d 60 02 03 	wh16	r16,0x3
    cb3c:	10 40 02 10 	ld32	r16,r16
    cb40:	0d 46 51 38 	wl16	r9,0x3298
    cb44:	0d 60 01 23 	wh16	r9,0x3
    cb48:	10 40 01 29 	ld32	r9,r9
    cb4c:	00 00 01 10 	add	r8,r16
    cb50:	20 70 03 e2 	movepc	rret,8
    cb54:	14 30 cd 2f 	br	10 <compare>,#al
    cb58:	00 10 00 41 	add	r2,1
    cb5c:	0d 41 f1 1c 	wl16	r8,0xf9c
    cb60:	0d 60 01 03 	wh16	r8,0x3
    cb64:	10 40 01 08 	ld32	r8,r8
    cb68:	0d 44 22 1c 	wl16	r16,0x211c
    cb6c:	0d 60 02 03 	wh16	r16,0x3
    cb70:	10 40 02 10 	ld32	r16,r16
    cb74:	0d 46 51 3c 	wl16	r9,0x329c
    cb78:	0d 60 01 23 	wh16	r9,0x3
    cb7c:	10 40 01 29 	ld32	r9,r9
    cb80:	00 00 01 10 	add	r8,r16
    cb84:	20 70 03 e2 	movepc	rret,8
    cb88:	14 30 cd 22 	br	10 <compare>,#al
    cb8c:	00 10 00 41 	add	r2,1
    cb90:	0d 41 f5 00 	wl16	r8,0xfa0
    cb94:	0d 60 01 03 	wh16	r8,0x3
    cb98:	10 40 01 08 	ld32	r8,r8
    cb9c:	0d 44 26 00 	wl16	r16,0x2120
    cba0:	0d 60 02 03 	wh16	r16,0x3
    cba4:	10 40 02 10 	ld32	r16,r16
    cba8:	0d 46 55 20 	wl16	r9,0x32a0
    cbac:	0d 60 01 23 	wh16	r9,0x3
    cbb0:	10 40 01 29 	ld32	r9,r9
    cbb4:	00 00 01 10 	add	r8,r16
    cbb8:	20 70 03 e2 	movepc	rret,8
    cbbc:	14 30 cd 15 	br	10 <compare>,#al
    cbc0:	00 10 00 41 	add	r2,1
    cbc4:	0d 41 f5 04 	wl16	r8,0xfa4
    cbc8:	0d 60 01 03 	wh16	r8,0x3
    cbcc:	10 40 01 08 	ld32	r8,r8
    cbd0:	0d 44 26 04 	wl16	r16,0x2124
    cbd4:	0d 60 02 03 	wh16	r16,0x3
    cbd8:	10 40 02 10 	ld32	r16,r16
    cbdc:	0d 46 55 24 	wl16	r9,0x32a4
    cbe0:	0d 60 01 23 	wh16	r9,0x3
    cbe4:	10 40 01 29 	ld32	r9,r9
    cbe8:	00 00 01 10 	add	r8,r16
    cbec:	20 70 03 e2 	movepc	rret,8
    cbf0:	14 30 cd 08 	br	10 <compare>,#al
    cbf4:	00 10 00 41 	add	r2,1
    cbf8:	0d 41 f5 08 	wl16	r8,0xfa8
    cbfc:	0d 60 01 03 	wh16	r8,0x3
    cc00:	10 40 01 08 	ld32	r8,r8
    cc04:	0d 44 26 08 	wl16	r16,0x2128
    cc08:	0d 60 02 03 	wh16	r16,0x3
    cc0c:	10 40 02 10 	ld32	r16,r16
    cc10:	0d 46 55 28 	wl16	r9,0x32a8
    cc14:	0d 60 01 23 	wh16	r9,0x3
    cc18:	10 40 01 29 	ld32	r9,r9
    cc1c:	00 00 01 10 	add	r8,r16
    cc20:	20 70 03 e2 	movepc	rret,8
    cc24:	14 30 cc fb 	br	10 <compare>,#al
    cc28:	00 10 00 41 	add	r2,1
    cc2c:	0d 41 f5 0c 	wl16	r8,0xfac
    cc30:	0d 60 01 03 	wh16	r8,0x3
    cc34:	10 40 01 08 	ld32	r8,r8
    cc38:	0d 44 26 0c 	wl16	r16,0x212c
    cc3c:	0d 60 02 03 	wh16	r16,0x3
    cc40:	10 40 02 10 	ld32	r16,r16
    cc44:	0d 46 55 2c 	wl16	r9,0x32ac
    cc48:	0d 60 01 23 	wh16	r9,0x3
    cc4c:	10 40 01 29 	ld32	r9,r9
    cc50:	00 00 01 10 	add	r8,r16
    cc54:	20 70 03 e2 	movepc	rret,8
    cc58:	14 30 cc ee 	br	10 <compare>,#al
    cc5c:	00 10 00 41 	add	r2,1
    cc60:	0d 41 f5 10 	wl16	r8,0xfb0
    cc64:	0d 60 01 03 	wh16	r8,0x3
    cc68:	10 40 01 08 	ld32	r8,r8
    cc6c:	0d 44 26 10 	wl16	r16,0x2130
    cc70:	0d 60 02 03 	wh16	r16,0x3
    cc74:	10 40 02 10 	ld32	r16,r16
    cc78:	0d 46 55 30 	wl16	r9,0x32b0
    cc7c:	0d 60 01 23 	wh16	r9,0x3
    cc80:	10 40 01 29 	ld32	r9,r9
    cc84:	00 00 01 10 	add	r8,r16
    cc88:	20 70 03 e2 	movepc	rret,8
    cc8c:	14 30 cc e1 	br	10 <compare>,#al
    cc90:	00 10 00 41 	add	r2,1
    cc94:	0d 41 f5 14 	wl16	r8,0xfb4
    cc98:	0d 60 01 03 	wh16	r8,0x3
    cc9c:	10 40 01 08 	ld32	r8,r8
    cca0:	0d 44 26 14 	wl16	r16,0x2134
    cca4:	0d 60 02 03 	wh16	r16,0x3
    cca8:	10 40 02 10 	ld32	r16,r16
    ccac:	0d 46 55 34 	wl16	r9,0x32b4
    ccb0:	0d 60 01 23 	wh16	r9,0x3
    ccb4:	10 40 01 29 	ld32	r9,r9
    ccb8:	00 00 01 10 	add	r8,r16
    ccbc:	20 70 03 e2 	movepc	rret,8
    ccc0:	14 30 cc d4 	br	10 <compare>,#al
    ccc4:	00 10 00 41 	add	r2,1
    ccc8:	0d 41 f5 18 	wl16	r8,0xfb8
    cccc:	0d 60 01 03 	wh16	r8,0x3
    ccd0:	10 40 01 08 	ld32	r8,r8
    ccd4:	0d 44 26 18 	wl16	r16,0x2138
    ccd8:	0d 60 02 03 	wh16	r16,0x3
    ccdc:	10 40 02 10 	ld32	r16,r16
    cce0:	0d 46 55 38 	wl16	r9,0x32b8
    cce4:	0d 60 01 23 	wh16	r9,0x3
    cce8:	10 40 01 29 	ld32	r9,r9
    ccec:	00 00 01 10 	add	r8,r16
    ccf0:	20 70 03 e2 	movepc	rret,8
    ccf4:	14 30 cc c7 	br	10 <compare>,#al
    ccf8:	00 10 00 41 	add	r2,1
    ccfc:	0d 41 f5 1c 	wl16	r8,0xfbc
    cd00:	0d 60 01 03 	wh16	r8,0x3
    cd04:	10 40 01 08 	ld32	r8,r8
    cd08:	0d 44 26 1c 	wl16	r16,0x213c
    cd0c:	0d 60 02 03 	wh16	r16,0x3
    cd10:	10 40 02 10 	ld32	r16,r16
    cd14:	0d 46 55 3c 	wl16	r9,0x32bc
    cd18:	0d 60 01 23 	wh16	r9,0x3
    cd1c:	10 40 01 29 	ld32	r9,r9
    cd20:	00 00 01 10 	add	r8,r16
    cd24:	20 70 03 e2 	movepc	rret,8
    cd28:	14 30 cc ba 	br	10 <compare>,#al
    cd2c:	00 10 00 41 	add	r2,1
    cd30:	0d 41 f9 00 	wl16	r8,0xfc0
    cd34:	0d 60 01 03 	wh16	r8,0x3
    cd38:	10 40 01 08 	ld32	r8,r8
    cd3c:	0d 44 2a 00 	wl16	r16,0x2140
    cd40:	0d 60 02 03 	wh16	r16,0x3
    cd44:	10 40 02 10 	ld32	r16,r16
    cd48:	0d 46 59 20 	wl16	r9,0x32c0
    cd4c:	0d 60 01 23 	wh16	r9,0x3
    cd50:	10 40 01 29 	ld32	r9,r9
    cd54:	00 00 01 10 	add	r8,r16
    cd58:	20 70 03 e2 	movepc	rret,8
    cd5c:	14 30 cc ad 	br	10 <compare>,#al
    cd60:	00 10 00 41 	add	r2,1
    cd64:	0d 41 f9 04 	wl16	r8,0xfc4
    cd68:	0d 60 01 03 	wh16	r8,0x3
    cd6c:	10 40 01 08 	ld32	r8,r8
    cd70:	0d 44 2a 04 	wl16	r16,0x2144
    cd74:	0d 60 02 03 	wh16	r16,0x3
    cd78:	10 40 02 10 	ld32	r16,r16
    cd7c:	0d 46 59 24 	wl16	r9,0x32c4
    cd80:	0d 60 01 23 	wh16	r9,0x3
    cd84:	10 40 01 29 	ld32	r9,r9
    cd88:	00 00 01 10 	add	r8,r16
    cd8c:	20 70 03 e2 	movepc	rret,8
    cd90:	14 30 cc a0 	br	10 <compare>,#al
    cd94:	00 10 00 41 	add	r2,1
    cd98:	0d 41 f9 08 	wl16	r8,0xfc8
    cd9c:	0d 60 01 03 	wh16	r8,0x3
    cda0:	10 40 01 08 	ld32	r8,r8
    cda4:	0d 44 2a 08 	wl16	r16,0x2148
    cda8:	0d 60 02 03 	wh16	r16,0x3
    cdac:	10 40 02 10 	ld32	r16,r16
    cdb0:	0d 46 59 28 	wl16	r9,0x32c8
    cdb4:	0d 60 01 23 	wh16	r9,0x3
    cdb8:	10 40 01 29 	ld32	r9,r9
    cdbc:	00 00 01 10 	add	r8,r16
    cdc0:	20 70 03 e2 	movepc	rret,8
    cdc4:	14 30 cc 93 	br	10 <compare>,#al
    cdc8:	00 10 00 41 	add	r2,1
    cdcc:	0d 41 f9 0c 	wl16	r8,0xfcc
    cdd0:	0d 60 01 03 	wh16	r8,0x3
    cdd4:	10 40 01 08 	ld32	r8,r8
    cdd8:	0d 44 2a 0c 	wl16	r16,0x214c
    cddc:	0d 60 02 03 	wh16	r16,0x3
    cde0:	10 40 02 10 	ld32	r16,r16
    cde4:	0d 46 59 2c 	wl16	r9,0x32cc
    cde8:	0d 60 01 23 	wh16	r9,0x3
    cdec:	10 40 01 29 	ld32	r9,r9
    cdf0:	00 00 01 10 	add	r8,r16
    cdf4:	20 70 03 e2 	movepc	rret,8
    cdf8:	14 30 cc 86 	br	10 <compare>,#al
    cdfc:	00 10 00 41 	add	r2,1
    ce00:	0d 41 f9 10 	wl16	r8,0xfd0
    ce04:	0d 60 01 03 	wh16	r8,0x3
    ce08:	10 40 01 08 	ld32	r8,r8
    ce0c:	0d 44 2a 10 	wl16	r16,0x2150
    ce10:	0d 60 02 03 	wh16	r16,0x3
    ce14:	10 40 02 10 	ld32	r16,r16
    ce18:	0d 46 59 30 	wl16	r9,0x32d0
    ce1c:	0d 60 01 23 	wh16	r9,0x3
    ce20:	10 40 01 29 	ld32	r9,r9
    ce24:	00 00 01 10 	add	r8,r16
    ce28:	20 70 03 e2 	movepc	rret,8
    ce2c:	14 30 cc 79 	br	10 <compare>,#al
    ce30:	00 10 00 41 	add	r2,1
    ce34:	0d 41 f9 14 	wl16	r8,0xfd4
    ce38:	0d 60 01 03 	wh16	r8,0x3
    ce3c:	10 40 01 08 	ld32	r8,r8
    ce40:	0d 44 2a 14 	wl16	r16,0x2154
    ce44:	0d 60 02 03 	wh16	r16,0x3
    ce48:	10 40 02 10 	ld32	r16,r16
    ce4c:	0d 46 59 34 	wl16	r9,0x32d4
    ce50:	0d 60 01 23 	wh16	r9,0x3
    ce54:	10 40 01 29 	ld32	r9,r9
    ce58:	00 00 01 10 	add	r8,r16
    ce5c:	20 70 03 e2 	movepc	rret,8
    ce60:	14 30 cc 6c 	br	10 <compare>,#al
    ce64:	00 10 00 41 	add	r2,1
    ce68:	0d 41 f9 18 	wl16	r8,0xfd8
    ce6c:	0d 60 01 03 	wh16	r8,0x3
    ce70:	10 40 01 08 	ld32	r8,r8
    ce74:	0d 44 2a 18 	wl16	r16,0x2158
    ce78:	0d 60 02 03 	wh16	r16,0x3
    ce7c:	10 40 02 10 	ld32	r16,r16
    ce80:	0d 46 59 38 	wl16	r9,0x32d8
    ce84:	0d 60 01 23 	wh16	r9,0x3
    ce88:	10 40 01 29 	ld32	r9,r9
    ce8c:	00 00 01 10 	add	r8,r16
    ce90:	20 70 03 e2 	movepc	rret,8
    ce94:	14 30 cc 5f 	br	10 <compare>,#al
    ce98:	00 10 00 41 	add	r2,1
    ce9c:	0d 41 f9 1c 	wl16	r8,0xfdc
    cea0:	0d 60 01 03 	wh16	r8,0x3
    cea4:	10 40 01 08 	ld32	r8,r8
    cea8:	0d 44 2a 1c 	wl16	r16,0x215c
    ceac:	0d 60 02 03 	wh16	r16,0x3
    ceb0:	10 40 02 10 	ld32	r16,r16
    ceb4:	0d 46 59 3c 	wl16	r9,0x32dc
    ceb8:	0d 60 01 23 	wh16	r9,0x3
    cebc:	10 40 01 29 	ld32	r9,r9
    cec0:	00 00 01 10 	add	r8,r16
    cec4:	20 70 03 e2 	movepc	rret,8
    cec8:	14 30 cc 52 	br	10 <compare>,#al
    cecc:	00 10 00 41 	add	r2,1
    ced0:	0d 41 fd 00 	wl16	r8,0xfe0
    ced4:	0d 60 01 03 	wh16	r8,0x3
    ced8:	10 40 01 08 	ld32	r8,r8
    cedc:	0d 44 2e 00 	wl16	r16,0x2160
    cee0:	0d 60 02 03 	wh16	r16,0x3
    cee4:	10 40 02 10 	ld32	r16,r16
    cee8:	0d 46 5d 20 	wl16	r9,0x32e0
    ceec:	0d 60 01 23 	wh16	r9,0x3
    cef0:	10 40 01 29 	ld32	r9,r9
    cef4:	00 00 01 10 	add	r8,r16
    cef8:	20 70 03 e2 	movepc	rret,8
    cefc:	14 30 cc 45 	br	10 <compare>,#al
    cf00:	00 10 00 41 	add	r2,1
    cf04:	0d 41 fd 04 	wl16	r8,0xfe4
    cf08:	0d 60 01 03 	wh16	r8,0x3
    cf0c:	10 40 01 08 	ld32	r8,r8
    cf10:	0d 44 2e 04 	wl16	r16,0x2164
    cf14:	0d 60 02 03 	wh16	r16,0x3
    cf18:	10 40 02 10 	ld32	r16,r16
    cf1c:	0d 46 5d 24 	wl16	r9,0x32e4
    cf20:	0d 60 01 23 	wh16	r9,0x3
    cf24:	10 40 01 29 	ld32	r9,r9
    cf28:	00 00 01 10 	add	r8,r16
    cf2c:	20 70 03 e2 	movepc	rret,8
    cf30:	14 30 cc 38 	br	10 <compare>,#al
    cf34:	00 10 00 41 	add	r2,1
    cf38:	0d 41 fd 08 	wl16	r8,0xfe8
    cf3c:	0d 60 01 03 	wh16	r8,0x3
    cf40:	10 40 01 08 	ld32	r8,r8
    cf44:	0d 44 2e 08 	wl16	r16,0x2168
    cf48:	0d 60 02 03 	wh16	r16,0x3
    cf4c:	10 40 02 10 	ld32	r16,r16
    cf50:	0d 46 5d 28 	wl16	r9,0x32e8
    cf54:	0d 60 01 23 	wh16	r9,0x3
    cf58:	10 40 01 29 	ld32	r9,r9
    cf5c:	00 00 01 10 	add	r8,r16
    cf60:	20 70 03 e2 	movepc	rret,8
    cf64:	14 30 cc 2b 	br	10 <compare>,#al
    cf68:	00 10 00 41 	add	r2,1
    cf6c:	0d 41 fd 0c 	wl16	r8,0xfec
    cf70:	0d 60 01 03 	wh16	r8,0x3
    cf74:	10 40 01 08 	ld32	r8,r8
    cf78:	0d 44 2e 0c 	wl16	r16,0x216c
    cf7c:	0d 60 02 03 	wh16	r16,0x3
    cf80:	10 40 02 10 	ld32	r16,r16
    cf84:	0d 46 5d 2c 	wl16	r9,0x32ec
    cf88:	0d 60 01 23 	wh16	r9,0x3
    cf8c:	10 40 01 29 	ld32	r9,r9
    cf90:	00 00 01 10 	add	r8,r16
    cf94:	20 70 03 e2 	movepc	rret,8
    cf98:	14 30 cc 1e 	br	10 <compare>,#al
    cf9c:	00 10 00 41 	add	r2,1
    cfa0:	0d 41 fd 10 	wl16	r8,0xff0
    cfa4:	0d 60 01 03 	wh16	r8,0x3
    cfa8:	10 40 01 08 	ld32	r8,r8
    cfac:	0d 44 2e 10 	wl16	r16,0x2170
    cfb0:	0d 60 02 03 	wh16	r16,0x3
    cfb4:	10 40 02 10 	ld32	r16,r16
    cfb8:	0d 46 5d 30 	wl16	r9,0x32f0
    cfbc:	0d 60 01 23 	wh16	r9,0x3
    cfc0:	10 40 01 29 	ld32	r9,r9
    cfc4:	00 00 01 10 	add	r8,r16
    cfc8:	20 70 03 e2 	movepc	rret,8
    cfcc:	14 30 cc 11 	br	10 <compare>,#al
    cfd0:	00 10 00 41 	add	r2,1
    cfd4:	0d 41 fd 14 	wl16	r8,0xff4
    cfd8:	0d 60 01 03 	wh16	r8,0x3
    cfdc:	10 40 01 08 	ld32	r8,r8
    cfe0:	0d 44 2e 14 	wl16	r16,0x2174
    cfe4:	0d 60 02 03 	wh16	r16,0x3
    cfe8:	10 40 02 10 	ld32	r16,r16
    cfec:	0d 46 5d 34 	wl16	r9,0x32f4
    cff0:	0d 60 01 23 	wh16	r9,0x3
    cff4:	10 40 01 29 	ld32	r9,r9
    cff8:	00 00 01 10 	add	r8,r16
    cffc:	20 70 03 e2 	movepc	rret,8
    d000:	14 30 cc 04 	br	10 <compare>,#al
    d004:	00 10 00 41 	add	r2,1
    d008:	0d 41 fd 18 	wl16	r8,0xff8
    d00c:	0d 60 01 03 	wh16	r8,0x3
    d010:	10 40 01 08 	ld32	r8,r8
    d014:	0d 44 2e 18 	wl16	r16,0x2178
    d018:	0d 60 02 03 	wh16	r16,0x3
    d01c:	10 40 02 10 	ld32	r16,r16
    d020:	0d 46 5d 38 	wl16	r9,0x32f8
    d024:	0d 60 01 23 	wh16	r9,0x3
    d028:	10 40 01 29 	ld32	r9,r9
    d02c:	00 00 01 10 	add	r8,r16
    d030:	20 70 03 e2 	movepc	rret,8
    d034:	14 30 cb f7 	br	10 <compare>,#al
    d038:	00 10 00 41 	add	r2,1
    d03c:	0d 41 fd 1c 	wl16	r8,0xffc
    d040:	0d 60 01 03 	wh16	r8,0x3
    d044:	10 40 01 08 	ld32	r8,r8
    d048:	0d 44 2e 1c 	wl16	r16,0x217c
    d04c:	0d 60 02 03 	wh16	r16,0x3
    d050:	10 40 02 10 	ld32	r16,r16
    d054:	0d 46 5d 3c 	wl16	r9,0x32fc
    d058:	0d 60 01 23 	wh16	r9,0x3
    d05c:	10 40 01 29 	ld32	r9,r9
    d060:	00 00 01 10 	add	r8,r16
    d064:	20 70 03 e2 	movepc	rret,8
    d068:	14 30 cb ea 	br	10 <compare>,#al
    d06c:	00 10 00 41 	add	r2,1
    d070:	0d 42 01 00 	wl16	r8,0x1000
    d074:	0d 60 01 03 	wh16	r8,0x3
    d078:	10 40 01 08 	ld32	r8,r8
    d07c:	0d 44 32 00 	wl16	r16,0x2180
    d080:	0d 60 02 03 	wh16	r16,0x3
    d084:	10 40 02 10 	ld32	r16,r16
    d088:	0d 46 61 20 	wl16	r9,0x3300
    d08c:	0d 60 01 23 	wh16	r9,0x3
    d090:	10 40 01 29 	ld32	r9,r9
    d094:	00 00 01 10 	add	r8,r16
    d098:	20 70 03 e2 	movepc	rret,8
    d09c:	14 30 cb dd 	br	10 <compare>,#al
    d0a0:	00 10 00 41 	add	r2,1
    d0a4:	0d 42 01 04 	wl16	r8,0x1004
    d0a8:	0d 60 01 03 	wh16	r8,0x3
    d0ac:	10 40 01 08 	ld32	r8,r8
    d0b0:	0d 44 32 04 	wl16	r16,0x2184
    d0b4:	0d 60 02 03 	wh16	r16,0x3
    d0b8:	10 40 02 10 	ld32	r16,r16
    d0bc:	0d 46 61 24 	wl16	r9,0x3304
    d0c0:	0d 60 01 23 	wh16	r9,0x3
    d0c4:	10 40 01 29 	ld32	r9,r9
    d0c8:	00 00 01 10 	add	r8,r16
    d0cc:	20 70 03 e2 	movepc	rret,8
    d0d0:	14 30 cb d0 	br	10 <compare>,#al
    d0d4:	00 10 00 41 	add	r2,1
    d0d8:	0d 42 01 08 	wl16	r8,0x1008
    d0dc:	0d 60 01 03 	wh16	r8,0x3
    d0e0:	10 40 01 08 	ld32	r8,r8
    d0e4:	0d 44 32 08 	wl16	r16,0x2188
    d0e8:	0d 60 02 03 	wh16	r16,0x3
    d0ec:	10 40 02 10 	ld32	r16,r16
    d0f0:	0d 46 61 28 	wl16	r9,0x3308
    d0f4:	0d 60 01 23 	wh16	r9,0x3
    d0f8:	10 40 01 29 	ld32	r9,r9
    d0fc:	00 00 01 10 	add	r8,r16
    d100:	20 70 03 e2 	movepc	rret,8
    d104:	14 30 cb c3 	br	10 <compare>,#al
    d108:	00 10 00 41 	add	r2,1
    d10c:	0d 42 01 0c 	wl16	r8,0x100c
    d110:	0d 60 01 03 	wh16	r8,0x3
    d114:	10 40 01 08 	ld32	r8,r8
    d118:	0d 44 32 0c 	wl16	r16,0x218c
    d11c:	0d 60 02 03 	wh16	r16,0x3
    d120:	10 40 02 10 	ld32	r16,r16
    d124:	0d 46 61 2c 	wl16	r9,0x330c
    d128:	0d 60 01 23 	wh16	r9,0x3
    d12c:	10 40 01 29 	ld32	r9,r9
    d130:	00 00 01 10 	add	r8,r16
    d134:	20 70 03 e2 	movepc	rret,8
    d138:	14 30 cb b6 	br	10 <compare>,#al
    d13c:	00 10 00 41 	add	r2,1
    d140:	0d 42 01 10 	wl16	r8,0x1010
    d144:	0d 60 01 03 	wh16	r8,0x3
    d148:	10 40 01 08 	ld32	r8,r8
    d14c:	0d 44 32 10 	wl16	r16,0x2190
    d150:	0d 60 02 03 	wh16	r16,0x3
    d154:	10 40 02 10 	ld32	r16,r16
    d158:	0d 46 61 30 	wl16	r9,0x3310
    d15c:	0d 60 01 23 	wh16	r9,0x3
    d160:	10 40 01 29 	ld32	r9,r9
    d164:	00 00 01 10 	add	r8,r16
    d168:	20 70 03 e2 	movepc	rret,8
    d16c:	14 30 cb a9 	br	10 <compare>,#al
    d170:	00 10 00 41 	add	r2,1
    d174:	0d 42 01 14 	wl16	r8,0x1014
    d178:	0d 60 01 03 	wh16	r8,0x3
    d17c:	10 40 01 08 	ld32	r8,r8
    d180:	0d 44 32 14 	wl16	r16,0x2194
    d184:	0d 60 02 03 	wh16	r16,0x3
    d188:	10 40 02 10 	ld32	r16,r16
    d18c:	0d 46 61 34 	wl16	r9,0x3314
    d190:	0d 60 01 23 	wh16	r9,0x3
    d194:	10 40 01 29 	ld32	r9,r9
    d198:	00 00 01 10 	add	r8,r16
    d19c:	20 70 03 e2 	movepc	rret,8
    d1a0:	14 30 cb 9c 	br	10 <compare>,#al
    d1a4:	00 10 00 41 	add	r2,1
    d1a8:	0d 42 01 18 	wl16	r8,0x1018
    d1ac:	0d 60 01 03 	wh16	r8,0x3
    d1b0:	10 40 01 08 	ld32	r8,r8
    d1b4:	0d 44 32 18 	wl16	r16,0x2198
    d1b8:	0d 60 02 03 	wh16	r16,0x3
    d1bc:	10 40 02 10 	ld32	r16,r16
    d1c0:	0d 46 61 38 	wl16	r9,0x3318
    d1c4:	0d 60 01 23 	wh16	r9,0x3
    d1c8:	10 40 01 29 	ld32	r9,r9
    d1cc:	00 00 01 10 	add	r8,r16
    d1d0:	20 70 03 e2 	movepc	rret,8
    d1d4:	14 30 cb 8f 	br	10 <compare>,#al
    d1d8:	00 10 00 41 	add	r2,1
    d1dc:	0d 42 01 1c 	wl16	r8,0x101c
    d1e0:	0d 60 01 03 	wh16	r8,0x3
    d1e4:	10 40 01 08 	ld32	r8,r8
    d1e8:	0d 44 32 1c 	wl16	r16,0x219c
    d1ec:	0d 60 02 03 	wh16	r16,0x3
    d1f0:	10 40 02 10 	ld32	r16,r16
    d1f4:	0d 46 61 3c 	wl16	r9,0x331c
    d1f8:	0d 60 01 23 	wh16	r9,0x3
    d1fc:	10 40 01 29 	ld32	r9,r9
    d200:	00 00 01 10 	add	r8,r16
    d204:	20 70 03 e2 	movepc	rret,8
    d208:	14 30 cb 82 	br	10 <compare>,#al
    d20c:	00 10 00 41 	add	r2,1
    d210:	0d 42 05 00 	wl16	r8,0x1020
    d214:	0d 60 01 03 	wh16	r8,0x3
    d218:	10 40 01 08 	ld32	r8,r8
    d21c:	0d 44 36 00 	wl16	r16,0x21a0
    d220:	0d 60 02 03 	wh16	r16,0x3
    d224:	10 40 02 10 	ld32	r16,r16
    d228:	0d 46 65 20 	wl16	r9,0x3320
    d22c:	0d 60 01 23 	wh16	r9,0x3
    d230:	10 40 01 29 	ld32	r9,r9
    d234:	00 00 01 10 	add	r8,r16
    d238:	20 70 03 e2 	movepc	rret,8
    d23c:	14 30 cb 75 	br	10 <compare>,#al
    d240:	00 10 00 41 	add	r2,1
    d244:	0d 42 05 04 	wl16	r8,0x1024
    d248:	0d 60 01 03 	wh16	r8,0x3
    d24c:	10 40 01 08 	ld32	r8,r8
    d250:	0d 44 36 04 	wl16	r16,0x21a4
    d254:	0d 60 02 03 	wh16	r16,0x3
    d258:	10 40 02 10 	ld32	r16,r16
    d25c:	0d 46 65 24 	wl16	r9,0x3324
    d260:	0d 60 01 23 	wh16	r9,0x3
    d264:	10 40 01 29 	ld32	r9,r9
    d268:	00 00 01 10 	add	r8,r16
    d26c:	20 70 03 e2 	movepc	rret,8
    d270:	14 30 cb 68 	br	10 <compare>,#al
    d274:	00 10 00 41 	add	r2,1
    d278:	0d 42 05 08 	wl16	r8,0x1028
    d27c:	0d 60 01 03 	wh16	r8,0x3
    d280:	10 40 01 08 	ld32	r8,r8
    d284:	0d 44 36 08 	wl16	r16,0x21a8
    d288:	0d 60 02 03 	wh16	r16,0x3
    d28c:	10 40 02 10 	ld32	r16,r16
    d290:	0d 46 65 28 	wl16	r9,0x3328
    d294:	0d 60 01 23 	wh16	r9,0x3
    d298:	10 40 01 29 	ld32	r9,r9
    d29c:	00 00 01 10 	add	r8,r16
    d2a0:	20 70 03 e2 	movepc	rret,8
    d2a4:	14 30 cb 5b 	br	10 <compare>,#al
    d2a8:	00 10 00 41 	add	r2,1
    d2ac:	0d 42 05 0c 	wl16	r8,0x102c
    d2b0:	0d 60 01 03 	wh16	r8,0x3
    d2b4:	10 40 01 08 	ld32	r8,r8
    d2b8:	0d 44 36 0c 	wl16	r16,0x21ac
    d2bc:	0d 60 02 03 	wh16	r16,0x3
    d2c0:	10 40 02 10 	ld32	r16,r16
    d2c4:	0d 46 65 2c 	wl16	r9,0x332c
    d2c8:	0d 60 01 23 	wh16	r9,0x3
    d2cc:	10 40 01 29 	ld32	r9,r9
    d2d0:	00 00 01 10 	add	r8,r16
    d2d4:	20 70 03 e2 	movepc	rret,8
    d2d8:	14 30 cb 4e 	br	10 <compare>,#al
    d2dc:	00 10 00 41 	add	r2,1
    d2e0:	0d 42 05 10 	wl16	r8,0x1030
    d2e4:	0d 60 01 03 	wh16	r8,0x3
    d2e8:	10 40 01 08 	ld32	r8,r8
    d2ec:	0d 44 36 10 	wl16	r16,0x21b0
    d2f0:	0d 60 02 03 	wh16	r16,0x3
    d2f4:	10 40 02 10 	ld32	r16,r16
    d2f8:	0d 46 65 30 	wl16	r9,0x3330
    d2fc:	0d 60 01 23 	wh16	r9,0x3
    d300:	10 40 01 29 	ld32	r9,r9
    d304:	00 00 01 10 	add	r8,r16
    d308:	20 70 03 e2 	movepc	rret,8
    d30c:	14 30 cb 41 	br	10 <compare>,#al
    d310:	00 10 00 41 	add	r2,1
    d314:	0d 42 05 14 	wl16	r8,0x1034
    d318:	0d 60 01 03 	wh16	r8,0x3
    d31c:	10 40 01 08 	ld32	r8,r8
    d320:	0d 44 36 14 	wl16	r16,0x21b4
    d324:	0d 60 02 03 	wh16	r16,0x3
    d328:	10 40 02 10 	ld32	r16,r16
    d32c:	0d 46 65 34 	wl16	r9,0x3334
    d330:	0d 60 01 23 	wh16	r9,0x3
    d334:	10 40 01 29 	ld32	r9,r9
    d338:	00 00 01 10 	add	r8,r16
    d33c:	20 70 03 e2 	movepc	rret,8
    d340:	14 30 cb 34 	br	10 <compare>,#al
    d344:	00 10 00 41 	add	r2,1
    d348:	0d 42 05 18 	wl16	r8,0x1038
    d34c:	0d 60 01 03 	wh16	r8,0x3
    d350:	10 40 01 08 	ld32	r8,r8
    d354:	0d 44 36 18 	wl16	r16,0x21b8
    d358:	0d 60 02 03 	wh16	r16,0x3
    d35c:	10 40 02 10 	ld32	r16,r16
    d360:	0d 46 65 38 	wl16	r9,0x3338
    d364:	0d 60 01 23 	wh16	r9,0x3
    d368:	10 40 01 29 	ld32	r9,r9
    d36c:	00 00 01 10 	add	r8,r16
    d370:	20 70 03 e2 	movepc	rret,8
    d374:	14 30 cb 27 	br	10 <compare>,#al
    d378:	00 10 00 41 	add	r2,1
    d37c:	0d 42 05 1c 	wl16	r8,0x103c
    d380:	0d 60 01 03 	wh16	r8,0x3
    d384:	10 40 01 08 	ld32	r8,r8
    d388:	0d 44 36 1c 	wl16	r16,0x21bc
    d38c:	0d 60 02 03 	wh16	r16,0x3
    d390:	10 40 02 10 	ld32	r16,r16
    d394:	0d 46 65 3c 	wl16	r9,0x333c
    d398:	0d 60 01 23 	wh16	r9,0x3
    d39c:	10 40 01 29 	ld32	r9,r9
    d3a0:	00 00 01 10 	add	r8,r16
    d3a4:	20 70 03 e2 	movepc	rret,8
    d3a8:	14 30 cb 1a 	br	10 <compare>,#al
    d3ac:	00 10 00 41 	add	r2,1
    d3b0:	0d 42 09 00 	wl16	r8,0x1040
    d3b4:	0d 60 01 03 	wh16	r8,0x3
    d3b8:	10 40 01 08 	ld32	r8,r8
    d3bc:	0d 44 3a 00 	wl16	r16,0x21c0
    d3c0:	0d 60 02 03 	wh16	r16,0x3
    d3c4:	10 40 02 10 	ld32	r16,r16
    d3c8:	0d 46 69 20 	wl16	r9,0x3340
    d3cc:	0d 60 01 23 	wh16	r9,0x3
    d3d0:	10 40 01 29 	ld32	r9,r9
    d3d4:	00 00 01 10 	add	r8,r16
    d3d8:	20 70 03 e2 	movepc	rret,8
    d3dc:	14 30 cb 0d 	br	10 <compare>,#al
    d3e0:	00 10 00 41 	add	r2,1
    d3e4:	0d 42 09 04 	wl16	r8,0x1044
    d3e8:	0d 60 01 03 	wh16	r8,0x3
    d3ec:	10 40 01 08 	ld32	r8,r8
    d3f0:	0d 44 3a 04 	wl16	r16,0x21c4
    d3f4:	0d 60 02 03 	wh16	r16,0x3
    d3f8:	10 40 02 10 	ld32	r16,r16
    d3fc:	0d 46 69 24 	wl16	r9,0x3344
    d400:	0d 60 01 23 	wh16	r9,0x3
    d404:	10 40 01 29 	ld32	r9,r9
    d408:	00 00 01 10 	add	r8,r16
    d40c:	20 70 03 e2 	movepc	rret,8
    d410:	14 30 cb 00 	br	10 <compare>,#al
    d414:	00 10 00 41 	add	r2,1
    d418:	0d 42 09 08 	wl16	r8,0x1048
    d41c:	0d 60 01 03 	wh16	r8,0x3
    d420:	10 40 01 08 	ld32	r8,r8
    d424:	0d 44 3a 08 	wl16	r16,0x21c8
    d428:	0d 60 02 03 	wh16	r16,0x3
    d42c:	10 40 02 10 	ld32	r16,r16
    d430:	0d 46 69 28 	wl16	r9,0x3348
    d434:	0d 60 01 23 	wh16	r9,0x3
    d438:	10 40 01 29 	ld32	r9,r9
    d43c:	00 00 01 10 	add	r8,r16
    d440:	20 70 03 e2 	movepc	rret,8
    d444:	14 30 ca f3 	br	10 <compare>,#al
    d448:	00 10 00 41 	add	r2,1
    d44c:	0d 42 09 0c 	wl16	r8,0x104c
    d450:	0d 60 01 03 	wh16	r8,0x3
    d454:	10 40 01 08 	ld32	r8,r8
    d458:	0d 44 3a 0c 	wl16	r16,0x21cc
    d45c:	0d 60 02 03 	wh16	r16,0x3
    d460:	10 40 02 10 	ld32	r16,r16
    d464:	0d 46 69 2c 	wl16	r9,0x334c
    d468:	0d 60 01 23 	wh16	r9,0x3
    d46c:	10 40 01 29 	ld32	r9,r9
    d470:	00 00 01 10 	add	r8,r16
    d474:	20 70 03 e2 	movepc	rret,8
    d478:	14 30 ca e6 	br	10 <compare>,#al
    d47c:	00 10 00 41 	add	r2,1
    d480:	0d 42 09 10 	wl16	r8,0x1050
    d484:	0d 60 01 03 	wh16	r8,0x3
    d488:	10 40 01 08 	ld32	r8,r8
    d48c:	0d 44 3a 10 	wl16	r16,0x21d0
    d490:	0d 60 02 03 	wh16	r16,0x3
    d494:	10 40 02 10 	ld32	r16,r16
    d498:	0d 46 69 30 	wl16	r9,0x3350
    d49c:	0d 60 01 23 	wh16	r9,0x3
    d4a0:	10 40 01 29 	ld32	r9,r9
    d4a4:	00 00 01 10 	add	r8,r16
    d4a8:	20 70 03 e2 	movepc	rret,8
    d4ac:	14 30 ca d9 	br	10 <compare>,#al
    d4b0:	00 10 00 41 	add	r2,1
    d4b4:	0d 42 09 14 	wl16	r8,0x1054
    d4b8:	0d 60 01 03 	wh16	r8,0x3
    d4bc:	10 40 01 08 	ld32	r8,r8
    d4c0:	0d 44 3a 14 	wl16	r16,0x21d4
    d4c4:	0d 60 02 03 	wh16	r16,0x3
    d4c8:	10 40 02 10 	ld32	r16,r16
    d4cc:	0d 46 69 34 	wl16	r9,0x3354
    d4d0:	0d 60 01 23 	wh16	r9,0x3
    d4d4:	10 40 01 29 	ld32	r9,r9
    d4d8:	00 00 01 10 	add	r8,r16
    d4dc:	20 70 03 e2 	movepc	rret,8
    d4e0:	14 30 ca cc 	br	10 <compare>,#al
    d4e4:	00 10 00 41 	add	r2,1
    d4e8:	0d 42 09 18 	wl16	r8,0x1058
    d4ec:	0d 60 01 03 	wh16	r8,0x3
    d4f0:	10 40 01 08 	ld32	r8,r8
    d4f4:	0d 44 3a 18 	wl16	r16,0x21d8
    d4f8:	0d 60 02 03 	wh16	r16,0x3
    d4fc:	10 40 02 10 	ld32	r16,r16
    d500:	0d 46 69 38 	wl16	r9,0x3358
    d504:	0d 60 01 23 	wh16	r9,0x3
    d508:	10 40 01 29 	ld32	r9,r9
    d50c:	00 00 01 10 	add	r8,r16
    d510:	20 70 03 e2 	movepc	rret,8
    d514:	14 30 ca bf 	br	10 <compare>,#al
    d518:	00 10 00 41 	add	r2,1
    d51c:	0d 42 09 1c 	wl16	r8,0x105c
    d520:	0d 60 01 03 	wh16	r8,0x3
    d524:	10 40 01 08 	ld32	r8,r8
    d528:	0d 44 3a 1c 	wl16	r16,0x21dc
    d52c:	0d 60 02 03 	wh16	r16,0x3
    d530:	10 40 02 10 	ld32	r16,r16
    d534:	0d 46 69 3c 	wl16	r9,0x335c
    d538:	0d 60 01 23 	wh16	r9,0x3
    d53c:	10 40 01 29 	ld32	r9,r9
    d540:	00 00 01 10 	add	r8,r16
    d544:	20 70 03 e2 	movepc	rret,8
    d548:	14 30 ca b2 	br	10 <compare>,#al
    d54c:	00 10 00 41 	add	r2,1
    d550:	0d 42 0d 00 	wl16	r8,0x1060
    d554:	0d 60 01 03 	wh16	r8,0x3
    d558:	10 40 01 08 	ld32	r8,r8
    d55c:	0d 44 3e 00 	wl16	r16,0x21e0
    d560:	0d 60 02 03 	wh16	r16,0x3
    d564:	10 40 02 10 	ld32	r16,r16
    d568:	0d 46 6d 20 	wl16	r9,0x3360
    d56c:	0d 60 01 23 	wh16	r9,0x3
    d570:	10 40 01 29 	ld32	r9,r9
    d574:	00 00 01 10 	add	r8,r16
    d578:	20 70 03 e2 	movepc	rret,8
    d57c:	14 30 ca a5 	br	10 <compare>,#al
    d580:	00 10 00 41 	add	r2,1
    d584:	0d 42 0d 04 	wl16	r8,0x1064
    d588:	0d 60 01 03 	wh16	r8,0x3
    d58c:	10 40 01 08 	ld32	r8,r8
    d590:	0d 44 3e 04 	wl16	r16,0x21e4
    d594:	0d 60 02 03 	wh16	r16,0x3
    d598:	10 40 02 10 	ld32	r16,r16
    d59c:	0d 46 6d 24 	wl16	r9,0x3364
    d5a0:	0d 60 01 23 	wh16	r9,0x3
    d5a4:	10 40 01 29 	ld32	r9,r9
    d5a8:	00 00 01 10 	add	r8,r16
    d5ac:	20 70 03 e2 	movepc	rret,8
    d5b0:	14 30 ca 98 	br	10 <compare>,#al
    d5b4:	00 10 00 41 	add	r2,1
    d5b8:	0d 42 0d 08 	wl16	r8,0x1068
    d5bc:	0d 60 01 03 	wh16	r8,0x3
    d5c0:	10 40 01 08 	ld32	r8,r8
    d5c4:	0d 44 3e 08 	wl16	r16,0x21e8
    d5c8:	0d 60 02 03 	wh16	r16,0x3
    d5cc:	10 40 02 10 	ld32	r16,r16
    d5d0:	0d 46 6d 28 	wl16	r9,0x3368
    d5d4:	0d 60 01 23 	wh16	r9,0x3
    d5d8:	10 40 01 29 	ld32	r9,r9
    d5dc:	00 00 01 10 	add	r8,r16
    d5e0:	20 70 03 e2 	movepc	rret,8
    d5e4:	14 30 ca 8b 	br	10 <compare>,#al
    d5e8:	00 10 00 41 	add	r2,1
    d5ec:	0d 42 0d 0c 	wl16	r8,0x106c
    d5f0:	0d 60 01 03 	wh16	r8,0x3
    d5f4:	10 40 01 08 	ld32	r8,r8
    d5f8:	0d 44 3e 0c 	wl16	r16,0x21ec
    d5fc:	0d 60 02 03 	wh16	r16,0x3
    d600:	10 40 02 10 	ld32	r16,r16
    d604:	0d 46 6d 2c 	wl16	r9,0x336c
    d608:	0d 60 01 23 	wh16	r9,0x3
    d60c:	10 40 01 29 	ld32	r9,r9
    d610:	00 00 01 10 	add	r8,r16
    d614:	20 70 03 e2 	movepc	rret,8
    d618:	14 30 ca 7e 	br	10 <compare>,#al
    d61c:	00 10 00 41 	add	r2,1
    d620:	0d 42 0d 10 	wl16	r8,0x1070
    d624:	0d 60 01 03 	wh16	r8,0x3
    d628:	10 40 01 08 	ld32	r8,r8
    d62c:	0d 44 3e 10 	wl16	r16,0x21f0
    d630:	0d 60 02 03 	wh16	r16,0x3
    d634:	10 40 02 10 	ld32	r16,r16
    d638:	0d 46 6d 30 	wl16	r9,0x3370
    d63c:	0d 60 01 23 	wh16	r9,0x3
    d640:	10 40 01 29 	ld32	r9,r9
    d644:	00 00 01 10 	add	r8,r16
    d648:	20 70 03 e2 	movepc	rret,8
    d64c:	14 30 ca 71 	br	10 <compare>,#al
    d650:	00 10 00 41 	add	r2,1
    d654:	0d 42 0d 14 	wl16	r8,0x1074
    d658:	0d 60 01 03 	wh16	r8,0x3
    d65c:	10 40 01 08 	ld32	r8,r8
    d660:	0d 44 3e 14 	wl16	r16,0x21f4
    d664:	0d 60 02 03 	wh16	r16,0x3
    d668:	10 40 02 10 	ld32	r16,r16
    d66c:	0d 46 6d 34 	wl16	r9,0x3374
    d670:	0d 60 01 23 	wh16	r9,0x3
    d674:	10 40 01 29 	ld32	r9,r9
    d678:	00 00 01 10 	add	r8,r16
    d67c:	20 70 03 e2 	movepc	rret,8
    d680:	14 30 ca 64 	br	10 <compare>,#al
    d684:	00 10 00 41 	add	r2,1
    d688:	0d 42 0d 18 	wl16	r8,0x1078
    d68c:	0d 60 01 03 	wh16	r8,0x3
    d690:	10 40 01 08 	ld32	r8,r8
    d694:	0d 44 3e 18 	wl16	r16,0x21f8
    d698:	0d 60 02 03 	wh16	r16,0x3
    d69c:	10 40 02 10 	ld32	r16,r16
    d6a0:	0d 46 6d 38 	wl16	r9,0x3378
    d6a4:	0d 60 01 23 	wh16	r9,0x3
    d6a8:	10 40 01 29 	ld32	r9,r9
    d6ac:	00 00 01 10 	add	r8,r16
    d6b0:	20 70 03 e2 	movepc	rret,8
    d6b4:	14 30 ca 57 	br	10 <compare>,#al
    d6b8:	00 10 00 41 	add	r2,1
    d6bc:	0d 42 0d 1c 	wl16	r8,0x107c
    d6c0:	0d 60 01 03 	wh16	r8,0x3
    d6c4:	10 40 01 08 	ld32	r8,r8
    d6c8:	0d 44 3e 1c 	wl16	r16,0x21fc
    d6cc:	0d 60 02 03 	wh16	r16,0x3
    d6d0:	10 40 02 10 	ld32	r16,r16
    d6d4:	0d 46 6d 3c 	wl16	r9,0x337c
    d6d8:	0d 60 01 23 	wh16	r9,0x3
    d6dc:	10 40 01 29 	ld32	r9,r9
    d6e0:	00 00 01 10 	add	r8,r16
    d6e4:	20 70 03 e2 	movepc	rret,8
    d6e8:	14 30 ca 4a 	br	10 <compare>,#al
    d6ec:	00 10 00 41 	add	r2,1
    d6f0:	0d 42 11 00 	wl16	r8,0x1080
    d6f4:	0d 60 01 03 	wh16	r8,0x3
    d6f8:	10 40 01 08 	ld32	r8,r8
    d6fc:	0d 44 42 00 	wl16	r16,0x2200
    d700:	0d 60 02 03 	wh16	r16,0x3
    d704:	10 40 02 10 	ld32	r16,r16
    d708:	0d 46 71 20 	wl16	r9,0x3380
    d70c:	0d 60 01 23 	wh16	r9,0x3
    d710:	10 40 01 29 	ld32	r9,r9
    d714:	00 00 01 10 	add	r8,r16
    d718:	20 70 03 e2 	movepc	rret,8
    d71c:	14 30 ca 3d 	br	10 <compare>,#al
    d720:	00 10 00 41 	add	r2,1
    d724:	0d 42 11 04 	wl16	r8,0x1084
    d728:	0d 60 01 03 	wh16	r8,0x3
    d72c:	10 40 01 08 	ld32	r8,r8
    d730:	0d 44 42 04 	wl16	r16,0x2204
    d734:	0d 60 02 03 	wh16	r16,0x3
    d738:	10 40 02 10 	ld32	r16,r16
    d73c:	0d 46 71 24 	wl16	r9,0x3384
    d740:	0d 60 01 23 	wh16	r9,0x3
    d744:	10 40 01 29 	ld32	r9,r9
    d748:	00 00 01 10 	add	r8,r16
    d74c:	20 70 03 e2 	movepc	rret,8
    d750:	14 30 ca 30 	br	10 <compare>,#al
    d754:	00 10 00 41 	add	r2,1
    d758:	0d 42 11 08 	wl16	r8,0x1088
    d75c:	0d 60 01 03 	wh16	r8,0x3
    d760:	10 40 01 08 	ld32	r8,r8
    d764:	0d 44 42 08 	wl16	r16,0x2208
    d768:	0d 60 02 03 	wh16	r16,0x3
    d76c:	10 40 02 10 	ld32	r16,r16
    d770:	0d 46 71 28 	wl16	r9,0x3388
    d774:	0d 60 01 23 	wh16	r9,0x3
    d778:	10 40 01 29 	ld32	r9,r9
    d77c:	00 00 01 10 	add	r8,r16
    d780:	20 70 03 e2 	movepc	rret,8
    d784:	14 30 ca 23 	br	10 <compare>,#al
    d788:	00 10 00 41 	add	r2,1
    d78c:	0d 42 11 0c 	wl16	r8,0x108c
    d790:	0d 60 01 03 	wh16	r8,0x3
    d794:	10 40 01 08 	ld32	r8,r8
    d798:	0d 44 42 0c 	wl16	r16,0x220c
    d79c:	0d 60 02 03 	wh16	r16,0x3
    d7a0:	10 40 02 10 	ld32	r16,r16
    d7a4:	0d 46 71 2c 	wl16	r9,0x338c
    d7a8:	0d 60 01 23 	wh16	r9,0x3
    d7ac:	10 40 01 29 	ld32	r9,r9
    d7b0:	00 00 01 10 	add	r8,r16
    d7b4:	20 70 03 e2 	movepc	rret,8
    d7b8:	14 30 ca 16 	br	10 <compare>,#al
    d7bc:	00 10 00 41 	add	r2,1
    d7c0:	0d 42 11 10 	wl16	r8,0x1090
    d7c4:	0d 60 01 03 	wh16	r8,0x3
    d7c8:	10 40 01 08 	ld32	r8,r8
    d7cc:	0d 44 42 10 	wl16	r16,0x2210
    d7d0:	0d 60 02 03 	wh16	r16,0x3
    d7d4:	10 40 02 10 	ld32	r16,r16
    d7d8:	0d 46 71 30 	wl16	r9,0x3390
    d7dc:	0d 60 01 23 	wh16	r9,0x3
    d7e0:	10 40 01 29 	ld32	r9,r9
    d7e4:	00 00 01 10 	add	r8,r16
    d7e8:	20 70 03 e2 	movepc	rret,8
    d7ec:	14 30 ca 09 	br	10 <compare>,#al
    d7f0:	00 10 00 41 	add	r2,1
    d7f4:	0d 42 11 14 	wl16	r8,0x1094
    d7f8:	0d 60 01 03 	wh16	r8,0x3
    d7fc:	10 40 01 08 	ld32	r8,r8
    d800:	0d 44 42 14 	wl16	r16,0x2214
    d804:	0d 60 02 03 	wh16	r16,0x3
    d808:	10 40 02 10 	ld32	r16,r16
    d80c:	0d 46 71 34 	wl16	r9,0x3394
    d810:	0d 60 01 23 	wh16	r9,0x3
    d814:	10 40 01 29 	ld32	r9,r9
    d818:	00 00 01 10 	add	r8,r16
    d81c:	20 70 03 e2 	movepc	rret,8
    d820:	14 30 c9 fc 	br	10 <compare>,#al
    d824:	00 10 00 41 	add	r2,1
    d828:	0d 42 11 18 	wl16	r8,0x1098
    d82c:	0d 60 01 03 	wh16	r8,0x3
    d830:	10 40 01 08 	ld32	r8,r8
    d834:	0d 44 42 18 	wl16	r16,0x2218
    d838:	0d 60 02 03 	wh16	r16,0x3
    d83c:	10 40 02 10 	ld32	r16,r16
    d840:	0d 46 71 38 	wl16	r9,0x3398
    d844:	0d 60 01 23 	wh16	r9,0x3
    d848:	10 40 01 29 	ld32	r9,r9
    d84c:	00 00 01 10 	add	r8,r16
    d850:	20 70 03 e2 	movepc	rret,8
    d854:	14 30 c9 ef 	br	10 <compare>,#al
    d858:	00 10 00 41 	add	r2,1
    d85c:	0d 42 11 1c 	wl16	r8,0x109c
    d860:	0d 60 01 03 	wh16	r8,0x3
    d864:	10 40 01 08 	ld32	r8,r8
    d868:	0d 44 42 1c 	wl16	r16,0x221c
    d86c:	0d 60 02 03 	wh16	r16,0x3
    d870:	10 40 02 10 	ld32	r16,r16
    d874:	0d 46 71 3c 	wl16	r9,0x339c
    d878:	0d 60 01 23 	wh16	r9,0x3
    d87c:	10 40 01 29 	ld32	r9,r9
    d880:	00 00 01 10 	add	r8,r16
    d884:	20 70 03 e2 	movepc	rret,8
    d888:	14 30 c9 e2 	br	10 <compare>,#al
    d88c:	00 10 00 41 	add	r2,1
    d890:	0d 42 15 00 	wl16	r8,0x10a0
    d894:	0d 60 01 03 	wh16	r8,0x3
    d898:	10 40 01 08 	ld32	r8,r8
    d89c:	0d 44 46 00 	wl16	r16,0x2220
    d8a0:	0d 60 02 03 	wh16	r16,0x3
    d8a4:	10 40 02 10 	ld32	r16,r16
    d8a8:	0d 46 75 20 	wl16	r9,0x33a0
    d8ac:	0d 60 01 23 	wh16	r9,0x3
    d8b0:	10 40 01 29 	ld32	r9,r9
    d8b4:	00 00 01 10 	add	r8,r16
    d8b8:	20 70 03 e2 	movepc	rret,8
    d8bc:	14 30 c9 d5 	br	10 <compare>,#al
    d8c0:	00 10 00 41 	add	r2,1
    d8c4:	0d 42 15 04 	wl16	r8,0x10a4
    d8c8:	0d 60 01 03 	wh16	r8,0x3
    d8cc:	10 40 01 08 	ld32	r8,r8
    d8d0:	0d 44 46 04 	wl16	r16,0x2224
    d8d4:	0d 60 02 03 	wh16	r16,0x3
    d8d8:	10 40 02 10 	ld32	r16,r16
    d8dc:	0d 46 75 24 	wl16	r9,0x33a4
    d8e0:	0d 60 01 23 	wh16	r9,0x3
    d8e4:	10 40 01 29 	ld32	r9,r9
    d8e8:	00 00 01 10 	add	r8,r16
    d8ec:	20 70 03 e2 	movepc	rret,8
    d8f0:	14 30 c9 c8 	br	10 <compare>,#al
    d8f4:	00 10 00 41 	add	r2,1
    d8f8:	0d 42 15 08 	wl16	r8,0x10a8
    d8fc:	0d 60 01 03 	wh16	r8,0x3
    d900:	10 40 01 08 	ld32	r8,r8
    d904:	0d 44 46 08 	wl16	r16,0x2228
    d908:	0d 60 02 03 	wh16	r16,0x3
    d90c:	10 40 02 10 	ld32	r16,r16
    d910:	0d 46 75 28 	wl16	r9,0x33a8
    d914:	0d 60 01 23 	wh16	r9,0x3
    d918:	10 40 01 29 	ld32	r9,r9
    d91c:	00 00 01 10 	add	r8,r16
    d920:	20 70 03 e2 	movepc	rret,8
    d924:	14 30 c9 bb 	br	10 <compare>,#al
    d928:	00 10 00 41 	add	r2,1
    d92c:	0d 42 15 0c 	wl16	r8,0x10ac
    d930:	0d 60 01 03 	wh16	r8,0x3
    d934:	10 40 01 08 	ld32	r8,r8
    d938:	0d 44 46 0c 	wl16	r16,0x222c
    d93c:	0d 60 02 03 	wh16	r16,0x3
    d940:	10 40 02 10 	ld32	r16,r16
    d944:	0d 46 75 2c 	wl16	r9,0x33ac
    d948:	0d 60 01 23 	wh16	r9,0x3
    d94c:	10 40 01 29 	ld32	r9,r9
    d950:	00 00 01 10 	add	r8,r16
    d954:	20 70 03 e2 	movepc	rret,8
    d958:	14 30 c9 ae 	br	10 <compare>,#al
    d95c:	00 10 00 41 	add	r2,1
    d960:	0d 42 15 10 	wl16	r8,0x10b0
    d964:	0d 60 01 03 	wh16	r8,0x3
    d968:	10 40 01 08 	ld32	r8,r8
    d96c:	0d 44 46 10 	wl16	r16,0x2230
    d970:	0d 60 02 03 	wh16	r16,0x3
    d974:	10 40 02 10 	ld32	r16,r16
    d978:	0d 46 75 30 	wl16	r9,0x33b0
    d97c:	0d 60 01 23 	wh16	r9,0x3
    d980:	10 40 01 29 	ld32	r9,r9
    d984:	00 00 01 10 	add	r8,r16
    d988:	20 70 03 e2 	movepc	rret,8
    d98c:	14 30 c9 a1 	br	10 <compare>,#al
    d990:	00 10 00 41 	add	r2,1
    d994:	0d 42 15 14 	wl16	r8,0x10b4
    d998:	0d 60 01 03 	wh16	r8,0x3
    d99c:	10 40 01 08 	ld32	r8,r8
    d9a0:	0d 44 46 14 	wl16	r16,0x2234
    d9a4:	0d 60 02 03 	wh16	r16,0x3
    d9a8:	10 40 02 10 	ld32	r16,r16
    d9ac:	0d 46 75 34 	wl16	r9,0x33b4
    d9b0:	0d 60 01 23 	wh16	r9,0x3
    d9b4:	10 40 01 29 	ld32	r9,r9
    d9b8:	00 00 01 10 	add	r8,r16
    d9bc:	20 70 03 e2 	movepc	rret,8
    d9c0:	14 30 c9 94 	br	10 <compare>,#al
    d9c4:	00 10 00 41 	add	r2,1
    d9c8:	0d 42 15 18 	wl16	r8,0x10b8
    d9cc:	0d 60 01 03 	wh16	r8,0x3
    d9d0:	10 40 01 08 	ld32	r8,r8
    d9d4:	0d 44 46 18 	wl16	r16,0x2238
    d9d8:	0d 60 02 03 	wh16	r16,0x3
    d9dc:	10 40 02 10 	ld32	r16,r16
    d9e0:	0d 46 75 38 	wl16	r9,0x33b8
    d9e4:	0d 60 01 23 	wh16	r9,0x3
    d9e8:	10 40 01 29 	ld32	r9,r9
    d9ec:	00 00 01 10 	add	r8,r16
    d9f0:	20 70 03 e2 	movepc	rret,8
    d9f4:	14 30 c9 87 	br	10 <compare>,#al
    d9f8:	00 10 00 41 	add	r2,1
    d9fc:	0d 42 15 1c 	wl16	r8,0x10bc
    da00:	0d 60 01 03 	wh16	r8,0x3
    da04:	10 40 01 08 	ld32	r8,r8
    da08:	0d 44 46 1c 	wl16	r16,0x223c
    da0c:	0d 60 02 03 	wh16	r16,0x3
    da10:	10 40 02 10 	ld32	r16,r16
    da14:	0d 46 75 3c 	wl16	r9,0x33bc
    da18:	0d 60 01 23 	wh16	r9,0x3
    da1c:	10 40 01 29 	ld32	r9,r9
    da20:	00 00 01 10 	add	r8,r16
    da24:	20 70 03 e2 	movepc	rret,8
    da28:	14 30 c9 7a 	br	10 <compare>,#al
    da2c:	00 10 00 41 	add	r2,1
    da30:	0d 42 19 00 	wl16	r8,0x10c0
    da34:	0d 60 01 03 	wh16	r8,0x3
    da38:	10 40 01 08 	ld32	r8,r8
    da3c:	0d 44 4a 00 	wl16	r16,0x2240
    da40:	0d 60 02 03 	wh16	r16,0x3
    da44:	10 40 02 10 	ld32	r16,r16
    da48:	0d 46 79 20 	wl16	r9,0x33c0
    da4c:	0d 60 01 23 	wh16	r9,0x3
    da50:	10 40 01 29 	ld32	r9,r9
    da54:	00 00 01 10 	add	r8,r16
    da58:	20 70 03 e2 	movepc	rret,8
    da5c:	14 30 c9 6d 	br	10 <compare>,#al
    da60:	00 10 00 41 	add	r2,1
    da64:	0d 42 19 04 	wl16	r8,0x10c4
    da68:	0d 60 01 03 	wh16	r8,0x3
    da6c:	10 40 01 08 	ld32	r8,r8
    da70:	0d 44 4a 04 	wl16	r16,0x2244
    da74:	0d 60 02 03 	wh16	r16,0x3
    da78:	10 40 02 10 	ld32	r16,r16
    da7c:	0d 46 79 24 	wl16	r9,0x33c4
    da80:	0d 60 01 23 	wh16	r9,0x3
    da84:	10 40 01 29 	ld32	r9,r9
    da88:	00 00 01 10 	add	r8,r16
    da8c:	20 70 03 e2 	movepc	rret,8
    da90:	14 30 c9 60 	br	10 <compare>,#al
    da94:	00 10 00 41 	add	r2,1
    da98:	0d 42 19 08 	wl16	r8,0x10c8
    da9c:	0d 60 01 03 	wh16	r8,0x3
    daa0:	10 40 01 08 	ld32	r8,r8
    daa4:	0d 44 4a 08 	wl16	r16,0x2248
    daa8:	0d 60 02 03 	wh16	r16,0x3
    daac:	10 40 02 10 	ld32	r16,r16
    dab0:	0d 46 79 28 	wl16	r9,0x33c8
    dab4:	0d 60 01 23 	wh16	r9,0x3
    dab8:	10 40 01 29 	ld32	r9,r9
    dabc:	00 00 01 10 	add	r8,r16
    dac0:	20 70 03 e2 	movepc	rret,8
    dac4:	14 30 c9 53 	br	10 <compare>,#al
    dac8:	00 10 00 41 	add	r2,1
    dacc:	0d 42 19 0c 	wl16	r8,0x10cc
    dad0:	0d 60 01 03 	wh16	r8,0x3
    dad4:	10 40 01 08 	ld32	r8,r8
    dad8:	0d 44 4a 0c 	wl16	r16,0x224c
    dadc:	0d 60 02 03 	wh16	r16,0x3
    dae0:	10 40 02 10 	ld32	r16,r16
    dae4:	0d 46 79 2c 	wl16	r9,0x33cc
    dae8:	0d 60 01 23 	wh16	r9,0x3
    daec:	10 40 01 29 	ld32	r9,r9
    daf0:	00 00 01 10 	add	r8,r16
    daf4:	20 70 03 e2 	movepc	rret,8
    daf8:	14 30 c9 46 	br	10 <compare>,#al
    dafc:	00 10 00 41 	add	r2,1
    db00:	0d 42 19 10 	wl16	r8,0x10d0
    db04:	0d 60 01 03 	wh16	r8,0x3
    db08:	10 40 01 08 	ld32	r8,r8
    db0c:	0d 44 4a 10 	wl16	r16,0x2250
    db10:	0d 60 02 03 	wh16	r16,0x3
    db14:	10 40 02 10 	ld32	r16,r16
    db18:	0d 46 79 30 	wl16	r9,0x33d0
    db1c:	0d 60 01 23 	wh16	r9,0x3
    db20:	10 40 01 29 	ld32	r9,r9
    db24:	00 00 01 10 	add	r8,r16
    db28:	20 70 03 e2 	movepc	rret,8
    db2c:	14 30 c9 39 	br	10 <compare>,#al
    db30:	00 10 00 41 	add	r2,1
    db34:	0d 42 19 14 	wl16	r8,0x10d4
    db38:	0d 60 01 03 	wh16	r8,0x3
    db3c:	10 40 01 08 	ld32	r8,r8
    db40:	0d 44 4a 14 	wl16	r16,0x2254
    db44:	0d 60 02 03 	wh16	r16,0x3
    db48:	10 40 02 10 	ld32	r16,r16
    db4c:	0d 46 79 34 	wl16	r9,0x33d4
    db50:	0d 60 01 23 	wh16	r9,0x3
    db54:	10 40 01 29 	ld32	r9,r9
    db58:	00 00 01 10 	add	r8,r16
    db5c:	20 70 03 e2 	movepc	rret,8
    db60:	14 30 c9 2c 	br	10 <compare>,#al
    db64:	00 10 00 41 	add	r2,1
    db68:	0d 42 19 18 	wl16	r8,0x10d8
    db6c:	0d 60 01 03 	wh16	r8,0x3
    db70:	10 40 01 08 	ld32	r8,r8
    db74:	0d 44 4a 18 	wl16	r16,0x2258
    db78:	0d 60 02 03 	wh16	r16,0x3
    db7c:	10 40 02 10 	ld32	r16,r16
    db80:	0d 46 79 38 	wl16	r9,0x33d8
    db84:	0d 60 01 23 	wh16	r9,0x3
    db88:	10 40 01 29 	ld32	r9,r9
    db8c:	00 00 01 10 	add	r8,r16
    db90:	20 70 03 e2 	movepc	rret,8
    db94:	14 30 c9 1f 	br	10 <compare>,#al
    db98:	00 10 00 41 	add	r2,1
    db9c:	0d 42 19 1c 	wl16	r8,0x10dc
    dba0:	0d 60 01 03 	wh16	r8,0x3
    dba4:	10 40 01 08 	ld32	r8,r8
    dba8:	0d 44 4a 1c 	wl16	r16,0x225c
    dbac:	0d 60 02 03 	wh16	r16,0x3
    dbb0:	10 40 02 10 	ld32	r16,r16
    dbb4:	0d 46 79 3c 	wl16	r9,0x33dc
    dbb8:	0d 60 01 23 	wh16	r9,0x3
    dbbc:	10 40 01 29 	ld32	r9,r9
    dbc0:	00 00 01 10 	add	r8,r16
    dbc4:	20 70 03 e2 	movepc	rret,8
    dbc8:	14 30 c9 12 	br	10 <compare>,#al
    dbcc:	00 10 00 41 	add	r2,1
    dbd0:	0d 42 1d 00 	wl16	r8,0x10e0
    dbd4:	0d 60 01 03 	wh16	r8,0x3
    dbd8:	10 40 01 08 	ld32	r8,r8
    dbdc:	0d 44 4e 00 	wl16	r16,0x2260
    dbe0:	0d 60 02 03 	wh16	r16,0x3
    dbe4:	10 40 02 10 	ld32	r16,r16
    dbe8:	0d 46 7d 20 	wl16	r9,0x33e0
    dbec:	0d 60 01 23 	wh16	r9,0x3
    dbf0:	10 40 01 29 	ld32	r9,r9
    dbf4:	00 00 01 10 	add	r8,r16
    dbf8:	20 70 03 e2 	movepc	rret,8
    dbfc:	14 30 c9 05 	br	10 <compare>,#al
    dc00:	00 10 00 41 	add	r2,1
    dc04:	0d 42 1d 04 	wl16	r8,0x10e4
    dc08:	0d 60 01 03 	wh16	r8,0x3
    dc0c:	10 40 01 08 	ld32	r8,r8
    dc10:	0d 44 4e 04 	wl16	r16,0x2264
    dc14:	0d 60 02 03 	wh16	r16,0x3
    dc18:	10 40 02 10 	ld32	r16,r16
    dc1c:	0d 46 7d 24 	wl16	r9,0x33e4
    dc20:	0d 60 01 23 	wh16	r9,0x3
    dc24:	10 40 01 29 	ld32	r9,r9
    dc28:	00 00 01 10 	add	r8,r16
    dc2c:	20 70 03 e2 	movepc	rret,8
    dc30:	14 30 c8 f8 	br	10 <compare>,#al
    dc34:	00 10 00 41 	add	r2,1
    dc38:	0d 42 1d 08 	wl16	r8,0x10e8
    dc3c:	0d 60 01 03 	wh16	r8,0x3
    dc40:	10 40 01 08 	ld32	r8,r8
    dc44:	0d 44 4e 08 	wl16	r16,0x2268
    dc48:	0d 60 02 03 	wh16	r16,0x3
    dc4c:	10 40 02 10 	ld32	r16,r16
    dc50:	0d 46 7d 28 	wl16	r9,0x33e8
    dc54:	0d 60 01 23 	wh16	r9,0x3
    dc58:	10 40 01 29 	ld32	r9,r9
    dc5c:	00 00 01 10 	add	r8,r16
    dc60:	20 70 03 e2 	movepc	rret,8
    dc64:	14 30 c8 eb 	br	10 <compare>,#al
    dc68:	00 10 00 41 	add	r2,1
    dc6c:	0d 42 1d 0c 	wl16	r8,0x10ec
    dc70:	0d 60 01 03 	wh16	r8,0x3
    dc74:	10 40 01 08 	ld32	r8,r8
    dc78:	0d 44 4e 0c 	wl16	r16,0x226c
    dc7c:	0d 60 02 03 	wh16	r16,0x3
    dc80:	10 40 02 10 	ld32	r16,r16
    dc84:	0d 46 7d 2c 	wl16	r9,0x33ec
    dc88:	0d 60 01 23 	wh16	r9,0x3
    dc8c:	10 40 01 29 	ld32	r9,r9
    dc90:	00 00 01 10 	add	r8,r16
    dc94:	20 70 03 e2 	movepc	rret,8
    dc98:	14 30 c8 de 	br	10 <compare>,#al
    dc9c:	00 10 00 41 	add	r2,1
    dca0:	0d 42 1d 10 	wl16	r8,0x10f0
    dca4:	0d 60 01 03 	wh16	r8,0x3
    dca8:	10 40 01 08 	ld32	r8,r8
    dcac:	0d 44 4e 10 	wl16	r16,0x2270
    dcb0:	0d 60 02 03 	wh16	r16,0x3
    dcb4:	10 40 02 10 	ld32	r16,r16
    dcb8:	0d 46 7d 30 	wl16	r9,0x33f0
    dcbc:	0d 60 01 23 	wh16	r9,0x3
    dcc0:	10 40 01 29 	ld32	r9,r9
    dcc4:	00 00 01 10 	add	r8,r16
    dcc8:	20 70 03 e2 	movepc	rret,8
    dccc:	14 30 c8 d1 	br	10 <compare>,#al
    dcd0:	00 10 00 41 	add	r2,1
    dcd4:	0d 42 1d 14 	wl16	r8,0x10f4
    dcd8:	0d 60 01 03 	wh16	r8,0x3
    dcdc:	10 40 01 08 	ld32	r8,r8
    dce0:	0d 44 4e 14 	wl16	r16,0x2274
    dce4:	0d 60 02 03 	wh16	r16,0x3
    dce8:	10 40 02 10 	ld32	r16,r16
    dcec:	0d 46 7d 34 	wl16	r9,0x33f4
    dcf0:	0d 60 01 23 	wh16	r9,0x3
    dcf4:	10 40 01 29 	ld32	r9,r9
    dcf8:	00 00 01 10 	add	r8,r16
    dcfc:	20 70 03 e2 	movepc	rret,8
    dd00:	14 30 c8 c4 	br	10 <compare>,#al
    dd04:	00 10 00 41 	add	r2,1
    dd08:	0d 42 1d 18 	wl16	r8,0x10f8
    dd0c:	0d 60 01 03 	wh16	r8,0x3
    dd10:	10 40 01 08 	ld32	r8,r8
    dd14:	0d 44 4e 18 	wl16	r16,0x2278
    dd18:	0d 60 02 03 	wh16	r16,0x3
    dd1c:	10 40 02 10 	ld32	r16,r16
    dd20:	0d 46 7d 38 	wl16	r9,0x33f8
    dd24:	0d 60 01 23 	wh16	r9,0x3
    dd28:	10 40 01 29 	ld32	r9,r9
    dd2c:	00 00 01 10 	add	r8,r16
    dd30:	20 70 03 e2 	movepc	rret,8
    dd34:	14 30 c8 b7 	br	10 <compare>,#al
    dd38:	00 10 00 41 	add	r2,1
    dd3c:	0d 42 1d 1c 	wl16	r8,0x10fc
    dd40:	0d 60 01 03 	wh16	r8,0x3
    dd44:	10 40 01 08 	ld32	r8,r8
    dd48:	0d 44 4e 1c 	wl16	r16,0x227c
    dd4c:	0d 60 02 03 	wh16	r16,0x3
    dd50:	10 40 02 10 	ld32	r16,r16
    dd54:	0d 46 7d 3c 	wl16	r9,0x33fc
    dd58:	0d 60 01 23 	wh16	r9,0x3
    dd5c:	10 40 01 29 	ld32	r9,r9
    dd60:	00 00 01 10 	add	r8,r16
    dd64:	20 70 03 e2 	movepc	rret,8
    dd68:	14 30 c8 aa 	br	10 <compare>,#al
    dd6c:	00 10 00 41 	add	r2,1
    dd70:	0d 42 21 00 	wl16	r8,0x1100
    dd74:	0d 60 01 03 	wh16	r8,0x3
    dd78:	10 40 01 08 	ld32	r8,r8
    dd7c:	0d 44 52 00 	wl16	r16,0x2280
    dd80:	0d 60 02 03 	wh16	r16,0x3
    dd84:	10 40 02 10 	ld32	r16,r16
    dd88:	0d 46 81 20 	wl16	r9,0x3400
    dd8c:	0d 60 01 23 	wh16	r9,0x3
    dd90:	10 40 01 29 	ld32	r9,r9
    dd94:	00 00 01 10 	add	r8,r16
    dd98:	20 70 03 e2 	movepc	rret,8
    dd9c:	14 30 c8 9d 	br	10 <compare>,#al
    dda0:	00 10 00 41 	add	r2,1
    dda4:	0d 42 21 04 	wl16	r8,0x1104
    dda8:	0d 60 01 03 	wh16	r8,0x3
    ddac:	10 40 01 08 	ld32	r8,r8
    ddb0:	0d 44 52 04 	wl16	r16,0x2284
    ddb4:	0d 60 02 03 	wh16	r16,0x3
    ddb8:	10 40 02 10 	ld32	r16,r16
    ddbc:	0d 46 81 24 	wl16	r9,0x3404
    ddc0:	0d 60 01 23 	wh16	r9,0x3
    ddc4:	10 40 01 29 	ld32	r9,r9
    ddc8:	00 00 01 10 	add	r8,r16
    ddcc:	20 70 03 e2 	movepc	rret,8
    ddd0:	14 30 c8 90 	br	10 <compare>,#al
    ddd4:	00 10 00 41 	add	r2,1
    ddd8:	0d 42 21 08 	wl16	r8,0x1108
    dddc:	0d 60 01 03 	wh16	r8,0x3
    dde0:	10 40 01 08 	ld32	r8,r8
    dde4:	0d 44 52 08 	wl16	r16,0x2288
    dde8:	0d 60 02 03 	wh16	r16,0x3
    ddec:	10 40 02 10 	ld32	r16,r16
    ddf0:	0d 46 81 28 	wl16	r9,0x3408
    ddf4:	0d 60 01 23 	wh16	r9,0x3
    ddf8:	10 40 01 29 	ld32	r9,r9
    ddfc:	00 00 01 10 	add	r8,r16
    de00:	20 70 03 e2 	movepc	rret,8
    de04:	14 30 c8 83 	br	10 <compare>,#al
    de08:	00 10 00 41 	add	r2,1
    de0c:	0d 42 21 0c 	wl16	r8,0x110c
    de10:	0d 60 01 03 	wh16	r8,0x3
    de14:	10 40 01 08 	ld32	r8,r8
    de18:	0d 44 52 0c 	wl16	r16,0x228c
    de1c:	0d 60 02 03 	wh16	r16,0x3
    de20:	10 40 02 10 	ld32	r16,r16
    de24:	0d 46 81 2c 	wl16	r9,0x340c
    de28:	0d 60 01 23 	wh16	r9,0x3
    de2c:	10 40 01 29 	ld32	r9,r9
    de30:	00 00 01 10 	add	r8,r16
    de34:	20 70 03 e2 	movepc	rret,8
    de38:	14 30 c8 76 	br	10 <compare>,#al
    de3c:	00 10 00 41 	add	r2,1
    de40:	0d 42 21 10 	wl16	r8,0x1110
    de44:	0d 60 01 03 	wh16	r8,0x3
    de48:	10 40 01 08 	ld32	r8,r8
    de4c:	0d 44 52 10 	wl16	r16,0x2290
    de50:	0d 60 02 03 	wh16	r16,0x3
    de54:	10 40 02 10 	ld32	r16,r16
    de58:	0d 46 81 30 	wl16	r9,0x3410
    de5c:	0d 60 01 23 	wh16	r9,0x3
    de60:	10 40 01 29 	ld32	r9,r9
    de64:	00 00 01 10 	add	r8,r16
    de68:	20 70 03 e2 	movepc	rret,8
    de6c:	14 30 c8 69 	br	10 <compare>,#al
    de70:	00 10 00 41 	add	r2,1
    de74:	0d 42 21 14 	wl16	r8,0x1114
    de78:	0d 60 01 03 	wh16	r8,0x3
    de7c:	10 40 01 08 	ld32	r8,r8
    de80:	0d 44 52 14 	wl16	r16,0x2294
    de84:	0d 60 02 03 	wh16	r16,0x3
    de88:	10 40 02 10 	ld32	r16,r16
    de8c:	0d 46 81 34 	wl16	r9,0x3414
    de90:	0d 60 01 23 	wh16	r9,0x3
    de94:	10 40 01 29 	ld32	r9,r9
    de98:	00 00 01 10 	add	r8,r16
    de9c:	20 70 03 e2 	movepc	rret,8
    dea0:	14 30 c8 5c 	br	10 <compare>,#al
    dea4:	00 10 00 41 	add	r2,1
    dea8:	0d 42 21 18 	wl16	r8,0x1118
    deac:	0d 60 01 03 	wh16	r8,0x3
    deb0:	10 40 01 08 	ld32	r8,r8
    deb4:	0d 44 52 18 	wl16	r16,0x2298
    deb8:	0d 60 02 03 	wh16	r16,0x3
    debc:	10 40 02 10 	ld32	r16,r16
    dec0:	0d 46 81 38 	wl16	r9,0x3418
    dec4:	0d 60 01 23 	wh16	r9,0x3
    dec8:	10 40 01 29 	ld32	r9,r9
    decc:	00 00 01 10 	add	r8,r16
    ded0:	20 70 03 e2 	movepc	rret,8
    ded4:	14 30 c8 4f 	br	10 <compare>,#al
    ded8:	00 10 00 41 	add	r2,1
    dedc:	0d 42 21 1c 	wl16	r8,0x111c
    dee0:	0d 60 01 03 	wh16	r8,0x3
    dee4:	10 40 01 08 	ld32	r8,r8
    dee8:	0d 44 52 1c 	wl16	r16,0x229c
    deec:	0d 60 02 03 	wh16	r16,0x3
    def0:	10 40 02 10 	ld32	r16,r16
    def4:	0d 46 81 3c 	wl16	r9,0x341c
    def8:	0d 60 01 23 	wh16	r9,0x3
    defc:	10 40 01 29 	ld32	r9,r9
    df00:	00 00 01 10 	add	r8,r16
    df04:	20 70 03 e2 	movepc	rret,8
    df08:	14 30 c8 42 	br	10 <compare>,#al
    df0c:	00 10 00 41 	add	r2,1
    df10:	0d 42 25 00 	wl16	r8,0x1120
    df14:	0d 60 01 03 	wh16	r8,0x3
    df18:	10 40 01 08 	ld32	r8,r8
    df1c:	0d 44 56 00 	wl16	r16,0x22a0
    df20:	0d 60 02 03 	wh16	r16,0x3
    df24:	10 40 02 10 	ld32	r16,r16
    df28:	0d 46 85 20 	wl16	r9,0x3420
    df2c:	0d 60 01 23 	wh16	r9,0x3
    df30:	10 40 01 29 	ld32	r9,r9
    df34:	00 00 01 10 	add	r8,r16
    df38:	20 70 03 e2 	movepc	rret,8
    df3c:	14 30 c8 35 	br	10 <compare>,#al
    df40:	00 10 00 41 	add	r2,1
    df44:	0d 42 25 04 	wl16	r8,0x1124
    df48:	0d 60 01 03 	wh16	r8,0x3
    df4c:	10 40 01 08 	ld32	r8,r8
    df50:	0d 44 56 04 	wl16	r16,0x22a4
    df54:	0d 60 02 03 	wh16	r16,0x3
    df58:	10 40 02 10 	ld32	r16,r16
    df5c:	0d 46 85 24 	wl16	r9,0x3424
    df60:	0d 60 01 23 	wh16	r9,0x3
    df64:	10 40 01 29 	ld32	r9,r9
    df68:	00 00 01 10 	add	r8,r16
    df6c:	20 70 03 e2 	movepc	rret,8
    df70:	14 30 c8 28 	br	10 <compare>,#al
    df74:	00 10 00 41 	add	r2,1
    df78:	0d 42 25 08 	wl16	r8,0x1128
    df7c:	0d 60 01 03 	wh16	r8,0x3
    df80:	10 40 01 08 	ld32	r8,r8
    df84:	0d 44 56 08 	wl16	r16,0x22a8
    df88:	0d 60 02 03 	wh16	r16,0x3
    df8c:	10 40 02 10 	ld32	r16,r16
    df90:	0d 46 85 28 	wl16	r9,0x3428
    df94:	0d 60 01 23 	wh16	r9,0x3
    df98:	10 40 01 29 	ld32	r9,r9
    df9c:	00 00 01 10 	add	r8,r16
    dfa0:	20 70 03 e2 	movepc	rret,8
    dfa4:	14 30 c8 1b 	br	10 <compare>,#al
    dfa8:	00 10 00 41 	add	r2,1
    dfac:	0d 42 25 0c 	wl16	r8,0x112c
    dfb0:	0d 60 01 03 	wh16	r8,0x3
    dfb4:	10 40 01 08 	ld32	r8,r8
    dfb8:	0d 44 56 0c 	wl16	r16,0x22ac
    dfbc:	0d 60 02 03 	wh16	r16,0x3
    dfc0:	10 40 02 10 	ld32	r16,r16
    dfc4:	0d 46 85 2c 	wl16	r9,0x342c
    dfc8:	0d 60 01 23 	wh16	r9,0x3
    dfcc:	10 40 01 29 	ld32	r9,r9
    dfd0:	00 00 01 10 	add	r8,r16
    dfd4:	20 70 03 e2 	movepc	rret,8
    dfd8:	14 30 c8 0e 	br	10 <compare>,#al
    dfdc:	00 10 00 41 	add	r2,1
    dfe0:	0d 42 25 10 	wl16	r8,0x1130
    dfe4:	0d 60 01 03 	wh16	r8,0x3
    dfe8:	10 40 01 08 	ld32	r8,r8
    dfec:	0d 44 56 10 	wl16	r16,0x22b0
    dff0:	0d 60 02 03 	wh16	r16,0x3
    dff4:	10 40 02 10 	ld32	r16,r16
    dff8:	0d 46 85 30 	wl16	r9,0x3430
    dffc:	0d 60 01 23 	wh16	r9,0x3
    e000:	10 40 01 29 	ld32	r9,r9
    e004:	00 00 01 10 	add	r8,r16
    e008:	20 70 03 e2 	movepc	rret,8
    e00c:	14 30 c8 01 	br	10 <compare>,#al
    e010:	00 10 00 41 	add	r2,1
    e014:	0d 42 25 14 	wl16	r8,0x1134
    e018:	0d 60 01 03 	wh16	r8,0x3
    e01c:	10 40 01 08 	ld32	r8,r8
    e020:	0d 44 56 14 	wl16	r16,0x22b4
    e024:	0d 60 02 03 	wh16	r16,0x3
    e028:	10 40 02 10 	ld32	r16,r16
    e02c:	0d 46 85 34 	wl16	r9,0x3434
    e030:	0d 60 01 23 	wh16	r9,0x3
    e034:	10 40 01 29 	ld32	r9,r9
    e038:	00 00 01 10 	add	r8,r16
    e03c:	20 70 03 e2 	movepc	rret,8
    e040:	14 30 c7 f4 	br	10 <compare>,#al
    e044:	00 10 00 41 	add	r2,1
    e048:	0d 42 25 18 	wl16	r8,0x1138
    e04c:	0d 60 01 03 	wh16	r8,0x3
    e050:	10 40 01 08 	ld32	r8,r8
    e054:	0d 44 56 18 	wl16	r16,0x22b8
    e058:	0d 60 02 03 	wh16	r16,0x3
    e05c:	10 40 02 10 	ld32	r16,r16
    e060:	0d 46 85 38 	wl16	r9,0x3438
    e064:	0d 60 01 23 	wh16	r9,0x3
    e068:	10 40 01 29 	ld32	r9,r9
    e06c:	00 00 01 10 	add	r8,r16
    e070:	20 70 03 e2 	movepc	rret,8
    e074:	14 30 c7 e7 	br	10 <compare>,#al
    e078:	00 10 00 41 	add	r2,1
    e07c:	0d 42 25 1c 	wl16	r8,0x113c
    e080:	0d 60 01 03 	wh16	r8,0x3
    e084:	10 40 01 08 	ld32	r8,r8
    e088:	0d 44 56 1c 	wl16	r16,0x22bc
    e08c:	0d 60 02 03 	wh16	r16,0x3
    e090:	10 40 02 10 	ld32	r16,r16
    e094:	0d 46 85 3c 	wl16	r9,0x343c
    e098:	0d 60 01 23 	wh16	r9,0x3
    e09c:	10 40 01 29 	ld32	r9,r9
    e0a0:	00 00 01 10 	add	r8,r16
    e0a4:	20 70 03 e2 	movepc	rret,8
    e0a8:	14 30 c7 da 	br	10 <compare>,#al
    e0ac:	00 10 00 41 	add	r2,1
    e0b0:	0d 42 29 00 	wl16	r8,0x1140
    e0b4:	0d 60 01 03 	wh16	r8,0x3
    e0b8:	10 40 01 08 	ld32	r8,r8
    e0bc:	0d 44 5a 00 	wl16	r16,0x22c0
    e0c0:	0d 60 02 03 	wh16	r16,0x3
    e0c4:	10 40 02 10 	ld32	r16,r16
    e0c8:	0d 46 89 20 	wl16	r9,0x3440
    e0cc:	0d 60 01 23 	wh16	r9,0x3
    e0d0:	10 40 01 29 	ld32	r9,r9
    e0d4:	00 00 01 10 	add	r8,r16
    e0d8:	20 70 03 e2 	movepc	rret,8
    e0dc:	14 30 c7 cd 	br	10 <compare>,#al
    e0e0:	00 10 00 41 	add	r2,1
    e0e4:	0d 42 29 04 	wl16	r8,0x1144
    e0e8:	0d 60 01 03 	wh16	r8,0x3
    e0ec:	10 40 01 08 	ld32	r8,r8
    e0f0:	0d 44 5a 04 	wl16	r16,0x22c4
    e0f4:	0d 60 02 03 	wh16	r16,0x3
    e0f8:	10 40 02 10 	ld32	r16,r16
    e0fc:	0d 46 89 24 	wl16	r9,0x3444
    e100:	0d 60 01 23 	wh16	r9,0x3
    e104:	10 40 01 29 	ld32	r9,r9
    e108:	00 00 01 10 	add	r8,r16
    e10c:	20 70 03 e2 	movepc	rret,8
    e110:	14 30 c7 c0 	br	10 <compare>,#al
    e114:	00 10 00 41 	add	r2,1
    e118:	0d 42 29 08 	wl16	r8,0x1148
    e11c:	0d 60 01 03 	wh16	r8,0x3
    e120:	10 40 01 08 	ld32	r8,r8
    e124:	0d 44 5a 08 	wl16	r16,0x22c8
    e128:	0d 60 02 03 	wh16	r16,0x3
    e12c:	10 40 02 10 	ld32	r16,r16
    e130:	0d 46 89 28 	wl16	r9,0x3448
    e134:	0d 60 01 23 	wh16	r9,0x3
    e138:	10 40 01 29 	ld32	r9,r9
    e13c:	00 00 01 10 	add	r8,r16
    e140:	20 70 03 e2 	movepc	rret,8
    e144:	14 30 c7 b3 	br	10 <compare>,#al
    e148:	00 10 00 41 	add	r2,1
    e14c:	0d 42 29 0c 	wl16	r8,0x114c
    e150:	0d 60 01 03 	wh16	r8,0x3
    e154:	10 40 01 08 	ld32	r8,r8
    e158:	0d 44 5a 0c 	wl16	r16,0x22cc
    e15c:	0d 60 02 03 	wh16	r16,0x3
    e160:	10 40 02 10 	ld32	r16,r16
    e164:	0d 46 89 2c 	wl16	r9,0x344c
    e168:	0d 60 01 23 	wh16	r9,0x3
    e16c:	10 40 01 29 	ld32	r9,r9
    e170:	00 00 01 10 	add	r8,r16
    e174:	20 70 03 e2 	movepc	rret,8
    e178:	14 30 c7 a6 	br	10 <compare>,#al
    e17c:	00 10 00 41 	add	r2,1
    e180:	0d 42 29 10 	wl16	r8,0x1150
    e184:	0d 60 01 03 	wh16	r8,0x3
    e188:	10 40 01 08 	ld32	r8,r8
    e18c:	0d 44 5a 10 	wl16	r16,0x22d0
    e190:	0d 60 02 03 	wh16	r16,0x3
    e194:	10 40 02 10 	ld32	r16,r16
    e198:	0d 46 89 30 	wl16	r9,0x3450
    e19c:	0d 60 01 23 	wh16	r9,0x3
    e1a0:	10 40 01 29 	ld32	r9,r9
    e1a4:	00 00 01 10 	add	r8,r16
    e1a8:	20 70 03 e2 	movepc	rret,8
    e1ac:	14 30 c7 99 	br	10 <compare>,#al
    e1b0:	00 10 00 41 	add	r2,1
    e1b4:	0d 42 29 14 	wl16	r8,0x1154
    e1b8:	0d 60 01 03 	wh16	r8,0x3
    e1bc:	10 40 01 08 	ld32	r8,r8
    e1c0:	0d 44 5a 14 	wl16	r16,0x22d4
    e1c4:	0d 60 02 03 	wh16	r16,0x3
    e1c8:	10 40 02 10 	ld32	r16,r16
    e1cc:	0d 46 89 34 	wl16	r9,0x3454
    e1d0:	0d 60 01 23 	wh16	r9,0x3
    e1d4:	10 40 01 29 	ld32	r9,r9
    e1d8:	00 00 01 10 	add	r8,r16
    e1dc:	20 70 03 e2 	movepc	rret,8
    e1e0:	14 30 c7 8c 	br	10 <compare>,#al
    e1e4:	00 10 00 41 	add	r2,1
    e1e8:	0d 42 29 18 	wl16	r8,0x1158
    e1ec:	0d 60 01 03 	wh16	r8,0x3
    e1f0:	10 40 01 08 	ld32	r8,r8
    e1f4:	0d 44 5a 18 	wl16	r16,0x22d8
    e1f8:	0d 60 02 03 	wh16	r16,0x3
    e1fc:	10 40 02 10 	ld32	r16,r16
    e200:	0d 46 89 38 	wl16	r9,0x3458
    e204:	0d 60 01 23 	wh16	r9,0x3
    e208:	10 40 01 29 	ld32	r9,r9
    e20c:	00 00 01 10 	add	r8,r16
    e210:	20 70 03 e2 	movepc	rret,8
    e214:	14 30 c7 7f 	br	10 <compare>,#al
    e218:	00 10 00 41 	add	r2,1
    e21c:	0d 42 29 1c 	wl16	r8,0x115c
    e220:	0d 60 01 03 	wh16	r8,0x3
    e224:	10 40 01 08 	ld32	r8,r8
    e228:	0d 44 5a 1c 	wl16	r16,0x22dc
    e22c:	0d 60 02 03 	wh16	r16,0x3
    e230:	10 40 02 10 	ld32	r16,r16
    e234:	0d 46 89 3c 	wl16	r9,0x345c
    e238:	0d 60 01 23 	wh16	r9,0x3
    e23c:	10 40 01 29 	ld32	r9,r9
    e240:	00 00 01 10 	add	r8,r16
    e244:	20 70 03 e2 	movepc	rret,8
    e248:	14 30 c7 72 	br	10 <compare>,#al
    e24c:	00 10 00 41 	add	r2,1
    e250:	0d 42 2d 00 	wl16	r8,0x1160
    e254:	0d 60 01 03 	wh16	r8,0x3
    e258:	10 40 01 08 	ld32	r8,r8
    e25c:	0d 44 5e 00 	wl16	r16,0x22e0
    e260:	0d 60 02 03 	wh16	r16,0x3
    e264:	10 40 02 10 	ld32	r16,r16
    e268:	0d 46 8d 20 	wl16	r9,0x3460
    e26c:	0d 60 01 23 	wh16	r9,0x3
    e270:	10 40 01 29 	ld32	r9,r9
    e274:	00 00 01 10 	add	r8,r16
    e278:	20 70 03 e2 	movepc	rret,8
    e27c:	14 30 c7 65 	br	10 <compare>,#al
    e280:	00 10 00 41 	add	r2,1
    e284:	0d 42 2d 04 	wl16	r8,0x1164
    e288:	0d 60 01 03 	wh16	r8,0x3
    e28c:	10 40 01 08 	ld32	r8,r8
    e290:	0d 44 5e 04 	wl16	r16,0x22e4
    e294:	0d 60 02 03 	wh16	r16,0x3
    e298:	10 40 02 10 	ld32	r16,r16
    e29c:	0d 46 8d 24 	wl16	r9,0x3464
    e2a0:	0d 60 01 23 	wh16	r9,0x3
    e2a4:	10 40 01 29 	ld32	r9,r9
    e2a8:	00 00 01 10 	add	r8,r16
    e2ac:	20 70 03 e2 	movepc	rret,8
    e2b0:	14 30 c7 58 	br	10 <compare>,#al
    e2b4:	00 10 00 41 	add	r2,1
    e2b8:	0d 42 2d 08 	wl16	r8,0x1168
    e2bc:	0d 60 01 03 	wh16	r8,0x3
    e2c0:	10 40 01 08 	ld32	r8,r8
    e2c4:	0d 44 5e 08 	wl16	r16,0x22e8
    e2c8:	0d 60 02 03 	wh16	r16,0x3
    e2cc:	10 40 02 10 	ld32	r16,r16
    e2d0:	0d 46 8d 28 	wl16	r9,0x3468
    e2d4:	0d 60 01 23 	wh16	r9,0x3
    e2d8:	10 40 01 29 	ld32	r9,r9
    e2dc:	00 00 01 10 	add	r8,r16
    e2e0:	20 70 03 e2 	movepc	rret,8
    e2e4:	14 30 c7 4b 	br	10 <compare>,#al
    e2e8:	00 10 00 41 	add	r2,1
    e2ec:	0d 42 2d 0c 	wl16	r8,0x116c
    e2f0:	0d 60 01 03 	wh16	r8,0x3
    e2f4:	10 40 01 08 	ld32	r8,r8
    e2f8:	0d 44 5e 0c 	wl16	r16,0x22ec
    e2fc:	0d 60 02 03 	wh16	r16,0x3
    e300:	10 40 02 10 	ld32	r16,r16
    e304:	0d 46 8d 2c 	wl16	r9,0x346c
    e308:	0d 60 01 23 	wh16	r9,0x3
    e30c:	10 40 01 29 	ld32	r9,r9
    e310:	00 00 01 10 	add	r8,r16
    e314:	20 70 03 e2 	movepc	rret,8
    e318:	14 30 c7 3e 	br	10 <compare>,#al
    e31c:	00 10 00 41 	add	r2,1
    e320:	0d 42 2d 10 	wl16	r8,0x1170
    e324:	0d 60 01 03 	wh16	r8,0x3
    e328:	10 40 01 08 	ld32	r8,r8
    e32c:	0d 44 5e 10 	wl16	r16,0x22f0
    e330:	0d 60 02 03 	wh16	r16,0x3
    e334:	10 40 02 10 	ld32	r16,r16
    e338:	0d 46 8d 30 	wl16	r9,0x3470
    e33c:	0d 60 01 23 	wh16	r9,0x3
    e340:	10 40 01 29 	ld32	r9,r9
    e344:	00 00 01 10 	add	r8,r16
    e348:	20 70 03 e2 	movepc	rret,8
    e34c:	14 30 c7 31 	br	10 <compare>,#al
    e350:	00 10 00 41 	add	r2,1
    e354:	0d 42 2d 14 	wl16	r8,0x1174
    e358:	0d 60 01 03 	wh16	r8,0x3
    e35c:	10 40 01 08 	ld32	r8,r8
    e360:	0d 44 5e 14 	wl16	r16,0x22f4
    e364:	0d 60 02 03 	wh16	r16,0x3
    e368:	10 40 02 10 	ld32	r16,r16
    e36c:	0d 46 8d 34 	wl16	r9,0x3474
    e370:	0d 60 01 23 	wh16	r9,0x3
    e374:	10 40 01 29 	ld32	r9,r9
    e378:	00 00 01 10 	add	r8,r16
    e37c:	20 70 03 e2 	movepc	rret,8
    e380:	14 30 c7 24 	br	10 <compare>,#al
    e384:	00 10 00 41 	add	r2,1
    e388:	0d 42 2d 18 	wl16	r8,0x1178
    e38c:	0d 60 01 03 	wh16	r8,0x3
    e390:	10 40 01 08 	ld32	r8,r8
    e394:	0d 44 5e 18 	wl16	r16,0x22f8
    e398:	0d 60 02 03 	wh16	r16,0x3
    e39c:	10 40 02 10 	ld32	r16,r16
    e3a0:	0d 46 8d 38 	wl16	r9,0x3478
    e3a4:	0d 60 01 23 	wh16	r9,0x3
    e3a8:	10 40 01 29 	ld32	r9,r9
    e3ac:	00 00 01 10 	add	r8,r16
    e3b0:	20 70 03 e2 	movepc	rret,8
    e3b4:	14 30 c7 17 	br	10 <compare>,#al
    e3b8:	00 10 00 41 	add	r2,1
    e3bc:	0d 42 2d 1c 	wl16	r8,0x117c
    e3c0:	0d 60 01 03 	wh16	r8,0x3
    e3c4:	10 40 01 08 	ld32	r8,r8
    e3c8:	0d 44 5e 1c 	wl16	r16,0x22fc
    e3cc:	0d 60 02 03 	wh16	r16,0x3
    e3d0:	10 40 02 10 	ld32	r16,r16
    e3d4:	0d 46 8d 3c 	wl16	r9,0x347c
    e3d8:	0d 60 01 23 	wh16	r9,0x3
    e3dc:	10 40 01 29 	ld32	r9,r9
    e3e0:	00 00 01 10 	add	r8,r16
    e3e4:	20 70 03 e2 	movepc	rret,8
    e3e8:	14 30 c7 0a 	br	10 <compare>,#al
    e3ec:	00 10 00 41 	add	r2,1
    e3f0:	0d 46 91 00 	wl16	r8,0x3480
    e3f4:	0d 60 01 03 	wh16	r8,0x3
    e3f8:	10 40 01 08 	ld32	r8,r8
    e3fc:	0d 46 dd 28 	wl16	r9,0x36e8
    e400:	0d 60 01 23 	wh16	r9,0x3
    e404:	10 40 01 29 	ld32	r9,r9
    e408:	00 10 01 00 	add	r8,0
    e40c:	20 70 03 e2 	movepc	rret,8
    e410:	14 30 c7 00 	br	10 <compare>,#al
    e414:	00 10 00 41 	add	r2,1
    e418:	0d 46 91 04 	wl16	r8,0x3484
    e41c:	0d 60 01 03 	wh16	r8,0x3
    e420:	10 40 01 08 	ld32	r8,r8
    e424:	0d 46 dd 2c 	wl16	r9,0x36ec
    e428:	0d 60 01 23 	wh16	r9,0x3
    e42c:	10 40 01 29 	ld32	r9,r9
    e430:	00 10 01 01 	add	r8,1
    e434:	20 70 03 e2 	movepc	rret,8
    e438:	14 30 c6 f6 	br	10 <compare>,#al
    e43c:	00 10 00 41 	add	r2,1
    e440:	0d 46 91 08 	wl16	r8,0x3488
    e444:	0d 60 01 03 	wh16	r8,0x3
    e448:	10 40 01 08 	ld32	r8,r8
    e44c:	0d 46 dd 30 	wl16	r9,0x36f0
    e450:	0d 60 01 23 	wh16	r9,0x3
    e454:	10 40 01 29 	ld32	r9,r9
    e458:	00 10 01 02 	add	r8,2
    e45c:	20 70 03 e2 	movepc	rret,8
    e460:	14 30 c6 ec 	br	10 <compare>,#al
    e464:	00 10 00 41 	add	r2,1
    e468:	0d 46 91 0c 	wl16	r8,0x348c
    e46c:	0d 60 01 03 	wh16	r8,0x3
    e470:	10 40 01 08 	ld32	r8,r8
    e474:	0d 46 dd 34 	wl16	r9,0x36f4
    e478:	0d 60 01 23 	wh16	r9,0x3
    e47c:	10 40 01 29 	ld32	r9,r9
    e480:	00 10 01 04 	add	r8,4
    e484:	20 70 03 e2 	movepc	rret,8
    e488:	14 30 c6 e2 	br	10 <compare>,#al
    e48c:	00 10 00 41 	add	r2,1
    e490:	0d 46 91 10 	wl16	r8,0x3490
    e494:	0d 60 01 03 	wh16	r8,0x3
    e498:	10 40 01 08 	ld32	r8,r8
    e49c:	0d 46 dd 38 	wl16	r9,0x36f8
    e4a0:	0d 60 01 23 	wh16	r9,0x3
    e4a4:	10 40 01 29 	ld32	r9,r9
    e4a8:	00 10 01 08 	add	r8,8
    e4ac:	20 70 03 e2 	movepc	rret,8
    e4b0:	14 30 c6 d8 	br	10 <compare>,#al
    e4b4:	00 10 00 41 	add	r2,1
    e4b8:	0d 46 91 14 	wl16	r8,0x3494
    e4bc:	0d 60 01 03 	wh16	r8,0x3
    e4c0:	10 40 01 08 	ld32	r8,r8
    e4c4:	0d 46 dd 3c 	wl16	r9,0x36fc
    e4c8:	0d 60 01 23 	wh16	r9,0x3
    e4cc:	10 40 01 29 	ld32	r9,r9
    e4d0:	00 10 01 10 	add	r8,16
    e4d4:	20 70 03 e2 	movepc	rret,8
    e4d8:	14 30 c6 ce 	br	10 <compare>,#al
    e4dc:	00 10 00 41 	add	r2,1
    e4e0:	0d 46 91 18 	wl16	r8,0x3498
    e4e4:	0d 60 01 03 	wh16	r8,0x3
    e4e8:	10 40 01 08 	ld32	r8,r8
    e4ec:	0d 46 e1 20 	wl16	r9,0x3700
    e4f0:	0d 60 01 23 	wh16	r9,0x3
    e4f4:	10 40 01 29 	ld32	r9,r9
    e4f8:	00 10 05 00 	add	r8,32
    e4fc:	20 70 03 e2 	movepc	rret,8
    e500:	14 30 c6 c4 	br	10 <compare>,#al
    e504:	00 10 00 41 	add	r2,1
    e508:	0d 46 91 1c 	wl16	r8,0x349c
    e50c:	0d 60 01 03 	wh16	r8,0x3
    e510:	10 40 01 08 	ld32	r8,r8
    e514:	0d 46 e1 24 	wl16	r9,0x3704
    e518:	0d 60 01 23 	wh16	r9,0x3
    e51c:	10 40 01 29 	ld32	r9,r9
    e520:	00 10 09 00 	add	r8,64
    e524:	20 70 03 e2 	movepc	rret,8
    e528:	14 30 c6 ba 	br	10 <compare>,#al
    e52c:	00 10 00 41 	add	r2,1
    e530:	0d 46 95 00 	wl16	r8,0x34a0
    e534:	0d 60 01 03 	wh16	r8,0x3
    e538:	10 40 01 08 	ld32	r8,r8
    e53c:	0d 46 e1 28 	wl16	r9,0x3708
    e540:	0d 60 01 23 	wh16	r9,0x3
    e544:	10 40 01 29 	ld32	r9,r9
    e548:	00 10 11 00 	add	r8,128
    e54c:	20 70 03 e2 	movepc	rret,8
    e550:	14 30 c6 b0 	br	10 <compare>,#al
    e554:	00 10 00 41 	add	r2,1
    e558:	0d 46 95 04 	wl16	r8,0x34a4
    e55c:	0d 60 01 03 	wh16	r8,0x3
    e560:	10 40 01 08 	ld32	r8,r8
    e564:	0d 46 e1 2c 	wl16	r9,0x370c
    e568:	0d 60 01 23 	wh16	r9,0x3
    e56c:	10 40 01 29 	ld32	r9,r9
    e570:	00 10 21 00 	add	r8,256
    e574:	20 70 03 e2 	movepc	rret,8
    e578:	14 30 c6 a6 	br	10 <compare>,#al
    e57c:	00 10 00 41 	add	r2,1
    e580:	0d 46 95 08 	wl16	r8,0x34a8
    e584:	0d 60 01 03 	wh16	r8,0x3
    e588:	10 40 01 08 	ld32	r8,r8
    e58c:	0d 46 e1 30 	wl16	r9,0x3710
    e590:	0d 60 01 23 	wh16	r9,0x3
    e594:	10 40 01 29 	ld32	r9,r9
    e598:	00 10 41 00 	add	r8,512
    e59c:	20 70 03 e2 	movepc	rret,8
    e5a0:	14 30 c6 9c 	br	10 <compare>,#al
    e5a4:	00 10 00 41 	add	r2,1
    e5a8:	0d 46 95 0c 	wl16	r8,0x34ac
    e5ac:	0d 60 01 03 	wh16	r8,0x3
    e5b0:	10 40 01 08 	ld32	r8,r8
    e5b4:	0d 46 e1 34 	wl16	r9,0x3714
    e5b8:	0d 60 01 23 	wh16	r9,0x3
    e5bc:	10 40 01 29 	ld32	r9,r9
    e5c0:	00 10 81 00 	add	r8,-1024
    e5c4:	20 70 03 e2 	movepc	rret,8
    e5c8:	14 30 c6 92 	br	10 <compare>,#al
    e5cc:	00 10 00 41 	add	r2,1
    e5d0:	0d 46 95 10 	wl16	r8,0x34b0
    e5d4:	0d 60 01 03 	wh16	r8,0x3
    e5d8:	10 40 01 08 	ld32	r8,r8
    e5dc:	0d 46 e1 38 	wl16	r9,0x3718
    e5e0:	0d 60 01 23 	wh16	r9,0x3
    e5e4:	10 40 01 29 	ld32	r9,r9
    e5e8:	00 10 01 00 	add	r8,0
    e5ec:	20 70 03 e2 	movepc	rret,8
    e5f0:	14 30 c6 88 	br	10 <compare>,#al
    e5f4:	00 10 00 41 	add	r2,1
    e5f8:	0d 46 95 14 	wl16	r8,0x34b4
    e5fc:	0d 60 01 03 	wh16	r8,0x3
    e600:	10 40 01 08 	ld32	r8,r8
    e604:	0d 46 e1 3c 	wl16	r9,0x371c
    e608:	0d 60 01 23 	wh16	r9,0x3
    e60c:	10 40 01 29 	ld32	r9,r9
    e610:	00 10 01 01 	add	r8,1
    e614:	20 70 03 e2 	movepc	rret,8
    e618:	14 30 c6 7e 	br	10 <compare>,#al
    e61c:	00 10 00 41 	add	r2,1
    e620:	0d 46 95 18 	wl16	r8,0x34b8
    e624:	0d 60 01 03 	wh16	r8,0x3
    e628:	10 40 01 08 	ld32	r8,r8
    e62c:	0d 46 e5 20 	wl16	r9,0x3720
    e630:	0d 60 01 23 	wh16	r9,0x3
    e634:	10 40 01 29 	ld32	r9,r9
    e638:	00 10 01 02 	add	r8,2
    e63c:	20 70 03 e2 	movepc	rret,8
    e640:	14 30 c6 74 	br	10 <compare>,#al
    e644:	00 10 00 41 	add	r2,1
    e648:	0d 46 95 1c 	wl16	r8,0x34bc
    e64c:	0d 60 01 03 	wh16	r8,0x3
    e650:	10 40 01 08 	ld32	r8,r8
    e654:	0d 46 e5 24 	wl16	r9,0x3724
    e658:	0d 60 01 23 	wh16	r9,0x3
    e65c:	10 40 01 29 	ld32	r9,r9
    e660:	00 10 01 04 	add	r8,4
    e664:	20 70 03 e2 	movepc	rret,8
    e668:	14 30 c6 6a 	br	10 <compare>,#al
    e66c:	00 10 00 41 	add	r2,1
    e670:	0d 46 99 00 	wl16	r8,0x34c0
    e674:	0d 60 01 03 	wh16	r8,0x3
    e678:	10 40 01 08 	ld32	r8,r8
    e67c:	0d 46 e5 28 	wl16	r9,0x3728
    e680:	0d 60 01 23 	wh16	r9,0x3
    e684:	10 40 01 29 	ld32	r9,r9
    e688:	00 10 01 08 	add	r8,8
    e68c:	20 70 03 e2 	movepc	rret,8
    e690:	14 30 c6 60 	br	10 <compare>,#al
    e694:	00 10 00 41 	add	r2,1
    e698:	0d 46 99 04 	wl16	r8,0x34c4
    e69c:	0d 60 01 03 	wh16	r8,0x3
    e6a0:	10 40 01 08 	ld32	r8,r8
    e6a4:	0d 46 e5 2c 	wl16	r9,0x372c
    e6a8:	0d 60 01 23 	wh16	r9,0x3
    e6ac:	10 40 01 29 	ld32	r9,r9
    e6b0:	00 10 01 10 	add	r8,16
    e6b4:	20 70 03 e2 	movepc	rret,8
    e6b8:	14 30 c6 56 	br	10 <compare>,#al
    e6bc:	00 10 00 41 	add	r2,1
    e6c0:	0d 46 99 08 	wl16	r8,0x34c8
    e6c4:	0d 60 01 03 	wh16	r8,0x3
    e6c8:	10 40 01 08 	ld32	r8,r8
    e6cc:	0d 46 e5 30 	wl16	r9,0x3730
    e6d0:	0d 60 01 23 	wh16	r9,0x3
    e6d4:	10 40 01 29 	ld32	r9,r9
    e6d8:	00 10 05 00 	add	r8,32
    e6dc:	20 70 03 e2 	movepc	rret,8
    e6e0:	14 30 c6 4c 	br	10 <compare>,#al
    e6e4:	00 10 00 41 	add	r2,1
    e6e8:	0d 46 99 0c 	wl16	r8,0x34cc
    e6ec:	0d 60 01 03 	wh16	r8,0x3
    e6f0:	10 40 01 08 	ld32	r8,r8
    e6f4:	0d 46 e5 34 	wl16	r9,0x3734
    e6f8:	0d 60 01 23 	wh16	r9,0x3
    e6fc:	10 40 01 29 	ld32	r9,r9
    e700:	00 10 09 00 	add	r8,64
    e704:	20 70 03 e2 	movepc	rret,8
    e708:	14 30 c6 42 	br	10 <compare>,#al
    e70c:	00 10 00 41 	add	r2,1
    e710:	0d 46 99 10 	wl16	r8,0x34d0
    e714:	0d 60 01 03 	wh16	r8,0x3
    e718:	10 40 01 08 	ld32	r8,r8
    e71c:	0d 46 e5 38 	wl16	r9,0x3738
    e720:	0d 60 01 23 	wh16	r9,0x3
    e724:	10 40 01 29 	ld32	r9,r9
    e728:	00 10 11 00 	add	r8,128
    e72c:	20 70 03 e2 	movepc	rret,8
    e730:	14 30 c6 38 	br	10 <compare>,#al
    e734:	00 10 00 41 	add	r2,1
    e738:	0d 46 99 14 	wl16	r8,0x34d4
    e73c:	0d 60 01 03 	wh16	r8,0x3
    e740:	10 40 01 08 	ld32	r8,r8
    e744:	0d 46 e5 3c 	wl16	r9,0x373c
    e748:	0d 60 01 23 	wh16	r9,0x3
    e74c:	10 40 01 29 	ld32	r9,r9
    e750:	00 10 21 00 	add	r8,256
    e754:	20 70 03 e2 	movepc	rret,8
    e758:	14 30 c6 2e 	br	10 <compare>,#al
    e75c:	00 10 00 41 	add	r2,1
    e760:	0d 46 99 18 	wl16	r8,0x34d8
    e764:	0d 60 01 03 	wh16	r8,0x3
    e768:	10 40 01 08 	ld32	r8,r8
    e76c:	0d 46 e9 20 	wl16	r9,0x3740
    e770:	0d 60 01 23 	wh16	r9,0x3
    e774:	10 40 01 29 	ld32	r9,r9
    e778:	00 10 41 00 	add	r8,512
    e77c:	20 70 03 e2 	movepc	rret,8
    e780:	14 30 c6 24 	br	10 <compare>,#al
    e784:	00 10 00 41 	add	r2,1
    e788:	0d 46 99 1c 	wl16	r8,0x34dc
    e78c:	0d 60 01 03 	wh16	r8,0x3
    e790:	10 40 01 08 	ld32	r8,r8
    e794:	0d 46 e9 24 	wl16	r9,0x3744
    e798:	0d 60 01 23 	wh16	r9,0x3
    e79c:	10 40 01 29 	ld32	r9,r9
    e7a0:	00 10 81 00 	add	r8,-1024
    e7a4:	20 70 03 e2 	movepc	rret,8
    e7a8:	14 30 c6 1a 	br	10 <compare>,#al
    e7ac:	00 10 00 41 	add	r2,1
    e7b0:	0d 46 9d 00 	wl16	r8,0x34e0
    e7b4:	0d 60 01 03 	wh16	r8,0x3
    e7b8:	10 40 01 08 	ld32	r8,r8
    e7bc:	0d 46 e9 28 	wl16	r9,0x3748
    e7c0:	0d 60 01 23 	wh16	r9,0x3
    e7c4:	10 40 01 29 	ld32	r9,r9
    e7c8:	00 10 01 00 	add	r8,0
    e7cc:	20 70 03 e2 	movepc	rret,8
    e7d0:	14 30 c6 10 	br	10 <compare>,#al
    e7d4:	00 10 00 41 	add	r2,1
    e7d8:	0d 46 9d 04 	wl16	r8,0x34e4
    e7dc:	0d 60 01 03 	wh16	r8,0x3
    e7e0:	10 40 01 08 	ld32	r8,r8
    e7e4:	0d 46 e9 2c 	wl16	r9,0x374c
    e7e8:	0d 60 01 23 	wh16	r9,0x3
    e7ec:	10 40 01 29 	ld32	r9,r9
    e7f0:	00 10 01 01 	add	r8,1
    e7f4:	20 70 03 e2 	movepc	rret,8
    e7f8:	14 30 c6 06 	br	10 <compare>,#al
    e7fc:	00 10 00 41 	add	r2,1
    e800:	0d 46 9d 08 	wl16	r8,0x34e8
    e804:	0d 60 01 03 	wh16	r8,0x3
    e808:	10 40 01 08 	ld32	r8,r8
    e80c:	0d 46 e9 30 	wl16	r9,0x3750
    e810:	0d 60 01 23 	wh16	r9,0x3
    e814:	10 40 01 29 	ld32	r9,r9
    e818:	00 10 01 02 	add	r8,2
    e81c:	20 70 03 e2 	movepc	rret,8
    e820:	14 30 c5 fc 	br	10 <compare>,#al
    e824:	00 10 00 41 	add	r2,1
    e828:	0d 46 9d 0c 	wl16	r8,0x34ec
    e82c:	0d 60 01 03 	wh16	r8,0x3
    e830:	10 40 01 08 	ld32	r8,r8
    e834:	0d 46 e9 34 	wl16	r9,0x3754
    e838:	0d 60 01 23 	wh16	r9,0x3
    e83c:	10 40 01 29 	ld32	r9,r9
    e840:	00 10 01 04 	add	r8,4
    e844:	20 70 03 e2 	movepc	rret,8
    e848:	14 30 c5 f2 	br	10 <compare>,#al
    e84c:	00 10 00 41 	add	r2,1
    e850:	0d 46 9d 10 	wl16	r8,0x34f0
    e854:	0d 60 01 03 	wh16	r8,0x3
    e858:	10 40 01 08 	ld32	r8,r8
    e85c:	0d 46 e9 38 	wl16	r9,0x3758
    e860:	0d 60 01 23 	wh16	r9,0x3
    e864:	10 40 01 29 	ld32	r9,r9
    e868:	00 10 01 08 	add	r8,8
    e86c:	20 70 03 e2 	movepc	rret,8
    e870:	14 30 c5 e8 	br	10 <compare>,#al
    e874:	00 10 00 41 	add	r2,1
    e878:	0d 46 9d 14 	wl16	r8,0x34f4
    e87c:	0d 60 01 03 	wh16	r8,0x3
    e880:	10 40 01 08 	ld32	r8,r8
    e884:	0d 46 e9 3c 	wl16	r9,0x375c
    e888:	0d 60 01 23 	wh16	r9,0x3
    e88c:	10 40 01 29 	ld32	r9,r9
    e890:	00 10 01 10 	add	r8,16
    e894:	20 70 03 e2 	movepc	rret,8
    e898:	14 30 c5 de 	br	10 <compare>,#al
    e89c:	00 10 00 41 	add	r2,1
    e8a0:	0d 46 9d 18 	wl16	r8,0x34f8
    e8a4:	0d 60 01 03 	wh16	r8,0x3
    e8a8:	10 40 01 08 	ld32	r8,r8
    e8ac:	0d 46 ed 20 	wl16	r9,0x3760
    e8b0:	0d 60 01 23 	wh16	r9,0x3
    e8b4:	10 40 01 29 	ld32	r9,r9
    e8b8:	00 10 05 00 	add	r8,32
    e8bc:	20 70 03 e2 	movepc	rret,8
    e8c0:	14 30 c5 d4 	br	10 <compare>,#al
    e8c4:	00 10 00 41 	add	r2,1
    e8c8:	0d 46 9d 1c 	wl16	r8,0x34fc
    e8cc:	0d 60 01 03 	wh16	r8,0x3
    e8d0:	10 40 01 08 	ld32	r8,r8
    e8d4:	0d 46 ed 24 	wl16	r9,0x3764
    e8d8:	0d 60 01 23 	wh16	r9,0x3
    e8dc:	10 40 01 29 	ld32	r9,r9
    e8e0:	00 10 09 00 	add	r8,64
    e8e4:	20 70 03 e2 	movepc	rret,8
    e8e8:	14 30 c5 ca 	br	10 <compare>,#al
    e8ec:	00 10 00 41 	add	r2,1
    e8f0:	0d 46 a1 00 	wl16	r8,0x3500
    e8f4:	0d 60 01 03 	wh16	r8,0x3
    e8f8:	10 40 01 08 	ld32	r8,r8
    e8fc:	0d 46 ed 28 	wl16	r9,0x3768
    e900:	0d 60 01 23 	wh16	r9,0x3
    e904:	10 40 01 29 	ld32	r9,r9
    e908:	00 10 11 00 	add	r8,128
    e90c:	20 70 03 e2 	movepc	rret,8
    e910:	14 30 c5 c0 	br	10 <compare>,#al
    e914:	00 10 00 41 	add	r2,1
    e918:	0d 46 a1 04 	wl16	r8,0x3504
    e91c:	0d 60 01 03 	wh16	r8,0x3
    e920:	10 40 01 08 	ld32	r8,r8
    e924:	0d 46 ed 2c 	wl16	r9,0x376c
    e928:	0d 60 01 23 	wh16	r9,0x3
    e92c:	10 40 01 29 	ld32	r9,r9
    e930:	00 10 21 00 	add	r8,256
    e934:	20 70 03 e2 	movepc	rret,8
    e938:	14 30 c5 b6 	br	10 <compare>,#al
    e93c:	00 10 00 41 	add	r2,1
    e940:	0d 46 a1 08 	wl16	r8,0x3508
    e944:	0d 60 01 03 	wh16	r8,0x3
    e948:	10 40 01 08 	ld32	r8,r8
    e94c:	0d 46 ed 30 	wl16	r9,0x3770
    e950:	0d 60 01 23 	wh16	r9,0x3
    e954:	10 40 01 29 	ld32	r9,r9
    e958:	00 10 41 00 	add	r8,512
    e95c:	20 70 03 e2 	movepc	rret,8
    e960:	14 30 c5 ac 	br	10 <compare>,#al
    e964:	00 10 00 41 	add	r2,1
    e968:	0d 46 a1 0c 	wl16	r8,0x350c
    e96c:	0d 60 01 03 	wh16	r8,0x3
    e970:	10 40 01 08 	ld32	r8,r8
    e974:	0d 46 ed 34 	wl16	r9,0x3774
    e978:	0d 60 01 23 	wh16	r9,0x3
    e97c:	10 40 01 29 	ld32	r9,r9
    e980:	00 10 81 00 	add	r8,-1024
    e984:	20 70 03 e2 	movepc	rret,8
    e988:	14 30 c5 a2 	br	10 <compare>,#al
    e98c:	00 10 00 41 	add	r2,1
    e990:	0d 46 a1 10 	wl16	r8,0x3510
    e994:	0d 60 01 03 	wh16	r8,0x3
    e998:	10 40 01 08 	ld32	r8,r8
    e99c:	0d 46 ed 38 	wl16	r9,0x3778
    e9a0:	0d 60 01 23 	wh16	r9,0x3
    e9a4:	10 40 01 29 	ld32	r9,r9
    e9a8:	00 10 01 00 	add	r8,0
    e9ac:	20 70 03 e2 	movepc	rret,8
    e9b0:	14 30 c5 98 	br	10 <compare>,#al
    e9b4:	00 10 00 41 	add	r2,1
    e9b8:	0d 46 a1 14 	wl16	r8,0x3514
    e9bc:	0d 60 01 03 	wh16	r8,0x3
    e9c0:	10 40 01 08 	ld32	r8,r8
    e9c4:	0d 46 ed 3c 	wl16	r9,0x377c
    e9c8:	0d 60 01 23 	wh16	r9,0x3
    e9cc:	10 40 01 29 	ld32	r9,r9
    e9d0:	00 10 01 01 	add	r8,1
    e9d4:	20 70 03 e2 	movepc	rret,8
    e9d8:	14 30 c5 8e 	br	10 <compare>,#al
    e9dc:	00 10 00 41 	add	r2,1
    e9e0:	0d 46 a1 18 	wl16	r8,0x3518
    e9e4:	0d 60 01 03 	wh16	r8,0x3
    e9e8:	10 40 01 08 	ld32	r8,r8
    e9ec:	0d 46 f1 20 	wl16	r9,0x3780
    e9f0:	0d 60 01 23 	wh16	r9,0x3
    e9f4:	10 40 01 29 	ld32	r9,r9
    e9f8:	00 10 01 02 	add	r8,2
    e9fc:	20 70 03 e2 	movepc	rret,8
    ea00:	14 30 c5 84 	br	10 <compare>,#al
    ea04:	00 10 00 41 	add	r2,1
    ea08:	0d 46 a1 1c 	wl16	r8,0x351c
    ea0c:	0d 60 01 03 	wh16	r8,0x3
    ea10:	10 40 01 08 	ld32	r8,r8
    ea14:	0d 46 f1 24 	wl16	r9,0x3784
    ea18:	0d 60 01 23 	wh16	r9,0x3
    ea1c:	10 40 01 29 	ld32	r9,r9
    ea20:	00 10 01 04 	add	r8,4
    ea24:	20 70 03 e2 	movepc	rret,8
    ea28:	14 30 c5 7a 	br	10 <compare>,#al
    ea2c:	00 10 00 41 	add	r2,1
    ea30:	0d 46 a5 00 	wl16	r8,0x3520
    ea34:	0d 60 01 03 	wh16	r8,0x3
    ea38:	10 40 01 08 	ld32	r8,r8
    ea3c:	0d 46 f1 28 	wl16	r9,0x3788
    ea40:	0d 60 01 23 	wh16	r9,0x3
    ea44:	10 40 01 29 	ld32	r9,r9
    ea48:	00 10 01 08 	add	r8,8
    ea4c:	20 70 03 e2 	movepc	rret,8
    ea50:	14 30 c5 70 	br	10 <compare>,#al
    ea54:	00 10 00 41 	add	r2,1
    ea58:	0d 46 a5 04 	wl16	r8,0x3524
    ea5c:	0d 60 01 03 	wh16	r8,0x3
    ea60:	10 40 01 08 	ld32	r8,r8
    ea64:	0d 46 f1 2c 	wl16	r9,0x378c
    ea68:	0d 60 01 23 	wh16	r9,0x3
    ea6c:	10 40 01 29 	ld32	r9,r9
    ea70:	00 10 01 10 	add	r8,16
    ea74:	20 70 03 e2 	movepc	rret,8
    ea78:	14 30 c5 66 	br	10 <compare>,#al
    ea7c:	00 10 00 41 	add	r2,1
    ea80:	0d 46 a5 08 	wl16	r8,0x3528
    ea84:	0d 60 01 03 	wh16	r8,0x3
    ea88:	10 40 01 08 	ld32	r8,r8
    ea8c:	0d 46 f1 30 	wl16	r9,0x3790
    ea90:	0d 60 01 23 	wh16	r9,0x3
    ea94:	10 40 01 29 	ld32	r9,r9
    ea98:	00 10 05 00 	add	r8,32
    ea9c:	20 70 03 e2 	movepc	rret,8
    eaa0:	14 30 c5 5c 	br	10 <compare>,#al
    eaa4:	00 10 00 41 	add	r2,1
    eaa8:	0d 46 a5 0c 	wl16	r8,0x352c
    eaac:	0d 60 01 03 	wh16	r8,0x3
    eab0:	10 40 01 08 	ld32	r8,r8
    eab4:	0d 46 f1 34 	wl16	r9,0x3794
    eab8:	0d 60 01 23 	wh16	r9,0x3
    eabc:	10 40 01 29 	ld32	r9,r9
    eac0:	00 10 09 00 	add	r8,64
    eac4:	20 70 03 e2 	movepc	rret,8
    eac8:	14 30 c5 52 	br	10 <compare>,#al
    eacc:	00 10 00 41 	add	r2,1
    ead0:	0d 46 a5 10 	wl16	r8,0x3530
    ead4:	0d 60 01 03 	wh16	r8,0x3
    ead8:	10 40 01 08 	ld32	r8,r8
    eadc:	0d 46 f1 38 	wl16	r9,0x3798
    eae0:	0d 60 01 23 	wh16	r9,0x3
    eae4:	10 40 01 29 	ld32	r9,r9
    eae8:	00 10 11 00 	add	r8,128
    eaec:	20 70 03 e2 	movepc	rret,8
    eaf0:	14 30 c5 48 	br	10 <compare>,#al
    eaf4:	00 10 00 41 	add	r2,1
    eaf8:	0d 46 a5 14 	wl16	r8,0x3534
    eafc:	0d 60 01 03 	wh16	r8,0x3
    eb00:	10 40 01 08 	ld32	r8,r8
    eb04:	0d 46 f1 3c 	wl16	r9,0x379c
    eb08:	0d 60 01 23 	wh16	r9,0x3
    eb0c:	10 40 01 29 	ld32	r9,r9
    eb10:	00 10 21 00 	add	r8,256
    eb14:	20 70 03 e2 	movepc	rret,8
    eb18:	14 30 c5 3e 	br	10 <compare>,#al
    eb1c:	00 10 00 41 	add	r2,1
    eb20:	0d 46 a5 18 	wl16	r8,0x3538
    eb24:	0d 60 01 03 	wh16	r8,0x3
    eb28:	10 40 01 08 	ld32	r8,r8
    eb2c:	0d 46 f5 20 	wl16	r9,0x37a0
    eb30:	0d 60 01 23 	wh16	r9,0x3
    eb34:	10 40 01 29 	ld32	r9,r9
    eb38:	00 10 41 00 	add	r8,512
    eb3c:	20 70 03 e2 	movepc	rret,8
    eb40:	14 30 c5 34 	br	10 <compare>,#al
    eb44:	00 10 00 41 	add	r2,1
    eb48:	0d 46 a5 1c 	wl16	r8,0x353c
    eb4c:	0d 60 01 03 	wh16	r8,0x3
    eb50:	10 40 01 08 	ld32	r8,r8
    eb54:	0d 46 f5 24 	wl16	r9,0x37a4
    eb58:	0d 60 01 23 	wh16	r9,0x3
    eb5c:	10 40 01 29 	ld32	r9,r9
    eb60:	00 10 81 00 	add	r8,-1024
    eb64:	20 70 03 e2 	movepc	rret,8
    eb68:	14 30 c5 2a 	br	10 <compare>,#al
    eb6c:	00 10 00 41 	add	r2,1
    eb70:	0d 46 a9 00 	wl16	r8,0x3540
    eb74:	0d 60 01 03 	wh16	r8,0x3
    eb78:	10 40 01 08 	ld32	r8,r8
    eb7c:	0d 46 f5 28 	wl16	r9,0x37a8
    eb80:	0d 60 01 23 	wh16	r9,0x3
    eb84:	10 40 01 29 	ld32	r9,r9
    eb88:	00 10 01 00 	add	r8,0
    eb8c:	20 70 03 e2 	movepc	rret,8
    eb90:	14 30 c5 20 	br	10 <compare>,#al
    eb94:	00 10 00 41 	add	r2,1
    eb98:	0d 46 a9 04 	wl16	r8,0x3544
    eb9c:	0d 60 01 03 	wh16	r8,0x3
    eba0:	10 40 01 08 	ld32	r8,r8
    eba4:	0d 46 f5 2c 	wl16	r9,0x37ac
    eba8:	0d 60 01 23 	wh16	r9,0x3
    ebac:	10 40 01 29 	ld32	r9,r9
    ebb0:	00 10 01 01 	add	r8,1
    ebb4:	20 70 03 e2 	movepc	rret,8
    ebb8:	14 30 c5 16 	br	10 <compare>,#al
    ebbc:	00 10 00 41 	add	r2,1
    ebc0:	0d 46 a9 08 	wl16	r8,0x3548
    ebc4:	0d 60 01 03 	wh16	r8,0x3
    ebc8:	10 40 01 08 	ld32	r8,r8
    ebcc:	0d 46 f5 30 	wl16	r9,0x37b0
    ebd0:	0d 60 01 23 	wh16	r9,0x3
    ebd4:	10 40 01 29 	ld32	r9,r9
    ebd8:	00 10 01 02 	add	r8,2
    ebdc:	20 70 03 e2 	movepc	rret,8
    ebe0:	14 30 c5 0c 	br	10 <compare>,#al
    ebe4:	00 10 00 41 	add	r2,1
    ebe8:	0d 46 a9 0c 	wl16	r8,0x354c
    ebec:	0d 60 01 03 	wh16	r8,0x3
    ebf0:	10 40 01 08 	ld32	r8,r8
    ebf4:	0d 46 f5 34 	wl16	r9,0x37b4
    ebf8:	0d 60 01 23 	wh16	r9,0x3
    ebfc:	10 40 01 29 	ld32	r9,r9
    ec00:	00 10 01 04 	add	r8,4
    ec04:	20 70 03 e2 	movepc	rret,8
    ec08:	14 30 c5 02 	br	10 <compare>,#al
    ec0c:	00 10 00 41 	add	r2,1
    ec10:	0d 46 a9 10 	wl16	r8,0x3550
    ec14:	0d 60 01 03 	wh16	r8,0x3
    ec18:	10 40 01 08 	ld32	r8,r8
    ec1c:	0d 46 f5 38 	wl16	r9,0x37b8
    ec20:	0d 60 01 23 	wh16	r9,0x3
    ec24:	10 40 01 29 	ld32	r9,r9
    ec28:	00 10 01 08 	add	r8,8
    ec2c:	20 70 03 e2 	movepc	rret,8
    ec30:	14 30 c4 f8 	br	10 <compare>,#al
    ec34:	00 10 00 41 	add	r2,1
    ec38:	0d 46 a9 14 	wl16	r8,0x3554
    ec3c:	0d 60 01 03 	wh16	r8,0x3
    ec40:	10 40 01 08 	ld32	r8,r8
    ec44:	0d 46 f5 3c 	wl16	r9,0x37bc
    ec48:	0d 60 01 23 	wh16	r9,0x3
    ec4c:	10 40 01 29 	ld32	r9,r9
    ec50:	00 10 01 10 	add	r8,16
    ec54:	20 70 03 e2 	movepc	rret,8
    ec58:	14 30 c4 ee 	br	10 <compare>,#al
    ec5c:	00 10 00 41 	add	r2,1
    ec60:	0d 46 a9 18 	wl16	r8,0x3558
    ec64:	0d 60 01 03 	wh16	r8,0x3
    ec68:	10 40 01 08 	ld32	r8,r8
    ec6c:	0d 46 f9 20 	wl16	r9,0x37c0
    ec70:	0d 60 01 23 	wh16	r9,0x3
    ec74:	10 40 01 29 	ld32	r9,r9
    ec78:	00 10 05 00 	add	r8,32
    ec7c:	20 70 03 e2 	movepc	rret,8
    ec80:	14 30 c4 e4 	br	10 <compare>,#al
    ec84:	00 10 00 41 	add	r2,1
    ec88:	0d 46 a9 1c 	wl16	r8,0x355c
    ec8c:	0d 60 01 03 	wh16	r8,0x3
    ec90:	10 40 01 08 	ld32	r8,r8
    ec94:	0d 46 f9 24 	wl16	r9,0x37c4
    ec98:	0d 60 01 23 	wh16	r9,0x3
    ec9c:	10 40 01 29 	ld32	r9,r9
    eca0:	00 10 09 00 	add	r8,64
    eca4:	20 70 03 e2 	movepc	rret,8
    eca8:	14 30 c4 da 	br	10 <compare>,#al
    ecac:	00 10 00 41 	add	r2,1
    ecb0:	0d 46 ad 00 	wl16	r8,0x3560
    ecb4:	0d 60 01 03 	wh16	r8,0x3
    ecb8:	10 40 01 08 	ld32	r8,r8
    ecbc:	0d 46 f9 28 	wl16	r9,0x37c8
    ecc0:	0d 60 01 23 	wh16	r9,0x3
    ecc4:	10 40 01 29 	ld32	r9,r9
    ecc8:	00 10 11 00 	add	r8,128
    eccc:	20 70 03 e2 	movepc	rret,8
    ecd0:	14 30 c4 d0 	br	10 <compare>,#al
    ecd4:	00 10 00 41 	add	r2,1
    ecd8:	0d 46 ad 04 	wl16	r8,0x3564
    ecdc:	0d 60 01 03 	wh16	r8,0x3
    ece0:	10 40 01 08 	ld32	r8,r8
    ece4:	0d 46 f9 2c 	wl16	r9,0x37cc
    ece8:	0d 60 01 23 	wh16	r9,0x3
    ecec:	10 40 01 29 	ld32	r9,r9
    ecf0:	00 10 21 00 	add	r8,256
    ecf4:	20 70 03 e2 	movepc	rret,8
    ecf8:	14 30 c4 c6 	br	10 <compare>,#al
    ecfc:	00 10 00 41 	add	r2,1
    ed00:	0d 46 ad 08 	wl16	r8,0x3568
    ed04:	0d 60 01 03 	wh16	r8,0x3
    ed08:	10 40 01 08 	ld32	r8,r8
    ed0c:	0d 46 f9 30 	wl16	r9,0x37d0
    ed10:	0d 60 01 23 	wh16	r9,0x3
    ed14:	10 40 01 29 	ld32	r9,r9
    ed18:	00 10 41 00 	add	r8,512
    ed1c:	20 70 03 e2 	movepc	rret,8
    ed20:	14 30 c4 bc 	br	10 <compare>,#al
    ed24:	00 10 00 41 	add	r2,1
    ed28:	0d 46 ad 0c 	wl16	r8,0x356c
    ed2c:	0d 60 01 03 	wh16	r8,0x3
    ed30:	10 40 01 08 	ld32	r8,r8
    ed34:	0d 46 f9 34 	wl16	r9,0x37d4
    ed38:	0d 60 01 23 	wh16	r9,0x3
    ed3c:	10 40 01 29 	ld32	r9,r9
    ed40:	00 10 81 00 	add	r8,-1024
    ed44:	20 70 03 e2 	movepc	rret,8
    ed48:	14 30 c4 b2 	br	10 <compare>,#al
    ed4c:	00 10 00 41 	add	r2,1
    ed50:	0d 46 ad 10 	wl16	r8,0x3570
    ed54:	0d 60 01 03 	wh16	r8,0x3
    ed58:	10 40 01 08 	ld32	r8,r8
    ed5c:	0d 46 f9 38 	wl16	r9,0x37d8
    ed60:	0d 60 01 23 	wh16	r9,0x3
    ed64:	10 40 01 29 	ld32	r9,r9
    ed68:	00 10 01 00 	add	r8,0
    ed6c:	20 70 03 e2 	movepc	rret,8
    ed70:	14 30 c4 a8 	br	10 <compare>,#al
    ed74:	00 10 00 41 	add	r2,1
    ed78:	0d 46 ad 14 	wl16	r8,0x3574
    ed7c:	0d 60 01 03 	wh16	r8,0x3
    ed80:	10 40 01 08 	ld32	r8,r8
    ed84:	0d 46 f9 3c 	wl16	r9,0x37dc
    ed88:	0d 60 01 23 	wh16	r9,0x3
    ed8c:	10 40 01 29 	ld32	r9,r9
    ed90:	00 10 01 01 	add	r8,1
    ed94:	20 70 03 e2 	movepc	rret,8
    ed98:	14 30 c4 9e 	br	10 <compare>,#al
    ed9c:	00 10 00 41 	add	r2,1
    eda0:	0d 46 ad 18 	wl16	r8,0x3578
    eda4:	0d 60 01 03 	wh16	r8,0x3
    eda8:	10 40 01 08 	ld32	r8,r8
    edac:	0d 46 fd 20 	wl16	r9,0x37e0
    edb0:	0d 60 01 23 	wh16	r9,0x3
    edb4:	10 40 01 29 	ld32	r9,r9
    edb8:	00 10 01 02 	add	r8,2
    edbc:	20 70 03 e2 	movepc	rret,8
    edc0:	14 30 c4 94 	br	10 <compare>,#al
    edc4:	00 10 00 41 	add	r2,1
    edc8:	0d 46 ad 1c 	wl16	r8,0x357c
    edcc:	0d 60 01 03 	wh16	r8,0x3
    edd0:	10 40 01 08 	ld32	r8,r8
    edd4:	0d 46 fd 24 	wl16	r9,0x37e4
    edd8:	0d 60 01 23 	wh16	r9,0x3
    eddc:	10 40 01 29 	ld32	r9,r9
    ede0:	00 10 01 04 	add	r8,4
    ede4:	20 70 03 e2 	movepc	rret,8
    ede8:	14 30 c4 8a 	br	10 <compare>,#al
    edec:	00 10 00 41 	add	r2,1
    edf0:	0d 46 b1 00 	wl16	r8,0x3580
    edf4:	0d 60 01 03 	wh16	r8,0x3
    edf8:	10 40 01 08 	ld32	r8,r8
    edfc:	0d 46 fd 28 	wl16	r9,0x37e8
    ee00:	0d 60 01 23 	wh16	r9,0x3
    ee04:	10 40 01 29 	ld32	r9,r9
    ee08:	00 10 01 08 	add	r8,8
    ee0c:	20 70 03 e2 	movepc	rret,8
    ee10:	14 30 c4 80 	br	10 <compare>,#al
    ee14:	00 10 00 41 	add	r2,1
    ee18:	0d 46 b1 04 	wl16	r8,0x3584
    ee1c:	0d 60 01 03 	wh16	r8,0x3
    ee20:	10 40 01 08 	ld32	r8,r8
    ee24:	0d 46 fd 2c 	wl16	r9,0x37ec
    ee28:	0d 60 01 23 	wh16	r9,0x3
    ee2c:	10 40 01 29 	ld32	r9,r9
    ee30:	00 10 01 10 	add	r8,16
    ee34:	20 70 03 e2 	movepc	rret,8
    ee38:	14 30 c4 76 	br	10 <compare>,#al
    ee3c:	00 10 00 41 	add	r2,1
    ee40:	0d 46 b1 08 	wl16	r8,0x3588
    ee44:	0d 60 01 03 	wh16	r8,0x3
    ee48:	10 40 01 08 	ld32	r8,r8
    ee4c:	0d 46 fd 30 	wl16	r9,0x37f0
    ee50:	0d 60 01 23 	wh16	r9,0x3
    ee54:	10 40 01 29 	ld32	r9,r9
    ee58:	00 10 05 00 	add	r8,32
    ee5c:	20 70 03 e2 	movepc	rret,8
    ee60:	14 30 c4 6c 	br	10 <compare>,#al
    ee64:	00 10 00 41 	add	r2,1
    ee68:	0d 46 b1 0c 	wl16	r8,0x358c
    ee6c:	0d 60 01 03 	wh16	r8,0x3
    ee70:	10 40 01 08 	ld32	r8,r8
    ee74:	0d 46 fd 34 	wl16	r9,0x37f4
    ee78:	0d 60 01 23 	wh16	r9,0x3
    ee7c:	10 40 01 29 	ld32	r9,r9
    ee80:	00 10 09 00 	add	r8,64
    ee84:	20 70 03 e2 	movepc	rret,8
    ee88:	14 30 c4 62 	br	10 <compare>,#al
    ee8c:	00 10 00 41 	add	r2,1
    ee90:	0d 46 b1 10 	wl16	r8,0x3590
    ee94:	0d 60 01 03 	wh16	r8,0x3
    ee98:	10 40 01 08 	ld32	r8,r8
    ee9c:	0d 46 fd 38 	wl16	r9,0x37f8
    eea0:	0d 60 01 23 	wh16	r9,0x3
    eea4:	10 40 01 29 	ld32	r9,r9
    eea8:	00 10 11 00 	add	r8,128
    eeac:	20 70 03 e2 	movepc	rret,8
    eeb0:	14 30 c4 58 	br	10 <compare>,#al
    eeb4:	00 10 00 41 	add	r2,1
    eeb8:	0d 46 b1 14 	wl16	r8,0x3594
    eebc:	0d 60 01 03 	wh16	r8,0x3
    eec0:	10 40 01 08 	ld32	r8,r8
    eec4:	0d 46 fd 3c 	wl16	r9,0x37fc
    eec8:	0d 60 01 23 	wh16	r9,0x3
    eecc:	10 40 01 29 	ld32	r9,r9
    eed0:	00 10 21 00 	add	r8,256
    eed4:	20 70 03 e2 	movepc	rret,8
    eed8:	14 30 c4 4e 	br	10 <compare>,#al
    eedc:	00 10 00 41 	add	r2,1
    eee0:	0d 46 b1 18 	wl16	r8,0x3598
    eee4:	0d 60 01 03 	wh16	r8,0x3
    eee8:	10 40 01 08 	ld32	r8,r8
    eeec:	0d 47 01 20 	wl16	r9,0x3800
    eef0:	0d 60 01 23 	wh16	r9,0x3
    eef4:	10 40 01 29 	ld32	r9,r9
    eef8:	00 10 41 00 	add	r8,512
    eefc:	20 70 03 e2 	movepc	rret,8
    ef00:	14 30 c4 44 	br	10 <compare>,#al
    ef04:	00 10 00 41 	add	r2,1
    ef08:	0d 46 b1 1c 	wl16	r8,0x359c
    ef0c:	0d 60 01 03 	wh16	r8,0x3
    ef10:	10 40 01 08 	ld32	r8,r8
    ef14:	0d 47 01 24 	wl16	r9,0x3804
    ef18:	0d 60 01 23 	wh16	r9,0x3
    ef1c:	10 40 01 29 	ld32	r9,r9
    ef20:	00 10 81 00 	add	r8,-1024
    ef24:	20 70 03 e2 	movepc	rret,8
    ef28:	14 30 c4 3a 	br	10 <compare>,#al
    ef2c:	00 10 00 41 	add	r2,1
    ef30:	0d 46 b5 00 	wl16	r8,0x35a0
    ef34:	0d 60 01 03 	wh16	r8,0x3
    ef38:	10 40 01 08 	ld32	r8,r8
    ef3c:	0d 47 01 28 	wl16	r9,0x3808
    ef40:	0d 60 01 23 	wh16	r9,0x3
    ef44:	10 40 01 29 	ld32	r9,r9
    ef48:	00 10 01 00 	add	r8,0
    ef4c:	20 70 03 e2 	movepc	rret,8
    ef50:	14 30 c4 30 	br	10 <compare>,#al
    ef54:	00 10 00 41 	add	r2,1
    ef58:	0d 46 b5 04 	wl16	r8,0x35a4
    ef5c:	0d 60 01 03 	wh16	r8,0x3
    ef60:	10 40 01 08 	ld32	r8,r8
    ef64:	0d 47 01 2c 	wl16	r9,0x380c
    ef68:	0d 60 01 23 	wh16	r9,0x3
    ef6c:	10 40 01 29 	ld32	r9,r9
    ef70:	00 10 01 01 	add	r8,1
    ef74:	20 70 03 e2 	movepc	rret,8
    ef78:	14 30 c4 26 	br	10 <compare>,#al
    ef7c:	00 10 00 41 	add	r2,1
    ef80:	0d 46 b5 08 	wl16	r8,0x35a8
    ef84:	0d 60 01 03 	wh16	r8,0x3
    ef88:	10 40 01 08 	ld32	r8,r8
    ef8c:	0d 47 01 30 	wl16	r9,0x3810
    ef90:	0d 60 01 23 	wh16	r9,0x3
    ef94:	10 40 01 29 	ld32	r9,r9
    ef98:	00 10 01 02 	add	r8,2
    ef9c:	20 70 03 e2 	movepc	rret,8
    efa0:	14 30 c4 1c 	br	10 <compare>,#al
    efa4:	00 10 00 41 	add	r2,1
    efa8:	0d 46 b5 0c 	wl16	r8,0x35ac
    efac:	0d 60 01 03 	wh16	r8,0x3
    efb0:	10 40 01 08 	ld32	r8,r8
    efb4:	0d 47 01 34 	wl16	r9,0x3814
    efb8:	0d 60 01 23 	wh16	r9,0x3
    efbc:	10 40 01 29 	ld32	r9,r9
    efc0:	00 10 01 04 	add	r8,4
    efc4:	20 70 03 e2 	movepc	rret,8
    efc8:	14 30 c4 12 	br	10 <compare>,#al
    efcc:	00 10 00 41 	add	r2,1
    efd0:	0d 46 b5 10 	wl16	r8,0x35b0
    efd4:	0d 60 01 03 	wh16	r8,0x3
    efd8:	10 40 01 08 	ld32	r8,r8
    efdc:	0d 47 01 38 	wl16	r9,0x3818
    efe0:	0d 60 01 23 	wh16	r9,0x3
    efe4:	10 40 01 29 	ld32	r9,r9
    efe8:	00 10 01 08 	add	r8,8
    efec:	20 70 03 e2 	movepc	rret,8
    eff0:	14 30 c4 08 	br	10 <compare>,#al
    eff4:	00 10 00 41 	add	r2,1
    eff8:	0d 46 b5 14 	wl16	r8,0x35b4
    effc:	0d 60 01 03 	wh16	r8,0x3
    f000:	10 40 01 08 	ld32	r8,r8
    f004:	0d 47 01 3c 	wl16	r9,0x381c
    f008:	0d 60 01 23 	wh16	r9,0x3
    f00c:	10 40 01 29 	ld32	r9,r9
    f010:	00 10 01 10 	add	r8,16
    f014:	20 70 03 e2 	movepc	rret,8
    f018:	14 30 c3 fe 	br	10 <compare>,#al
    f01c:	00 10 00 41 	add	r2,1
    f020:	0d 46 b5 18 	wl16	r8,0x35b8
    f024:	0d 60 01 03 	wh16	r8,0x3
    f028:	10 40 01 08 	ld32	r8,r8
    f02c:	0d 47 05 20 	wl16	r9,0x3820
    f030:	0d 60 01 23 	wh16	r9,0x3
    f034:	10 40 01 29 	ld32	r9,r9
    f038:	00 10 05 00 	add	r8,32
    f03c:	20 70 03 e2 	movepc	rret,8
    f040:	14 30 c3 f4 	br	10 <compare>,#al
    f044:	00 10 00 41 	add	r2,1
    f048:	0d 46 b5 1c 	wl16	r8,0x35bc
    f04c:	0d 60 01 03 	wh16	r8,0x3
    f050:	10 40 01 08 	ld32	r8,r8
    f054:	0d 47 05 24 	wl16	r9,0x3824
    f058:	0d 60 01 23 	wh16	r9,0x3
    f05c:	10 40 01 29 	ld32	r9,r9
    f060:	00 10 09 00 	add	r8,64
    f064:	20 70 03 e2 	movepc	rret,8
    f068:	14 30 c3 ea 	br	10 <compare>,#al
    f06c:	00 10 00 41 	add	r2,1
    f070:	0d 46 b9 00 	wl16	r8,0x35c0
    f074:	0d 60 01 03 	wh16	r8,0x3
    f078:	10 40 01 08 	ld32	r8,r8
    f07c:	0d 47 05 28 	wl16	r9,0x3828
    f080:	0d 60 01 23 	wh16	r9,0x3
    f084:	10 40 01 29 	ld32	r9,r9
    f088:	00 10 11 00 	add	r8,128
    f08c:	20 70 03 e2 	movepc	rret,8
    f090:	14 30 c3 e0 	br	10 <compare>,#al
    f094:	00 10 00 41 	add	r2,1
    f098:	0d 46 b9 04 	wl16	r8,0x35c4
    f09c:	0d 60 01 03 	wh16	r8,0x3
    f0a0:	10 40 01 08 	ld32	r8,r8
    f0a4:	0d 47 05 2c 	wl16	r9,0x382c
    f0a8:	0d 60 01 23 	wh16	r9,0x3
    f0ac:	10 40 01 29 	ld32	r9,r9
    f0b0:	00 10 21 00 	add	r8,256
    f0b4:	20 70 03 e2 	movepc	rret,8
    f0b8:	14 30 c3 d6 	br	10 <compare>,#al
    f0bc:	00 10 00 41 	add	r2,1
    f0c0:	0d 46 b9 08 	wl16	r8,0x35c8
    f0c4:	0d 60 01 03 	wh16	r8,0x3
    f0c8:	10 40 01 08 	ld32	r8,r8
    f0cc:	0d 47 05 30 	wl16	r9,0x3830
    f0d0:	0d 60 01 23 	wh16	r9,0x3
    f0d4:	10 40 01 29 	ld32	r9,r9
    f0d8:	00 10 41 00 	add	r8,512
    f0dc:	20 70 03 e2 	movepc	rret,8
    f0e0:	14 30 c3 cc 	br	10 <compare>,#al
    f0e4:	00 10 00 41 	add	r2,1
    f0e8:	0d 46 b9 0c 	wl16	r8,0x35cc
    f0ec:	0d 60 01 03 	wh16	r8,0x3
    f0f0:	10 40 01 08 	ld32	r8,r8
    f0f4:	0d 47 05 34 	wl16	r9,0x3834
    f0f8:	0d 60 01 23 	wh16	r9,0x3
    f0fc:	10 40 01 29 	ld32	r9,r9
    f100:	00 10 81 00 	add	r8,-1024
    f104:	20 70 03 e2 	movepc	rret,8
    f108:	14 30 c3 c2 	br	10 <compare>,#al
    f10c:	00 10 00 41 	add	r2,1
    f110:	0d 46 b9 10 	wl16	r8,0x35d0
    f114:	0d 60 01 03 	wh16	r8,0x3
    f118:	10 40 01 08 	ld32	r8,r8
    f11c:	0d 47 05 38 	wl16	r9,0x3838
    f120:	0d 60 01 23 	wh16	r9,0x3
    f124:	10 40 01 29 	ld32	r9,r9
    f128:	00 10 01 00 	add	r8,0
    f12c:	20 70 03 e2 	movepc	rret,8
    f130:	14 30 c3 b8 	br	10 <compare>,#al
    f134:	00 10 00 41 	add	r2,1
    f138:	0d 46 b9 14 	wl16	r8,0x35d4
    f13c:	0d 60 01 03 	wh16	r8,0x3
    f140:	10 40 01 08 	ld32	r8,r8
    f144:	0d 47 05 3c 	wl16	r9,0x383c
    f148:	0d 60 01 23 	wh16	r9,0x3
    f14c:	10 40 01 29 	ld32	r9,r9
    f150:	00 10 01 01 	add	r8,1
    f154:	20 70 03 e2 	movepc	rret,8
    f158:	14 30 c3 ae 	br	10 <compare>,#al
    f15c:	00 10 00 41 	add	r2,1
    f160:	0d 46 b9 18 	wl16	r8,0x35d8
    f164:	0d 60 01 03 	wh16	r8,0x3
    f168:	10 40 01 08 	ld32	r8,r8
    f16c:	0d 47 09 20 	wl16	r9,0x3840
    f170:	0d 60 01 23 	wh16	r9,0x3
    f174:	10 40 01 29 	ld32	r9,r9
    f178:	00 10 01 02 	add	r8,2
    f17c:	20 70 03 e2 	movepc	rret,8
    f180:	14 30 c3 a4 	br	10 <compare>,#al
    f184:	00 10 00 41 	add	r2,1
    f188:	0d 46 b9 1c 	wl16	r8,0x35dc
    f18c:	0d 60 01 03 	wh16	r8,0x3
    f190:	10 40 01 08 	ld32	r8,r8
    f194:	0d 47 09 24 	wl16	r9,0x3844
    f198:	0d 60 01 23 	wh16	r9,0x3
    f19c:	10 40 01 29 	ld32	r9,r9
    f1a0:	00 10 01 04 	add	r8,4
    f1a4:	20 70 03 e2 	movepc	rret,8
    f1a8:	14 30 c3 9a 	br	10 <compare>,#al
    f1ac:	00 10 00 41 	add	r2,1
    f1b0:	0d 46 bd 00 	wl16	r8,0x35e0
    f1b4:	0d 60 01 03 	wh16	r8,0x3
    f1b8:	10 40 01 08 	ld32	r8,r8
    f1bc:	0d 47 09 28 	wl16	r9,0x3848
    f1c0:	0d 60 01 23 	wh16	r9,0x3
    f1c4:	10 40 01 29 	ld32	r9,r9
    f1c8:	00 10 01 08 	add	r8,8
    f1cc:	20 70 03 e2 	movepc	rret,8
    f1d0:	14 30 c3 90 	br	10 <compare>,#al
    f1d4:	00 10 00 41 	add	r2,1
    f1d8:	0d 46 bd 04 	wl16	r8,0x35e4
    f1dc:	0d 60 01 03 	wh16	r8,0x3
    f1e0:	10 40 01 08 	ld32	r8,r8
    f1e4:	0d 47 09 2c 	wl16	r9,0x384c
    f1e8:	0d 60 01 23 	wh16	r9,0x3
    f1ec:	10 40 01 29 	ld32	r9,r9
    f1f0:	00 10 01 10 	add	r8,16
    f1f4:	20 70 03 e2 	movepc	rret,8
    f1f8:	14 30 c3 86 	br	10 <compare>,#al
    f1fc:	00 10 00 41 	add	r2,1
    f200:	0d 46 bd 08 	wl16	r8,0x35e8
    f204:	0d 60 01 03 	wh16	r8,0x3
    f208:	10 40 01 08 	ld32	r8,r8
    f20c:	0d 47 09 30 	wl16	r9,0x3850
    f210:	0d 60 01 23 	wh16	r9,0x3
    f214:	10 40 01 29 	ld32	r9,r9
    f218:	00 10 05 00 	add	r8,32
    f21c:	20 70 03 e2 	movepc	rret,8
    f220:	14 30 c3 7c 	br	10 <compare>,#al
    f224:	00 10 00 41 	add	r2,1
    f228:	0d 46 bd 0c 	wl16	r8,0x35ec
    f22c:	0d 60 01 03 	wh16	r8,0x3
    f230:	10 40 01 08 	ld32	r8,r8
    f234:	0d 47 09 34 	wl16	r9,0x3854
    f238:	0d 60 01 23 	wh16	r9,0x3
    f23c:	10 40 01 29 	ld32	r9,r9
    f240:	00 10 09 00 	add	r8,64
    f244:	20 70 03 e2 	movepc	rret,8
    f248:	14 30 c3 72 	br	10 <compare>,#al
    f24c:	00 10 00 41 	add	r2,1
    f250:	0d 46 bd 10 	wl16	r8,0x35f0
    f254:	0d 60 01 03 	wh16	r8,0x3
    f258:	10 40 01 08 	ld32	r8,r8
    f25c:	0d 47 09 38 	wl16	r9,0x3858
    f260:	0d 60 01 23 	wh16	r9,0x3
    f264:	10 40 01 29 	ld32	r9,r9
    f268:	00 10 11 00 	add	r8,128
    f26c:	20 70 03 e2 	movepc	rret,8
    f270:	14 30 c3 68 	br	10 <compare>,#al
    f274:	00 10 00 41 	add	r2,1
    f278:	0d 46 bd 14 	wl16	r8,0x35f4
    f27c:	0d 60 01 03 	wh16	r8,0x3
    f280:	10 40 01 08 	ld32	r8,r8
    f284:	0d 47 09 3c 	wl16	r9,0x385c
    f288:	0d 60 01 23 	wh16	r9,0x3
    f28c:	10 40 01 29 	ld32	r9,r9
    f290:	00 10 21 00 	add	r8,256
    f294:	20 70 03 e2 	movepc	rret,8
    f298:	14 30 c3 5e 	br	10 <compare>,#al
    f29c:	00 10 00 41 	add	r2,1
    f2a0:	0d 46 bd 18 	wl16	r8,0x35f8
    f2a4:	0d 60 01 03 	wh16	r8,0x3
    f2a8:	10 40 01 08 	ld32	r8,r8
    f2ac:	0d 47 0d 20 	wl16	r9,0x3860
    f2b0:	0d 60 01 23 	wh16	r9,0x3
    f2b4:	10 40 01 29 	ld32	r9,r9
    f2b8:	00 10 41 00 	add	r8,512
    f2bc:	20 70 03 e2 	movepc	rret,8
    f2c0:	14 30 c3 54 	br	10 <compare>,#al
    f2c4:	00 10 00 41 	add	r2,1
    f2c8:	0d 46 bd 1c 	wl16	r8,0x35fc
    f2cc:	0d 60 01 03 	wh16	r8,0x3
    f2d0:	10 40 01 08 	ld32	r8,r8
    f2d4:	0d 47 0d 24 	wl16	r9,0x3864
    f2d8:	0d 60 01 23 	wh16	r9,0x3
    f2dc:	10 40 01 29 	ld32	r9,r9
    f2e0:	00 10 81 00 	add	r8,-1024
    f2e4:	20 70 03 e2 	movepc	rret,8
    f2e8:	14 30 c3 4a 	br	10 <compare>,#al
    f2ec:	00 10 00 41 	add	r2,1
    f2f0:	0d 46 c1 00 	wl16	r8,0x3600
    f2f4:	0d 60 01 03 	wh16	r8,0x3
    f2f8:	10 40 01 08 	ld32	r8,r8
    f2fc:	0d 47 0d 28 	wl16	r9,0x3868
    f300:	0d 60 01 23 	wh16	r9,0x3
    f304:	10 40 01 29 	ld32	r9,r9
    f308:	00 10 01 00 	add	r8,0
    f30c:	20 70 03 e2 	movepc	rret,8
    f310:	14 30 c3 40 	br	10 <compare>,#al
    f314:	00 10 00 41 	add	r2,1
    f318:	0d 46 c1 04 	wl16	r8,0x3604
    f31c:	0d 60 01 03 	wh16	r8,0x3
    f320:	10 40 01 08 	ld32	r8,r8
    f324:	0d 47 0d 2c 	wl16	r9,0x386c
    f328:	0d 60 01 23 	wh16	r9,0x3
    f32c:	10 40 01 29 	ld32	r9,r9
    f330:	00 10 01 01 	add	r8,1
    f334:	20 70 03 e2 	movepc	rret,8
    f338:	14 30 c3 36 	br	10 <compare>,#al
    f33c:	00 10 00 41 	add	r2,1
    f340:	0d 46 c1 08 	wl16	r8,0x3608
    f344:	0d 60 01 03 	wh16	r8,0x3
    f348:	10 40 01 08 	ld32	r8,r8
    f34c:	0d 47 0d 30 	wl16	r9,0x3870
    f350:	0d 60 01 23 	wh16	r9,0x3
    f354:	10 40 01 29 	ld32	r9,r9
    f358:	00 10 01 02 	add	r8,2
    f35c:	20 70 03 e2 	movepc	rret,8
    f360:	14 30 c3 2c 	br	10 <compare>,#al
    f364:	00 10 00 41 	add	r2,1
    f368:	0d 46 c1 0c 	wl16	r8,0x360c
    f36c:	0d 60 01 03 	wh16	r8,0x3
    f370:	10 40 01 08 	ld32	r8,r8
    f374:	0d 47 0d 34 	wl16	r9,0x3874
    f378:	0d 60 01 23 	wh16	r9,0x3
    f37c:	10 40 01 29 	ld32	r9,r9
    f380:	00 10 01 04 	add	r8,4
    f384:	20 70 03 e2 	movepc	rret,8
    f388:	14 30 c3 22 	br	10 <compare>,#al
    f38c:	00 10 00 41 	add	r2,1
    f390:	0d 46 c1 10 	wl16	r8,0x3610
    f394:	0d 60 01 03 	wh16	r8,0x3
    f398:	10 40 01 08 	ld32	r8,r8
    f39c:	0d 47 0d 38 	wl16	r9,0x3878
    f3a0:	0d 60 01 23 	wh16	r9,0x3
    f3a4:	10 40 01 29 	ld32	r9,r9
    f3a8:	00 10 01 08 	add	r8,8
    f3ac:	20 70 03 e2 	movepc	rret,8
    f3b0:	14 30 c3 18 	br	10 <compare>,#al
    f3b4:	00 10 00 41 	add	r2,1
    f3b8:	0d 46 c1 14 	wl16	r8,0x3614
    f3bc:	0d 60 01 03 	wh16	r8,0x3
    f3c0:	10 40 01 08 	ld32	r8,r8
    f3c4:	0d 47 0d 3c 	wl16	r9,0x387c
    f3c8:	0d 60 01 23 	wh16	r9,0x3
    f3cc:	10 40 01 29 	ld32	r9,r9
    f3d0:	00 10 01 10 	add	r8,16
    f3d4:	20 70 03 e2 	movepc	rret,8
    f3d8:	14 30 c3 0e 	br	10 <compare>,#al
    f3dc:	00 10 00 41 	add	r2,1
    f3e0:	0d 46 c1 18 	wl16	r8,0x3618
    f3e4:	0d 60 01 03 	wh16	r8,0x3
    f3e8:	10 40 01 08 	ld32	r8,r8
    f3ec:	0d 47 11 20 	wl16	r9,0x3880
    f3f0:	0d 60 01 23 	wh16	r9,0x3
    f3f4:	10 40 01 29 	ld32	r9,r9
    f3f8:	00 10 05 00 	add	r8,32
    f3fc:	20 70 03 e2 	movepc	rret,8
    f400:	14 30 c3 04 	br	10 <compare>,#al
    f404:	00 10 00 41 	add	r2,1
    f408:	0d 46 c1 1c 	wl16	r8,0x361c
    f40c:	0d 60 01 03 	wh16	r8,0x3
    f410:	10 40 01 08 	ld32	r8,r8
    f414:	0d 47 11 24 	wl16	r9,0x3884
    f418:	0d 60 01 23 	wh16	r9,0x3
    f41c:	10 40 01 29 	ld32	r9,r9
    f420:	00 10 09 00 	add	r8,64
    f424:	20 70 03 e2 	movepc	rret,8
    f428:	14 30 c2 fa 	br	10 <compare>,#al
    f42c:	00 10 00 41 	add	r2,1
    f430:	0d 46 c5 00 	wl16	r8,0x3620
    f434:	0d 60 01 03 	wh16	r8,0x3
    f438:	10 40 01 08 	ld32	r8,r8
    f43c:	0d 47 11 28 	wl16	r9,0x3888
    f440:	0d 60 01 23 	wh16	r9,0x3
    f444:	10 40 01 29 	ld32	r9,r9
    f448:	00 10 11 00 	add	r8,128
    f44c:	20 70 03 e2 	movepc	rret,8
    f450:	14 30 c2 f0 	br	10 <compare>,#al
    f454:	00 10 00 41 	add	r2,1
    f458:	0d 46 c5 04 	wl16	r8,0x3624
    f45c:	0d 60 01 03 	wh16	r8,0x3
    f460:	10 40 01 08 	ld32	r8,r8
    f464:	0d 47 11 2c 	wl16	r9,0x388c
    f468:	0d 60 01 23 	wh16	r9,0x3
    f46c:	10 40 01 29 	ld32	r9,r9
    f470:	00 10 21 00 	add	r8,256
    f474:	20 70 03 e2 	movepc	rret,8
    f478:	14 30 c2 e6 	br	10 <compare>,#al
    f47c:	00 10 00 41 	add	r2,1
    f480:	0d 46 c5 08 	wl16	r8,0x3628
    f484:	0d 60 01 03 	wh16	r8,0x3
    f488:	10 40 01 08 	ld32	r8,r8
    f48c:	0d 47 11 30 	wl16	r9,0x3890
    f490:	0d 60 01 23 	wh16	r9,0x3
    f494:	10 40 01 29 	ld32	r9,r9
    f498:	00 10 41 00 	add	r8,512
    f49c:	20 70 03 e2 	movepc	rret,8
    f4a0:	14 30 c2 dc 	br	10 <compare>,#al
    f4a4:	00 10 00 41 	add	r2,1
    f4a8:	0d 46 c5 0c 	wl16	r8,0x362c
    f4ac:	0d 60 01 03 	wh16	r8,0x3
    f4b0:	10 40 01 08 	ld32	r8,r8
    f4b4:	0d 47 11 34 	wl16	r9,0x3894
    f4b8:	0d 60 01 23 	wh16	r9,0x3
    f4bc:	10 40 01 29 	ld32	r9,r9
    f4c0:	00 10 81 00 	add	r8,-1024
    f4c4:	20 70 03 e2 	movepc	rret,8
    f4c8:	14 30 c2 d2 	br	10 <compare>,#al
    f4cc:	00 10 00 41 	add	r2,1
    f4d0:	0d 46 c5 10 	wl16	r8,0x3630
    f4d4:	0d 60 01 03 	wh16	r8,0x3
    f4d8:	10 40 01 08 	ld32	r8,r8
    f4dc:	0d 47 11 38 	wl16	r9,0x3898
    f4e0:	0d 60 01 23 	wh16	r9,0x3
    f4e4:	10 40 01 29 	ld32	r9,r9
    f4e8:	00 10 01 00 	add	r8,0
    f4ec:	20 70 03 e2 	movepc	rret,8
    f4f0:	14 30 c2 c8 	br	10 <compare>,#al
    f4f4:	00 10 00 41 	add	r2,1
    f4f8:	0d 46 c5 14 	wl16	r8,0x3634
    f4fc:	0d 60 01 03 	wh16	r8,0x3
    f500:	10 40 01 08 	ld32	r8,r8
    f504:	0d 47 11 3c 	wl16	r9,0x389c
    f508:	0d 60 01 23 	wh16	r9,0x3
    f50c:	10 40 01 29 	ld32	r9,r9
    f510:	00 10 01 01 	add	r8,1
    f514:	20 70 03 e2 	movepc	rret,8
    f518:	14 30 c2 be 	br	10 <compare>,#al
    f51c:	00 10 00 41 	add	r2,1
    f520:	0d 46 c5 18 	wl16	r8,0x3638
    f524:	0d 60 01 03 	wh16	r8,0x3
    f528:	10 40 01 08 	ld32	r8,r8
    f52c:	0d 47 15 20 	wl16	r9,0x38a0
    f530:	0d 60 01 23 	wh16	r9,0x3
    f534:	10 40 01 29 	ld32	r9,r9
    f538:	00 10 01 02 	add	r8,2
    f53c:	20 70 03 e2 	movepc	rret,8
    f540:	14 30 c2 b4 	br	10 <compare>,#al
    f544:	00 10 00 41 	add	r2,1
    f548:	0d 46 c5 1c 	wl16	r8,0x363c
    f54c:	0d 60 01 03 	wh16	r8,0x3
    f550:	10 40 01 08 	ld32	r8,r8
    f554:	0d 47 15 24 	wl16	r9,0x38a4
    f558:	0d 60 01 23 	wh16	r9,0x3
    f55c:	10 40 01 29 	ld32	r9,r9
    f560:	00 10 01 04 	add	r8,4
    f564:	20 70 03 e2 	movepc	rret,8
    f568:	14 30 c2 aa 	br	10 <compare>,#al
    f56c:	00 10 00 41 	add	r2,1
    f570:	0d 46 c9 00 	wl16	r8,0x3640
    f574:	0d 60 01 03 	wh16	r8,0x3
    f578:	10 40 01 08 	ld32	r8,r8
    f57c:	0d 47 15 28 	wl16	r9,0x38a8
    f580:	0d 60 01 23 	wh16	r9,0x3
    f584:	10 40 01 29 	ld32	r9,r9
    f588:	00 10 01 08 	add	r8,8
    f58c:	20 70 03 e2 	movepc	rret,8
    f590:	14 30 c2 a0 	br	10 <compare>,#al
    f594:	00 10 00 41 	add	r2,1
    f598:	0d 46 c9 04 	wl16	r8,0x3644
    f59c:	0d 60 01 03 	wh16	r8,0x3
    f5a0:	10 40 01 08 	ld32	r8,r8
    f5a4:	0d 47 15 2c 	wl16	r9,0x38ac
    f5a8:	0d 60 01 23 	wh16	r9,0x3
    f5ac:	10 40 01 29 	ld32	r9,r9
    f5b0:	00 10 01 10 	add	r8,16
    f5b4:	20 70 03 e2 	movepc	rret,8
    f5b8:	14 30 c2 96 	br	10 <compare>,#al
    f5bc:	00 10 00 41 	add	r2,1
    f5c0:	0d 46 c9 08 	wl16	r8,0x3648
    f5c4:	0d 60 01 03 	wh16	r8,0x3
    f5c8:	10 40 01 08 	ld32	r8,r8
    f5cc:	0d 47 15 30 	wl16	r9,0x38b0
    f5d0:	0d 60 01 23 	wh16	r9,0x3
    f5d4:	10 40 01 29 	ld32	r9,r9
    f5d8:	00 10 05 00 	add	r8,32
    f5dc:	20 70 03 e2 	movepc	rret,8
    f5e0:	14 30 c2 8c 	br	10 <compare>,#al
    f5e4:	00 10 00 41 	add	r2,1
    f5e8:	0d 46 c9 0c 	wl16	r8,0x364c
    f5ec:	0d 60 01 03 	wh16	r8,0x3
    f5f0:	10 40 01 08 	ld32	r8,r8
    f5f4:	0d 47 15 34 	wl16	r9,0x38b4
    f5f8:	0d 60 01 23 	wh16	r9,0x3
    f5fc:	10 40 01 29 	ld32	r9,r9
    f600:	00 10 09 00 	add	r8,64
    f604:	20 70 03 e2 	movepc	rret,8
    f608:	14 30 c2 82 	br	10 <compare>,#al
    f60c:	00 10 00 41 	add	r2,1
    f610:	0d 46 c9 10 	wl16	r8,0x3650
    f614:	0d 60 01 03 	wh16	r8,0x3
    f618:	10 40 01 08 	ld32	r8,r8
    f61c:	0d 47 15 38 	wl16	r9,0x38b8
    f620:	0d 60 01 23 	wh16	r9,0x3
    f624:	10 40 01 29 	ld32	r9,r9
    f628:	00 10 11 00 	add	r8,128
    f62c:	20 70 03 e2 	movepc	rret,8
    f630:	14 30 c2 78 	br	10 <compare>,#al
    f634:	00 10 00 41 	add	r2,1
    f638:	0d 46 c9 14 	wl16	r8,0x3654
    f63c:	0d 60 01 03 	wh16	r8,0x3
    f640:	10 40 01 08 	ld32	r8,r8
    f644:	0d 47 15 3c 	wl16	r9,0x38bc
    f648:	0d 60 01 23 	wh16	r9,0x3
    f64c:	10 40 01 29 	ld32	r9,r9
    f650:	00 10 21 00 	add	r8,256
    f654:	20 70 03 e2 	movepc	rret,8
    f658:	14 30 c2 6e 	br	10 <compare>,#al
    f65c:	00 10 00 41 	add	r2,1
    f660:	0d 46 c9 18 	wl16	r8,0x3658
    f664:	0d 60 01 03 	wh16	r8,0x3
    f668:	10 40 01 08 	ld32	r8,r8
    f66c:	0d 47 19 20 	wl16	r9,0x38c0
    f670:	0d 60 01 23 	wh16	r9,0x3
    f674:	10 40 01 29 	ld32	r9,r9
    f678:	00 10 41 00 	add	r8,512
    f67c:	20 70 03 e2 	movepc	rret,8
    f680:	14 30 c2 64 	br	10 <compare>,#al
    f684:	00 10 00 41 	add	r2,1
    f688:	0d 46 c9 1c 	wl16	r8,0x365c
    f68c:	0d 60 01 03 	wh16	r8,0x3
    f690:	10 40 01 08 	ld32	r8,r8
    f694:	0d 47 19 24 	wl16	r9,0x38c4
    f698:	0d 60 01 23 	wh16	r9,0x3
    f69c:	10 40 01 29 	ld32	r9,r9
    f6a0:	00 10 81 00 	add	r8,-1024
    f6a4:	20 70 03 e2 	movepc	rret,8
    f6a8:	14 30 c2 5a 	br	10 <compare>,#al
    f6ac:	00 10 00 41 	add	r2,1
    f6b0:	0d 46 cd 00 	wl16	r8,0x3660
    f6b4:	0d 60 01 03 	wh16	r8,0x3
    f6b8:	10 40 01 08 	ld32	r8,r8
    f6bc:	0d 47 19 28 	wl16	r9,0x38c8
    f6c0:	0d 60 01 23 	wh16	r9,0x3
    f6c4:	10 40 01 29 	ld32	r9,r9
    f6c8:	00 10 01 00 	add	r8,0
    f6cc:	20 70 03 e2 	movepc	rret,8
    f6d0:	14 30 c2 50 	br	10 <compare>,#al
    f6d4:	00 10 00 41 	add	r2,1
    f6d8:	0d 46 cd 04 	wl16	r8,0x3664
    f6dc:	0d 60 01 03 	wh16	r8,0x3
    f6e0:	10 40 01 08 	ld32	r8,r8
    f6e4:	0d 47 19 2c 	wl16	r9,0x38cc
    f6e8:	0d 60 01 23 	wh16	r9,0x3
    f6ec:	10 40 01 29 	ld32	r9,r9
    f6f0:	00 10 01 01 	add	r8,1
    f6f4:	20 70 03 e2 	movepc	rret,8
    f6f8:	14 30 c2 46 	br	10 <compare>,#al
    f6fc:	00 10 00 41 	add	r2,1
    f700:	0d 46 cd 08 	wl16	r8,0x3668
    f704:	0d 60 01 03 	wh16	r8,0x3
    f708:	10 40 01 08 	ld32	r8,r8
    f70c:	0d 47 19 30 	wl16	r9,0x38d0
    f710:	0d 60 01 23 	wh16	r9,0x3
    f714:	10 40 01 29 	ld32	r9,r9
    f718:	00 10 01 02 	add	r8,2
    f71c:	20 70 03 e2 	movepc	rret,8
    f720:	14 30 c2 3c 	br	10 <compare>,#al
    f724:	00 10 00 41 	add	r2,1
    f728:	0d 46 cd 0c 	wl16	r8,0x366c
    f72c:	0d 60 01 03 	wh16	r8,0x3
    f730:	10 40 01 08 	ld32	r8,r8
    f734:	0d 47 19 34 	wl16	r9,0x38d4
    f738:	0d 60 01 23 	wh16	r9,0x3
    f73c:	10 40 01 29 	ld32	r9,r9
    f740:	00 10 01 04 	add	r8,4
    f744:	20 70 03 e2 	movepc	rret,8
    f748:	14 30 c2 32 	br	10 <compare>,#al
    f74c:	00 10 00 41 	add	r2,1
    f750:	0d 46 cd 10 	wl16	r8,0x3670
    f754:	0d 60 01 03 	wh16	r8,0x3
    f758:	10 40 01 08 	ld32	r8,r8
    f75c:	0d 47 19 38 	wl16	r9,0x38d8
    f760:	0d 60 01 23 	wh16	r9,0x3
    f764:	10 40 01 29 	ld32	r9,r9
    f768:	00 10 01 08 	add	r8,8
    f76c:	20 70 03 e2 	movepc	rret,8
    f770:	14 30 c2 28 	br	10 <compare>,#al
    f774:	00 10 00 41 	add	r2,1
    f778:	0d 46 cd 14 	wl16	r8,0x3674
    f77c:	0d 60 01 03 	wh16	r8,0x3
    f780:	10 40 01 08 	ld32	r8,r8
    f784:	0d 47 19 3c 	wl16	r9,0x38dc
    f788:	0d 60 01 23 	wh16	r9,0x3
    f78c:	10 40 01 29 	ld32	r9,r9
    f790:	00 10 01 10 	add	r8,16
    f794:	20 70 03 e2 	movepc	rret,8
    f798:	14 30 c2 1e 	br	10 <compare>,#al
    f79c:	00 10 00 41 	add	r2,1
    f7a0:	0d 46 cd 18 	wl16	r8,0x3678
    f7a4:	0d 60 01 03 	wh16	r8,0x3
    f7a8:	10 40 01 08 	ld32	r8,r8
    f7ac:	0d 47 1d 20 	wl16	r9,0x38e0
    f7b0:	0d 60 01 23 	wh16	r9,0x3
    f7b4:	10 40 01 29 	ld32	r9,r9
    f7b8:	00 10 05 00 	add	r8,32
    f7bc:	20 70 03 e2 	movepc	rret,8
    f7c0:	14 30 c2 14 	br	10 <compare>,#al
    f7c4:	00 10 00 41 	add	r2,1
    f7c8:	0d 46 cd 1c 	wl16	r8,0x367c
    f7cc:	0d 60 01 03 	wh16	r8,0x3
    f7d0:	10 40 01 08 	ld32	r8,r8
    f7d4:	0d 47 1d 24 	wl16	r9,0x38e4
    f7d8:	0d 60 01 23 	wh16	r9,0x3
    f7dc:	10 40 01 29 	ld32	r9,r9
    f7e0:	00 10 09 00 	add	r8,64
    f7e4:	20 70 03 e2 	movepc	rret,8
    f7e8:	14 30 c2 0a 	br	10 <compare>,#al
    f7ec:	00 10 00 41 	add	r2,1
    f7f0:	0d 46 d1 00 	wl16	r8,0x3680
    f7f4:	0d 60 01 03 	wh16	r8,0x3
    f7f8:	10 40 01 08 	ld32	r8,r8
    f7fc:	0d 47 1d 28 	wl16	r9,0x38e8
    f800:	0d 60 01 23 	wh16	r9,0x3
    f804:	10 40 01 29 	ld32	r9,r9
    f808:	00 10 11 00 	add	r8,128
    f80c:	20 70 03 e2 	movepc	rret,8
    f810:	14 30 c2 00 	br	10 <compare>,#al
    f814:	00 10 00 41 	add	r2,1
    f818:	0d 46 d1 04 	wl16	r8,0x3684
    f81c:	0d 60 01 03 	wh16	r8,0x3
    f820:	10 40 01 08 	ld32	r8,r8
    f824:	0d 47 1d 2c 	wl16	r9,0x38ec
    f828:	0d 60 01 23 	wh16	r9,0x3
    f82c:	10 40 01 29 	ld32	r9,r9
    f830:	00 10 21 00 	add	r8,256
    f834:	20 70 03 e2 	movepc	rret,8
    f838:	14 30 c1 f6 	br	10 <compare>,#al
    f83c:	00 10 00 41 	add	r2,1
    f840:	0d 46 d1 08 	wl16	r8,0x3688
    f844:	0d 60 01 03 	wh16	r8,0x3
    f848:	10 40 01 08 	ld32	r8,r8
    f84c:	0d 47 1d 30 	wl16	r9,0x38f0
    f850:	0d 60 01 23 	wh16	r9,0x3
    f854:	10 40 01 29 	ld32	r9,r9
    f858:	00 10 41 00 	add	r8,512
    f85c:	20 70 03 e2 	movepc	rret,8
    f860:	14 30 c1 ec 	br	10 <compare>,#al
    f864:	00 10 00 41 	add	r2,1
    f868:	0d 46 d1 0c 	wl16	r8,0x368c
    f86c:	0d 60 01 03 	wh16	r8,0x3
    f870:	10 40 01 08 	ld32	r8,r8
    f874:	0d 47 1d 34 	wl16	r9,0x38f4
    f878:	0d 60 01 23 	wh16	r9,0x3
    f87c:	10 40 01 29 	ld32	r9,r9
    f880:	00 10 81 00 	add	r8,-1024
    f884:	20 70 03 e2 	movepc	rret,8
    f888:	14 30 c1 e2 	br	10 <compare>,#al
    f88c:	00 10 00 41 	add	r2,1
    f890:	0d 46 d1 10 	wl16	r8,0x3690
    f894:	0d 60 01 03 	wh16	r8,0x3
    f898:	10 40 01 08 	ld32	r8,r8
    f89c:	0d 47 1d 38 	wl16	r9,0x38f8
    f8a0:	0d 60 01 23 	wh16	r9,0x3
    f8a4:	10 40 01 29 	ld32	r9,r9
    f8a8:	00 10 01 00 	add	r8,0
    f8ac:	20 70 03 e2 	movepc	rret,8
    f8b0:	14 30 c1 d8 	br	10 <compare>,#al
    f8b4:	00 10 00 41 	add	r2,1
    f8b8:	0d 46 d1 14 	wl16	r8,0x3694
    f8bc:	0d 60 01 03 	wh16	r8,0x3
    f8c0:	10 40 01 08 	ld32	r8,r8
    f8c4:	0d 47 1d 3c 	wl16	r9,0x38fc
    f8c8:	0d 60 01 23 	wh16	r9,0x3
    f8cc:	10 40 01 29 	ld32	r9,r9
    f8d0:	00 10 01 01 	add	r8,1
    f8d4:	20 70 03 e2 	movepc	rret,8
    f8d8:	14 30 c1 ce 	br	10 <compare>,#al
    f8dc:	00 10 00 41 	add	r2,1
    f8e0:	0d 46 d1 18 	wl16	r8,0x3698
    f8e4:	0d 60 01 03 	wh16	r8,0x3
    f8e8:	10 40 01 08 	ld32	r8,r8
    f8ec:	0d 47 21 20 	wl16	r9,0x3900
    f8f0:	0d 60 01 23 	wh16	r9,0x3
    f8f4:	10 40 01 29 	ld32	r9,r9
    f8f8:	00 10 01 02 	add	r8,2
    f8fc:	20 70 03 e2 	movepc	rret,8
    f900:	14 30 c1 c4 	br	10 <compare>,#al
    f904:	00 10 00 41 	add	r2,1
    f908:	0d 46 d1 1c 	wl16	r8,0x369c
    f90c:	0d 60 01 03 	wh16	r8,0x3
    f910:	10 40 01 08 	ld32	r8,r8
    f914:	0d 47 21 24 	wl16	r9,0x3904
    f918:	0d 60 01 23 	wh16	r9,0x3
    f91c:	10 40 01 29 	ld32	r9,r9
    f920:	00 10 01 04 	add	r8,4
    f924:	20 70 03 e2 	movepc	rret,8
    f928:	14 30 c1 ba 	br	10 <compare>,#al
    f92c:	00 10 00 41 	add	r2,1
    f930:	0d 46 d5 00 	wl16	r8,0x36a0
    f934:	0d 60 01 03 	wh16	r8,0x3
    f938:	10 40 01 08 	ld32	r8,r8
    f93c:	0d 47 21 28 	wl16	r9,0x3908
    f940:	0d 60 01 23 	wh16	r9,0x3
    f944:	10 40 01 29 	ld32	r9,r9
    f948:	00 10 01 08 	add	r8,8
    f94c:	20 70 03 e2 	movepc	rret,8
    f950:	14 30 c1 b0 	br	10 <compare>,#al
    f954:	00 10 00 41 	add	r2,1
    f958:	0d 46 d5 04 	wl16	r8,0x36a4
    f95c:	0d 60 01 03 	wh16	r8,0x3
    f960:	10 40 01 08 	ld32	r8,r8
    f964:	0d 47 21 2c 	wl16	r9,0x390c
    f968:	0d 60 01 23 	wh16	r9,0x3
    f96c:	10 40 01 29 	ld32	r9,r9
    f970:	00 10 01 10 	add	r8,16
    f974:	20 70 03 e2 	movepc	rret,8
    f978:	14 30 c1 a6 	br	10 <compare>,#al
    f97c:	00 10 00 41 	add	r2,1
    f980:	0d 46 d5 08 	wl16	r8,0x36a8
    f984:	0d 60 01 03 	wh16	r8,0x3
    f988:	10 40 01 08 	ld32	r8,r8
    f98c:	0d 47 21 30 	wl16	r9,0x3910
    f990:	0d 60 01 23 	wh16	r9,0x3
    f994:	10 40 01 29 	ld32	r9,r9
    f998:	00 10 05 00 	add	r8,32
    f99c:	20 70 03 e2 	movepc	rret,8
    f9a0:	14 30 c1 9c 	br	10 <compare>,#al
    f9a4:	00 10 00 41 	add	r2,1
    f9a8:	0d 46 d5 0c 	wl16	r8,0x36ac
    f9ac:	0d 60 01 03 	wh16	r8,0x3
    f9b0:	10 40 01 08 	ld32	r8,r8
    f9b4:	0d 47 21 34 	wl16	r9,0x3914
    f9b8:	0d 60 01 23 	wh16	r9,0x3
    f9bc:	10 40 01 29 	ld32	r9,r9
    f9c0:	00 10 09 00 	add	r8,64
    f9c4:	20 70 03 e2 	movepc	rret,8
    f9c8:	14 30 c1 92 	br	10 <compare>,#al
    f9cc:	00 10 00 41 	add	r2,1
    f9d0:	0d 46 d5 10 	wl16	r8,0x36b0
    f9d4:	0d 60 01 03 	wh16	r8,0x3
    f9d8:	10 40 01 08 	ld32	r8,r8
    f9dc:	0d 47 21 38 	wl16	r9,0x3918
    f9e0:	0d 60 01 23 	wh16	r9,0x3
    f9e4:	10 40 01 29 	ld32	r9,r9
    f9e8:	00 10 11 00 	add	r8,128
    f9ec:	20 70 03 e2 	movepc	rret,8
    f9f0:	14 30 c1 88 	br	10 <compare>,#al
    f9f4:	00 10 00 41 	add	r2,1
    f9f8:	0d 46 d5 14 	wl16	r8,0x36b4
    f9fc:	0d 60 01 03 	wh16	r8,0x3
    fa00:	10 40 01 08 	ld32	r8,r8
    fa04:	0d 47 21 3c 	wl16	r9,0x391c
    fa08:	0d 60 01 23 	wh16	r9,0x3
    fa0c:	10 40 01 29 	ld32	r9,r9
    fa10:	00 10 21 00 	add	r8,256
    fa14:	20 70 03 e2 	movepc	rret,8
    fa18:	14 30 c1 7e 	br	10 <compare>,#al
    fa1c:	00 10 00 41 	add	r2,1
    fa20:	0d 46 d5 18 	wl16	r8,0x36b8
    fa24:	0d 60 01 03 	wh16	r8,0x3
    fa28:	10 40 01 08 	ld32	r8,r8
    fa2c:	0d 47 25 20 	wl16	r9,0x3920
    fa30:	0d 60 01 23 	wh16	r9,0x3
    fa34:	10 40 01 29 	ld32	r9,r9
    fa38:	00 10 41 00 	add	r8,512
    fa3c:	20 70 03 e2 	movepc	rret,8
    fa40:	14 30 c1 74 	br	10 <compare>,#al
    fa44:	00 10 00 41 	add	r2,1
    fa48:	0d 46 d5 1c 	wl16	r8,0x36bc
    fa4c:	0d 60 01 03 	wh16	r8,0x3
    fa50:	10 40 01 08 	ld32	r8,r8
    fa54:	0d 47 25 24 	wl16	r9,0x3924
    fa58:	0d 60 01 23 	wh16	r9,0x3
    fa5c:	10 40 01 29 	ld32	r9,r9
    fa60:	00 10 81 00 	add	r8,-1024
    fa64:	20 70 03 e2 	movepc	rret,8
    fa68:	14 30 c1 6a 	br	10 <compare>,#al
    fa6c:	00 10 00 41 	add	r2,1
    fa70:	0d 46 d9 00 	wl16	r8,0x36c0
    fa74:	0d 60 01 03 	wh16	r8,0x3
    fa78:	10 40 01 08 	ld32	r8,r8
    fa7c:	0d 47 25 28 	wl16	r9,0x3928
    fa80:	0d 60 01 23 	wh16	r9,0x3
    fa84:	10 40 01 29 	ld32	r9,r9
    fa88:	00 10 01 03 	add	r8,3
    fa8c:	20 70 03 e2 	movepc	rret,8
    fa90:	14 30 c1 60 	br	10 <compare>,#al
    fa94:	00 10 00 41 	add	r2,1
    fa98:	0d 46 d9 04 	wl16	r8,0x36c4
    fa9c:	0d 60 01 03 	wh16	r8,0x3
    faa0:	10 40 01 08 	ld32	r8,r8
    faa4:	0d 47 25 2c 	wl16	r9,0x392c
    faa8:	0d 60 01 23 	wh16	r9,0x3
    faac:	10 40 01 29 	ld32	r9,r9
    fab0:	00 10 01 07 	add	r8,7
    fab4:	20 70 03 e2 	movepc	rret,8
    fab8:	14 30 c1 56 	br	10 <compare>,#al
    fabc:	00 10 00 41 	add	r2,1
    fac0:	0d 46 d9 08 	wl16	r8,0x36c8
    fac4:	0d 60 01 03 	wh16	r8,0x3
    fac8:	10 40 01 08 	ld32	r8,r8
    facc:	0d 47 25 30 	wl16	r9,0x3930
    fad0:	0d 60 01 23 	wh16	r9,0x3
    fad4:	10 40 01 29 	ld32	r9,r9
    fad8:	00 10 01 0f 	add	r8,15
    fadc:	20 70 03 e2 	movepc	rret,8
    fae0:	14 30 c1 4c 	br	10 <compare>,#al
    fae4:	00 10 00 41 	add	r2,1
    fae8:	0d 46 d9 0c 	wl16	r8,0x36cc
    faec:	0d 60 01 03 	wh16	r8,0x3
    faf0:	10 40 01 08 	ld32	r8,r8
    faf4:	0d 47 25 34 	wl16	r9,0x3934
    faf8:	0d 60 01 23 	wh16	r9,0x3
    fafc:	10 40 01 29 	ld32	r9,r9
    fb00:	00 10 01 1f 	add	r8,31
    fb04:	20 70 03 e2 	movepc	rret,8
    fb08:	14 30 c1 42 	br	10 <compare>,#al
    fb0c:	00 10 00 41 	add	r2,1
    fb10:	0d 46 d9 10 	wl16	r8,0x36d0
    fb14:	0d 60 01 03 	wh16	r8,0x3
    fb18:	10 40 01 08 	ld32	r8,r8
    fb1c:	0d 47 25 38 	wl16	r9,0x3938
    fb20:	0d 60 01 23 	wh16	r9,0x3
    fb24:	10 40 01 29 	ld32	r9,r9
    fb28:	00 10 05 1f 	add	r8,63
    fb2c:	20 70 03 e2 	movepc	rret,8
    fb30:	14 30 c1 38 	br	10 <compare>,#al
    fb34:	00 10 00 41 	add	r2,1
    fb38:	0d 46 d9 14 	wl16	r8,0x36d4
    fb3c:	0d 60 01 03 	wh16	r8,0x3
    fb40:	10 40 01 08 	ld32	r8,r8
    fb44:	0d 47 25 3c 	wl16	r9,0x393c
    fb48:	0d 60 01 23 	wh16	r9,0x3
    fb4c:	10 40 01 29 	ld32	r9,r9
    fb50:	00 10 0d 1f 	add	r8,127
    fb54:	20 70 03 e2 	movepc	rret,8
    fb58:	14 30 c1 2e 	br	10 <compare>,#al
    fb5c:	00 10 00 41 	add	r2,1
    fb60:	0d 46 d9 18 	wl16	r8,0x36d8
    fb64:	0d 60 01 03 	wh16	r8,0x3
    fb68:	10 40 01 08 	ld32	r8,r8
    fb6c:	0d 47 29 20 	wl16	r9,0x3940
    fb70:	0d 60 01 23 	wh16	r9,0x3
    fb74:	10 40 01 29 	ld32	r9,r9
    fb78:	00 10 1d 1f 	add	r8,255
    fb7c:	20 70 03 e2 	movepc	rret,8
    fb80:	14 30 c1 24 	br	10 <compare>,#al
    fb84:	00 10 00 41 	add	r2,1
    fb88:	0d 46 d9 1c 	wl16	r8,0x36dc
    fb8c:	0d 60 01 03 	wh16	r8,0x3
    fb90:	10 40 01 08 	ld32	r8,r8
    fb94:	0d 47 29 24 	wl16	r9,0x3944
    fb98:	0d 60 01 23 	wh16	r9,0x3
    fb9c:	10 40 01 29 	ld32	r9,r9
    fba0:	00 10 3d 1f 	add	r8,511
    fba4:	20 70 03 e2 	movepc	rret,8
    fba8:	14 30 c1 1a 	br	10 <compare>,#al
    fbac:	00 10 00 41 	add	r2,1
    fbb0:	0d 46 dd 00 	wl16	r8,0x36e0
    fbb4:	0d 60 01 03 	wh16	r8,0x3
    fbb8:	10 40 01 08 	ld32	r8,r8
    fbbc:	0d 47 29 28 	wl16	r9,0x3948
    fbc0:	0d 60 01 23 	wh16	r9,0x3
    fbc4:	10 40 01 29 	ld32	r9,r9
    fbc8:	00 10 7d 1f 	add	r8,1023
    fbcc:	20 70 03 e2 	movepc	rret,8
    fbd0:	14 30 c1 10 	br	10 <compare>,#al
    fbd4:	00 10 00 41 	add	r2,1
    fbd8:	0d 46 dd 04 	wl16	r8,0x36e4
    fbdc:	0d 60 01 03 	wh16	r8,0x3
    fbe0:	10 40 01 08 	ld32	r8,r8
    fbe4:	0d 47 29 2c 	wl16	r9,0x394c
    fbe8:	0d 60 01 23 	wh16	r9,0x3
    fbec:	10 40 01 29 	ld32	r9,r9
    fbf0:	00 10 fd 1f 	add	r8,-1
    fbf4:	20 70 03 e2 	movepc	rret,8
    fbf8:	14 30 c1 06 	br	10 <compare>,#al
    fbfc:	00 10 00 41 	add	r2,1
    fc00:	14 30 c1 16 	br	58 <finish>,#al

セクション .data の逆アセンブル:

00020000 <CHECK_FLAG>:
   20000:	00 00 00 01 	add	r0,r1

00020004 <CHECK_FINISH>:
   20004:	00 00 00 00 	add	r0,r0

00020008 <ERROR_TYPE>:
   20008:	00 00 00 00 	add	r0,r0

0002000c <ERROR_NUMBER>:
   2000c:	00 00 00 00 	add	r0,r0

00020010 <ERROR_RESULT>:
   20010:	00 00 00 00 	add	r0,r0

00020014 <ERROR_EXPECT>:
   20014:	00 00 00 00 	add	r0,r0

セクション .testdata の逆アセンブル:

00030000 <T_SRC0_0>:
   30000:	00 00 00 00 	add	r0,r0

00030004 <T_SRC0_1>:
   30004:	00 00 00 00 	add	r0,r0

00030008 <T_SRC0_2>:
   30008:	00 00 00 00 	add	r0,r0

0003000c <T_SRC0_3>:
   3000c:	00 00 00 00 	add	r0,r0

00030010 <T_SRC0_4>:
   30010:	00 00 00 00 	add	r0,r0

00030014 <T_SRC0_5>:
   30014:	00 00 00 00 	add	r0,r0

00030018 <T_SRC0_6>:
   30018:	00 00 00 00 	add	r0,r0

0003001c <T_SRC0_7>:
   3001c:	00 00 00 00 	add	r0,r0

00030020 <T_SRC0_8>:
   30020:	00 00 00 00 	add	r0,r0

00030024 <T_SRC0_9>:
   30024:	00 00 00 00 	add	r0,r0

00030028 <T_SRC0_10>:
   30028:	00 00 00 00 	add	r0,r0

0003002c <T_SRC0_11>:
   3002c:	00 00 00 00 	add	r0,r0

00030030 <T_SRC0_12>:
   30030:	00 00 00 00 	add	r0,r0

00030034 <T_SRC0_13>:
   30034:	00 00 00 00 	add	r0,r0

00030038 <T_SRC0_14>:
   30038:	00 00 00 00 	add	r0,r0

0003003c <T_SRC0_15>:
   3003c:	00 00 00 00 	add	r0,r0

00030040 <T_SRC0_16>:
   30040:	00 00 00 00 	add	r0,r0

00030044 <T_SRC0_17>:
   30044:	00 00 00 00 	add	r0,r0

00030048 <T_SRC0_18>:
   30048:	00 00 00 00 	add	r0,r0

0003004c <T_SRC0_19>:
   3004c:	00 00 00 00 	add	r0,r0

00030050 <T_SRC0_20>:
   30050:	00 00 00 00 	add	r0,r0

00030054 <T_SRC0_21>:
   30054:	00 00 00 00 	add	r0,r0

00030058 <T_SRC0_22>:
   30058:	00 00 00 00 	add	r0,r0

0003005c <T_SRC0_23>:
   3005c:	00 00 00 00 	add	r0,r0

00030060 <T_SRC0_24>:
   30060:	00 00 00 00 	add	r0,r0

00030064 <T_SRC0_25>:
   30064:	00 00 00 00 	add	r0,r0

00030068 <T_SRC0_26>:
   30068:	00 00 00 00 	add	r0,r0

0003006c <T_SRC0_27>:
   3006c:	00 00 00 00 	add	r0,r0

00030070 <T_SRC0_28>:
   30070:	00 00 00 00 	add	r0,r0

00030074 <T_SRC0_29>:
   30074:	00 00 00 00 	add	r0,r0

00030078 <T_SRC0_30>:
   30078:	00 00 00 00 	add	r0,r0

0003007c <T_SRC0_31>:
   3007c:	00 00 00 00 	add	r0,r0

00030080 <T_SRC0_32>:
   30080:	00 00 00 00 	add	r0,r0

00030084 <T_SRC0_33>:
   30084:	00 00 00 01 	add	r0,r1

00030088 <T_SRC0_34>:
   30088:	00 00 00 01 	add	r0,r1

0003008c <T_SRC0_35>:
   3008c:	00 00 00 01 	add	r0,r1

00030090 <T_SRC0_36>:
   30090:	00 00 00 01 	add	r0,r1

00030094 <T_SRC0_37>:
   30094:	00 00 00 01 	add	r0,r1

00030098 <T_SRC0_38>:
   30098:	00 00 00 01 	add	r0,r1

0003009c <T_SRC0_39>:
   3009c:	00 00 00 01 	add	r0,r1

000300a0 <T_SRC0_40>:
   300a0:	00 00 00 01 	add	r0,r1

000300a4 <T_SRC0_41>:
   300a4:	00 00 00 01 	add	r0,r1

000300a8 <T_SRC0_42>:
   300a8:	00 00 00 01 	add	r0,r1

000300ac <T_SRC0_43>:
   300ac:	00 00 00 01 	add	r0,r1

000300b0 <T_SRC0_44>:
   300b0:	00 00 00 01 	add	r0,r1

000300b4 <T_SRC0_45>:
   300b4:	00 00 00 01 	add	r0,r1

000300b8 <T_SRC0_46>:
   300b8:	00 00 00 01 	add	r0,r1

000300bc <T_SRC0_47>:
   300bc:	00 00 00 01 	add	r0,r1

000300c0 <T_SRC0_48>:
   300c0:	00 00 00 01 	add	r0,r1

000300c4 <T_SRC0_49>:
   300c4:	00 00 00 01 	add	r0,r1

000300c8 <T_SRC0_50>:
   300c8:	00 00 00 01 	add	r0,r1

000300cc <T_SRC0_51>:
   300cc:	00 00 00 01 	add	r0,r1

000300d0 <T_SRC0_52>:
   300d0:	00 00 00 01 	add	r0,r1

000300d4 <T_SRC0_53>:
   300d4:	00 00 00 01 	add	r0,r1

000300d8 <T_SRC0_54>:
   300d8:	00 00 00 01 	add	r0,r1

000300dc <T_SRC0_55>:
   300dc:	00 00 00 01 	add	r0,r1

000300e0 <T_SRC0_56>:
   300e0:	00 00 00 01 	add	r0,r1

000300e4 <T_SRC0_57>:
   300e4:	00 00 00 01 	add	r0,r1

000300e8 <T_SRC0_58>:
   300e8:	00 00 00 01 	add	r0,r1

000300ec <T_SRC0_59>:
   300ec:	00 00 00 01 	add	r0,r1

000300f0 <T_SRC0_60>:
   300f0:	00 00 00 01 	add	r0,r1

000300f4 <T_SRC0_61>:
   300f4:	00 00 00 01 	add	r0,r1

000300f8 <T_SRC0_62>:
   300f8:	00 00 00 01 	add	r0,r1

000300fc <T_SRC0_63>:
   300fc:	00 00 00 01 	add	r0,r1

00030100 <T_SRC0_64>:
   30100:	00 00 00 01 	add	r0,r1

00030104 <T_SRC0_65>:
   30104:	00 00 00 01 	add	r0,r1

00030108 <T_SRC0_66>:
   30108:	00 00 00 02 	add	r0,r2

0003010c <T_SRC0_67>:
   3010c:	00 00 00 02 	add	r0,r2

00030110 <T_SRC0_68>:
   30110:	00 00 00 02 	add	r0,r2

00030114 <T_SRC0_69>:
   30114:	00 00 00 02 	add	r0,r2

00030118 <T_SRC0_70>:
   30118:	00 00 00 02 	add	r0,r2

0003011c <T_SRC0_71>:
   3011c:	00 00 00 02 	add	r0,r2

00030120 <T_SRC0_72>:
   30120:	00 00 00 02 	add	r0,r2

00030124 <T_SRC0_73>:
   30124:	00 00 00 02 	add	r0,r2

00030128 <T_SRC0_74>:
   30128:	00 00 00 02 	add	r0,r2

0003012c <T_SRC0_75>:
   3012c:	00 00 00 02 	add	r0,r2

00030130 <T_SRC0_76>:
   30130:	00 00 00 02 	add	r0,r2

00030134 <T_SRC0_77>:
   30134:	00 00 00 02 	add	r0,r2

00030138 <T_SRC0_78>:
   30138:	00 00 00 02 	add	r0,r2

0003013c <T_SRC0_79>:
   3013c:	00 00 00 02 	add	r0,r2

00030140 <T_SRC0_80>:
   30140:	00 00 00 02 	add	r0,r2

00030144 <T_SRC0_81>:
   30144:	00 00 00 02 	add	r0,r2

00030148 <T_SRC0_82>:
   30148:	00 00 00 02 	add	r0,r2

0003014c <T_SRC0_83>:
   3014c:	00 00 00 02 	add	r0,r2

00030150 <T_SRC0_84>:
   30150:	00 00 00 02 	add	r0,r2

00030154 <T_SRC0_85>:
   30154:	00 00 00 02 	add	r0,r2

00030158 <T_SRC0_86>:
   30158:	00 00 00 02 	add	r0,r2

0003015c <T_SRC0_87>:
   3015c:	00 00 00 02 	add	r0,r2

00030160 <T_SRC0_88>:
   30160:	00 00 00 02 	add	r0,r2

00030164 <T_SRC0_89>:
   30164:	00 00 00 02 	add	r0,r2

00030168 <T_SRC0_90>:
   30168:	00 00 00 02 	add	r0,r2

0003016c <T_SRC0_91>:
   3016c:	00 00 00 02 	add	r0,r2

00030170 <T_SRC0_92>:
   30170:	00 00 00 02 	add	r0,r2

00030174 <T_SRC0_93>:
   30174:	00 00 00 02 	add	r0,r2

00030178 <T_SRC0_94>:
   30178:	00 00 00 02 	add	r0,r2

0003017c <T_SRC0_95>:
   3017c:	00 00 00 02 	add	r0,r2

00030180 <T_SRC0_96>:
   30180:	00 00 00 02 	add	r0,r2

00030184 <T_SRC0_97>:
   30184:	00 00 00 02 	add	r0,r2

00030188 <T_SRC0_98>:
   30188:	00 00 00 02 	add	r0,r2

0003018c <T_SRC0_99>:
   3018c:	00 00 00 04 	add	r0,r4

00030190 <T_SRC0_100>:
   30190:	00 00 00 04 	add	r0,r4

00030194 <T_SRC0_101>:
   30194:	00 00 00 04 	add	r0,r4

00030198 <T_SRC0_102>:
   30198:	00 00 00 04 	add	r0,r4

0003019c <T_SRC0_103>:
   3019c:	00 00 00 04 	add	r0,r4

000301a0 <T_SRC0_104>:
   301a0:	00 00 00 04 	add	r0,r4

000301a4 <T_SRC0_105>:
   301a4:	00 00 00 04 	add	r0,r4

000301a8 <T_SRC0_106>:
   301a8:	00 00 00 04 	add	r0,r4

000301ac <T_SRC0_107>:
   301ac:	00 00 00 04 	add	r0,r4

000301b0 <T_SRC0_108>:
   301b0:	00 00 00 04 	add	r0,r4

000301b4 <T_SRC0_109>:
   301b4:	00 00 00 04 	add	r0,r4

000301b8 <T_SRC0_110>:
   301b8:	00 00 00 04 	add	r0,r4

000301bc <T_SRC0_111>:
   301bc:	00 00 00 04 	add	r0,r4

000301c0 <T_SRC0_112>:
   301c0:	00 00 00 04 	add	r0,r4

000301c4 <T_SRC0_113>:
   301c4:	00 00 00 04 	add	r0,r4

000301c8 <T_SRC0_114>:
   301c8:	00 00 00 04 	add	r0,r4

000301cc <T_SRC0_115>:
   301cc:	00 00 00 04 	add	r0,r4

000301d0 <T_SRC0_116>:
   301d0:	00 00 00 04 	add	r0,r4

000301d4 <T_SRC0_117>:
   301d4:	00 00 00 04 	add	r0,r4

000301d8 <T_SRC0_118>:
   301d8:	00 00 00 04 	add	r0,r4

000301dc <T_SRC0_119>:
   301dc:	00 00 00 04 	add	r0,r4

000301e0 <T_SRC0_120>:
   301e0:	00 00 00 04 	add	r0,r4

000301e4 <T_SRC0_121>:
   301e4:	00 00 00 04 	add	r0,r4

000301e8 <T_SRC0_122>:
   301e8:	00 00 00 04 	add	r0,r4

000301ec <T_SRC0_123>:
   301ec:	00 00 00 04 	add	r0,r4

000301f0 <T_SRC0_124>:
   301f0:	00 00 00 04 	add	r0,r4

000301f4 <T_SRC0_125>:
   301f4:	00 00 00 04 	add	r0,r4

000301f8 <T_SRC0_126>:
   301f8:	00 00 00 04 	add	r0,r4

000301fc <T_SRC0_127>:
   301fc:	00 00 00 04 	add	r0,r4

00030200 <T_SRC0_128>:
   30200:	00 00 00 04 	add	r0,r4

00030204 <T_SRC0_129>:
   30204:	00 00 00 04 	add	r0,r4

00030208 <T_SRC0_130>:
   30208:	00 00 00 04 	add	r0,r4

0003020c <T_SRC0_131>:
   3020c:	00 00 00 04 	add	r0,r4

00030210 <T_SRC0_132>:
   30210:	00 00 00 08 	add	r0,r8

00030214 <T_SRC0_133>:
   30214:	00 00 00 08 	add	r0,r8

00030218 <T_SRC0_134>:
   30218:	00 00 00 08 	add	r0,r8

0003021c <T_SRC0_135>:
   3021c:	00 00 00 08 	add	r0,r8

00030220 <T_SRC0_136>:
   30220:	00 00 00 08 	add	r0,r8

00030224 <T_SRC0_137>:
   30224:	00 00 00 08 	add	r0,r8

00030228 <T_SRC0_138>:
   30228:	00 00 00 08 	add	r0,r8

0003022c <T_SRC0_139>:
   3022c:	00 00 00 08 	add	r0,r8

00030230 <T_SRC0_140>:
   30230:	00 00 00 08 	add	r0,r8

00030234 <T_SRC0_141>:
   30234:	00 00 00 08 	add	r0,r8

00030238 <T_SRC0_142>:
   30238:	00 00 00 08 	add	r0,r8

0003023c <T_SRC0_143>:
   3023c:	00 00 00 08 	add	r0,r8

00030240 <T_SRC0_144>:
   30240:	00 00 00 08 	add	r0,r8

00030244 <T_SRC0_145>:
   30244:	00 00 00 08 	add	r0,r8

00030248 <T_SRC0_146>:
   30248:	00 00 00 08 	add	r0,r8

0003024c <T_SRC0_147>:
   3024c:	00 00 00 08 	add	r0,r8

00030250 <T_SRC0_148>:
   30250:	00 00 00 08 	add	r0,r8

00030254 <T_SRC0_149>:
   30254:	00 00 00 08 	add	r0,r8

00030258 <T_SRC0_150>:
   30258:	00 00 00 08 	add	r0,r8

0003025c <T_SRC0_151>:
   3025c:	00 00 00 08 	add	r0,r8

00030260 <T_SRC0_152>:
   30260:	00 00 00 08 	add	r0,r8

00030264 <T_SRC0_153>:
   30264:	00 00 00 08 	add	r0,r8

00030268 <T_SRC0_154>:
   30268:	00 00 00 08 	add	r0,r8

0003026c <T_SRC0_155>:
   3026c:	00 00 00 08 	add	r0,r8

00030270 <T_SRC0_156>:
   30270:	00 00 00 08 	add	r0,r8

00030274 <T_SRC0_157>:
   30274:	00 00 00 08 	add	r0,r8

00030278 <T_SRC0_158>:
   30278:	00 00 00 08 	add	r0,r8

0003027c <T_SRC0_159>:
   3027c:	00 00 00 08 	add	r0,r8

00030280 <T_SRC0_160>:
   30280:	00 00 00 08 	add	r0,r8

00030284 <T_SRC0_161>:
   30284:	00 00 00 08 	add	r0,r8

00030288 <T_SRC0_162>:
   30288:	00 00 00 08 	add	r0,r8

0003028c <T_SRC0_163>:
   3028c:	00 00 00 08 	add	r0,r8

00030290 <T_SRC0_164>:
   30290:	00 00 00 08 	add	r0,r8

00030294 <T_SRC0_165>:
   30294:	00 00 00 10 	add	r0,r16

00030298 <T_SRC0_166>:
   30298:	00 00 00 10 	add	r0,r16

0003029c <T_SRC0_167>:
   3029c:	00 00 00 10 	add	r0,r16

000302a0 <T_SRC0_168>:
   302a0:	00 00 00 10 	add	r0,r16

000302a4 <T_SRC0_169>:
   302a4:	00 00 00 10 	add	r0,r16

000302a8 <T_SRC0_170>:
   302a8:	00 00 00 10 	add	r0,r16

000302ac <T_SRC0_171>:
   302ac:	00 00 00 10 	add	r0,r16

000302b0 <T_SRC0_172>:
   302b0:	00 00 00 10 	add	r0,r16

000302b4 <T_SRC0_173>:
   302b4:	00 00 00 10 	add	r0,r16

000302b8 <T_SRC0_174>:
   302b8:	00 00 00 10 	add	r0,r16

000302bc <T_SRC0_175>:
   302bc:	00 00 00 10 	add	r0,r16

000302c0 <T_SRC0_176>:
   302c0:	00 00 00 10 	add	r0,r16

000302c4 <T_SRC0_177>:
   302c4:	00 00 00 10 	add	r0,r16

000302c8 <T_SRC0_178>:
   302c8:	00 00 00 10 	add	r0,r16

000302cc <T_SRC0_179>:
   302cc:	00 00 00 10 	add	r0,r16

000302d0 <T_SRC0_180>:
   302d0:	00 00 00 10 	add	r0,r16

000302d4 <T_SRC0_181>:
   302d4:	00 00 00 10 	add	r0,r16

000302d8 <T_SRC0_182>:
   302d8:	00 00 00 10 	add	r0,r16

000302dc <T_SRC0_183>:
   302dc:	00 00 00 10 	add	r0,r16

000302e0 <T_SRC0_184>:
   302e0:	00 00 00 10 	add	r0,r16

000302e4 <T_SRC0_185>:
   302e4:	00 00 00 10 	add	r0,r16

000302e8 <T_SRC0_186>:
   302e8:	00 00 00 10 	add	r0,r16

000302ec <T_SRC0_187>:
   302ec:	00 00 00 10 	add	r0,r16

000302f0 <T_SRC0_188>:
   302f0:	00 00 00 10 	add	r0,r16

000302f4 <T_SRC0_189>:
   302f4:	00 00 00 10 	add	r0,r16

000302f8 <T_SRC0_190>:
   302f8:	00 00 00 10 	add	r0,r16

000302fc <T_SRC0_191>:
   302fc:	00 00 00 10 	add	r0,r16

00030300 <T_SRC0_192>:
   30300:	00 00 00 10 	add	r0,r16

00030304 <T_SRC0_193>:
   30304:	00 00 00 10 	add	r0,r16

00030308 <T_SRC0_194>:
   30308:	00 00 00 10 	add	r0,r16

0003030c <T_SRC0_195>:
   3030c:	00 00 00 10 	add	r0,r16

00030310 <T_SRC0_196>:
   30310:	00 00 00 10 	add	r0,r16

00030314 <T_SRC0_197>:
   30314:	00 00 00 10 	add	r0,r16

00030318 <T_SRC0_198>:
   30318:	00 00 00 20 	add	r1,r0

0003031c <T_SRC0_199>:
   3031c:	00 00 00 20 	add	r1,r0

00030320 <T_SRC0_200>:
   30320:	00 00 00 20 	add	r1,r0

00030324 <T_SRC0_201>:
   30324:	00 00 00 20 	add	r1,r0

00030328 <T_SRC0_202>:
   30328:	00 00 00 20 	add	r1,r0

0003032c <T_SRC0_203>:
   3032c:	00 00 00 20 	add	r1,r0

00030330 <T_SRC0_204>:
   30330:	00 00 00 20 	add	r1,r0

00030334 <T_SRC0_205>:
   30334:	00 00 00 20 	add	r1,r0

00030338 <T_SRC0_206>:
   30338:	00 00 00 20 	add	r1,r0

0003033c <T_SRC0_207>:
   3033c:	00 00 00 20 	add	r1,r0

00030340 <T_SRC0_208>:
   30340:	00 00 00 20 	add	r1,r0

00030344 <T_SRC0_209>:
   30344:	00 00 00 20 	add	r1,r0

00030348 <T_SRC0_210>:
   30348:	00 00 00 20 	add	r1,r0

0003034c <T_SRC0_211>:
   3034c:	00 00 00 20 	add	r1,r0

00030350 <T_SRC0_212>:
   30350:	00 00 00 20 	add	r1,r0

00030354 <T_SRC0_213>:
   30354:	00 00 00 20 	add	r1,r0

00030358 <T_SRC0_214>:
   30358:	00 00 00 20 	add	r1,r0

0003035c <T_SRC0_215>:
   3035c:	00 00 00 20 	add	r1,r0

00030360 <T_SRC0_216>:
   30360:	00 00 00 20 	add	r1,r0

00030364 <T_SRC0_217>:
   30364:	00 00 00 20 	add	r1,r0

00030368 <T_SRC0_218>:
   30368:	00 00 00 20 	add	r1,r0

0003036c <T_SRC0_219>:
   3036c:	00 00 00 20 	add	r1,r0

00030370 <T_SRC0_220>:
   30370:	00 00 00 20 	add	r1,r0

00030374 <T_SRC0_221>:
   30374:	00 00 00 20 	add	r1,r0

00030378 <T_SRC0_222>:
   30378:	00 00 00 20 	add	r1,r0

0003037c <T_SRC0_223>:
   3037c:	00 00 00 20 	add	r1,r0

00030380 <T_SRC0_224>:
   30380:	00 00 00 20 	add	r1,r0

00030384 <T_SRC0_225>:
   30384:	00 00 00 20 	add	r1,r0

00030388 <T_SRC0_226>:
   30388:	00 00 00 20 	add	r1,r0

0003038c <T_SRC0_227>:
   3038c:	00 00 00 20 	add	r1,r0

00030390 <T_SRC0_228>:
   30390:	00 00 00 20 	add	r1,r0

00030394 <T_SRC0_229>:
   30394:	00 00 00 20 	add	r1,r0

00030398 <T_SRC0_230>:
   30398:	00 00 00 20 	add	r1,r0

0003039c <T_SRC0_231>:
   3039c:	00 00 00 40 	add	r2,r0

000303a0 <T_SRC0_232>:
   303a0:	00 00 00 40 	add	r2,r0

000303a4 <T_SRC0_233>:
   303a4:	00 00 00 40 	add	r2,r0

000303a8 <T_SRC0_234>:
   303a8:	00 00 00 40 	add	r2,r0

000303ac <T_SRC0_235>:
   303ac:	00 00 00 40 	add	r2,r0

000303b0 <T_SRC0_236>:
   303b0:	00 00 00 40 	add	r2,r0

000303b4 <T_SRC0_237>:
   303b4:	00 00 00 40 	add	r2,r0

000303b8 <T_SRC0_238>:
   303b8:	00 00 00 40 	add	r2,r0

000303bc <T_SRC0_239>:
   303bc:	00 00 00 40 	add	r2,r0

000303c0 <T_SRC0_240>:
   303c0:	00 00 00 40 	add	r2,r0

000303c4 <T_SRC0_241>:
   303c4:	00 00 00 40 	add	r2,r0

000303c8 <T_SRC0_242>:
   303c8:	00 00 00 40 	add	r2,r0

000303cc <T_SRC0_243>:
   303cc:	00 00 00 40 	add	r2,r0

000303d0 <T_SRC0_244>:
   303d0:	00 00 00 40 	add	r2,r0

000303d4 <T_SRC0_245>:
   303d4:	00 00 00 40 	add	r2,r0

000303d8 <T_SRC0_246>:
   303d8:	00 00 00 40 	add	r2,r0

000303dc <T_SRC0_247>:
   303dc:	00 00 00 40 	add	r2,r0

000303e0 <T_SRC0_248>:
   303e0:	00 00 00 40 	add	r2,r0

000303e4 <T_SRC0_249>:
   303e4:	00 00 00 40 	add	r2,r0

000303e8 <T_SRC0_250>:
   303e8:	00 00 00 40 	add	r2,r0

000303ec <T_SRC0_251>:
   303ec:	00 00 00 40 	add	r2,r0

000303f0 <T_SRC0_252>:
   303f0:	00 00 00 40 	add	r2,r0

000303f4 <T_SRC0_253>:
   303f4:	00 00 00 40 	add	r2,r0

000303f8 <T_SRC0_254>:
   303f8:	00 00 00 40 	add	r2,r0

000303fc <T_SRC0_255>:
   303fc:	00 00 00 40 	add	r2,r0

00030400 <T_SRC0_256>:
   30400:	00 00 00 40 	add	r2,r0

00030404 <T_SRC0_257>:
   30404:	00 00 00 40 	add	r2,r0

00030408 <T_SRC0_258>:
   30408:	00 00 00 40 	add	r2,r0

0003040c <T_SRC0_259>:
   3040c:	00 00 00 40 	add	r2,r0

00030410 <T_SRC0_260>:
   30410:	00 00 00 40 	add	r2,r0

00030414 <T_SRC0_261>:
   30414:	00 00 00 40 	add	r2,r0

00030418 <T_SRC0_262>:
   30418:	00 00 00 40 	add	r2,r0

0003041c <T_SRC0_263>:
   3041c:	00 00 00 40 	add	r2,r0

00030420 <T_SRC0_264>:
   30420:	00 00 00 80 	add	r4,r0

00030424 <T_SRC0_265>:
   30424:	00 00 00 80 	add	r4,r0

00030428 <T_SRC0_266>:
   30428:	00 00 00 80 	add	r4,r0

0003042c <T_SRC0_267>:
   3042c:	00 00 00 80 	add	r4,r0

00030430 <T_SRC0_268>:
   30430:	00 00 00 80 	add	r4,r0

00030434 <T_SRC0_269>:
   30434:	00 00 00 80 	add	r4,r0

00030438 <T_SRC0_270>:
   30438:	00 00 00 80 	add	r4,r0

0003043c <T_SRC0_271>:
   3043c:	00 00 00 80 	add	r4,r0

00030440 <T_SRC0_272>:
   30440:	00 00 00 80 	add	r4,r0

00030444 <T_SRC0_273>:
   30444:	00 00 00 80 	add	r4,r0

00030448 <T_SRC0_274>:
   30448:	00 00 00 80 	add	r4,r0

0003044c <T_SRC0_275>:
   3044c:	00 00 00 80 	add	r4,r0

00030450 <T_SRC0_276>:
   30450:	00 00 00 80 	add	r4,r0

00030454 <T_SRC0_277>:
   30454:	00 00 00 80 	add	r4,r0

00030458 <T_SRC0_278>:
   30458:	00 00 00 80 	add	r4,r0

0003045c <T_SRC0_279>:
   3045c:	00 00 00 80 	add	r4,r0

00030460 <T_SRC0_280>:
   30460:	00 00 00 80 	add	r4,r0

00030464 <T_SRC0_281>:
   30464:	00 00 00 80 	add	r4,r0

00030468 <T_SRC0_282>:
   30468:	00 00 00 80 	add	r4,r0

0003046c <T_SRC0_283>:
   3046c:	00 00 00 80 	add	r4,r0

00030470 <T_SRC0_284>:
   30470:	00 00 00 80 	add	r4,r0

00030474 <T_SRC0_285>:
   30474:	00 00 00 80 	add	r4,r0

00030478 <T_SRC0_286>:
   30478:	00 00 00 80 	add	r4,r0

0003047c <T_SRC0_287>:
   3047c:	00 00 00 80 	add	r4,r0

00030480 <T_SRC0_288>:
   30480:	00 00 00 80 	add	r4,r0

00030484 <T_SRC0_289>:
   30484:	00 00 00 80 	add	r4,r0

00030488 <T_SRC0_290>:
   30488:	00 00 00 80 	add	r4,r0

0003048c <T_SRC0_291>:
   3048c:	00 00 00 80 	add	r4,r0

00030490 <T_SRC0_292>:
   30490:	00 00 00 80 	add	r4,r0

00030494 <T_SRC0_293>:
   30494:	00 00 00 80 	add	r4,r0

00030498 <T_SRC0_294>:
   30498:	00 00 00 80 	add	r4,r0

0003049c <T_SRC0_295>:
   3049c:	00 00 00 80 	add	r4,r0

000304a0 <T_SRC0_296>:
   304a0:	00 00 00 80 	add	r4,r0

000304a4 <T_SRC0_297>:
   304a4:	00 00 01 00 	add	r8,r0

000304a8 <T_SRC0_298>:
   304a8:	00 00 01 00 	add	r8,r0

000304ac <T_SRC0_299>:
   304ac:	00 00 01 00 	add	r8,r0

000304b0 <T_SRC0_300>:
   304b0:	00 00 01 00 	add	r8,r0

000304b4 <T_SRC0_301>:
   304b4:	00 00 01 00 	add	r8,r0

000304b8 <T_SRC0_302>:
   304b8:	00 00 01 00 	add	r8,r0

000304bc <T_SRC0_303>:
   304bc:	00 00 01 00 	add	r8,r0

000304c0 <T_SRC0_304>:
   304c0:	00 00 01 00 	add	r8,r0

000304c4 <T_SRC0_305>:
   304c4:	00 00 01 00 	add	r8,r0

000304c8 <T_SRC0_306>:
   304c8:	00 00 01 00 	add	r8,r0

000304cc <T_SRC0_307>:
   304cc:	00 00 01 00 	add	r8,r0

000304d0 <T_SRC0_308>:
   304d0:	00 00 01 00 	add	r8,r0

000304d4 <T_SRC0_309>:
   304d4:	00 00 01 00 	add	r8,r0

000304d8 <T_SRC0_310>:
   304d8:	00 00 01 00 	add	r8,r0

000304dc <T_SRC0_311>:
   304dc:	00 00 01 00 	add	r8,r0

000304e0 <T_SRC0_312>:
   304e0:	00 00 01 00 	add	r8,r0

000304e4 <T_SRC0_313>:
   304e4:	00 00 01 00 	add	r8,r0

000304e8 <T_SRC0_314>:
   304e8:	00 00 01 00 	add	r8,r0

000304ec <T_SRC0_315>:
   304ec:	00 00 01 00 	add	r8,r0

000304f0 <T_SRC0_316>:
   304f0:	00 00 01 00 	add	r8,r0

000304f4 <T_SRC0_317>:
   304f4:	00 00 01 00 	add	r8,r0

000304f8 <T_SRC0_318>:
   304f8:	00 00 01 00 	add	r8,r0

000304fc <T_SRC0_319>:
   304fc:	00 00 01 00 	add	r8,r0

00030500 <T_SRC0_320>:
   30500:	00 00 01 00 	add	r8,r0

00030504 <T_SRC0_321>:
   30504:	00 00 01 00 	add	r8,r0

00030508 <T_SRC0_322>:
   30508:	00 00 01 00 	add	r8,r0

0003050c <T_SRC0_323>:
   3050c:	00 00 01 00 	add	r8,r0

00030510 <T_SRC0_324>:
   30510:	00 00 01 00 	add	r8,r0

00030514 <T_SRC0_325>:
   30514:	00 00 01 00 	add	r8,r0

00030518 <T_SRC0_326>:
   30518:	00 00 01 00 	add	r8,r0

0003051c <T_SRC0_327>:
   3051c:	00 00 01 00 	add	r8,r0

00030520 <T_SRC0_328>:
   30520:	00 00 01 00 	add	r8,r0

00030524 <T_SRC0_329>:
   30524:	00 00 01 00 	add	r8,r0

00030528 <T_SRC0_330>:
   30528:	00 00 02 00 	add	r16,r0

0003052c <T_SRC0_331>:
   3052c:	00 00 02 00 	add	r16,r0

00030530 <T_SRC0_332>:
   30530:	00 00 02 00 	add	r16,r0

00030534 <T_SRC0_333>:
   30534:	00 00 02 00 	add	r16,r0

00030538 <T_SRC0_334>:
   30538:	00 00 02 00 	add	r16,r0

0003053c <T_SRC0_335>:
   3053c:	00 00 02 00 	add	r16,r0

00030540 <T_SRC0_336>:
   30540:	00 00 02 00 	add	r16,r0

00030544 <T_SRC0_337>:
   30544:	00 00 02 00 	add	r16,r0

00030548 <T_SRC0_338>:
   30548:	00 00 02 00 	add	r16,r0

0003054c <T_SRC0_339>:
   3054c:	00 00 02 00 	add	r16,r0

00030550 <T_SRC0_340>:
   30550:	00 00 02 00 	add	r16,r0

00030554 <T_SRC0_341>:
   30554:	00 00 02 00 	add	r16,r0

00030558 <T_SRC0_342>:
   30558:	00 00 02 00 	add	r16,r0

0003055c <T_SRC0_343>:
   3055c:	00 00 02 00 	add	r16,r0

00030560 <T_SRC0_344>:
   30560:	00 00 02 00 	add	r16,r0

00030564 <T_SRC0_345>:
   30564:	00 00 02 00 	add	r16,r0

00030568 <T_SRC0_346>:
   30568:	00 00 02 00 	add	r16,r0

0003056c <T_SRC0_347>:
   3056c:	00 00 02 00 	add	r16,r0

00030570 <T_SRC0_348>:
   30570:	00 00 02 00 	add	r16,r0

00030574 <T_SRC0_349>:
   30574:	00 00 02 00 	add	r16,r0

00030578 <T_SRC0_350>:
   30578:	00 00 02 00 	add	r16,r0

0003057c <T_SRC0_351>:
   3057c:	00 00 02 00 	add	r16,r0

00030580 <T_SRC0_352>:
   30580:	00 00 02 00 	add	r16,r0

00030584 <T_SRC0_353>:
   30584:	00 00 02 00 	add	r16,r0

00030588 <T_SRC0_354>:
   30588:	00 00 02 00 	add	r16,r0

0003058c <T_SRC0_355>:
   3058c:	00 00 02 00 	add	r16,r0

00030590 <T_SRC0_356>:
   30590:	00 00 02 00 	add	r16,r0

00030594 <T_SRC0_357>:
   30594:	00 00 02 00 	add	r16,r0

00030598 <T_SRC0_358>:
   30598:	00 00 02 00 	add	r16,r0

0003059c <T_SRC0_359>:
   3059c:	00 00 02 00 	add	r16,r0

000305a0 <T_SRC0_360>:
   305a0:	00 00 02 00 	add	r16,r0

000305a4 <T_SRC0_361>:
   305a4:	00 00 02 00 	add	r16,r0

000305a8 <T_SRC0_362>:
   305a8:	00 00 02 00 	add	r16,r0

000305ac <T_SRC0_363>:
   305ac:	00 00 04 00 	*unknown*

000305b0 <T_SRC0_364>:
   305b0:	00 00 04 00 	*unknown*

000305b4 <T_SRC0_365>:
   305b4:	00 00 04 00 	*unknown*

000305b8 <T_SRC0_366>:
   305b8:	00 00 04 00 	*unknown*

000305bc <T_SRC0_367>:
   305bc:	00 00 04 00 	*unknown*

000305c0 <T_SRC0_368>:
   305c0:	00 00 04 00 	*unknown*

000305c4 <T_SRC0_369>:
   305c4:	00 00 04 00 	*unknown*

000305c8 <T_SRC0_370>:
   305c8:	00 00 04 00 	*unknown*

000305cc <T_SRC0_371>:
   305cc:	00 00 04 00 	*unknown*

000305d0 <T_SRC0_372>:
   305d0:	00 00 04 00 	*unknown*

000305d4 <T_SRC0_373>:
   305d4:	00 00 04 00 	*unknown*

000305d8 <T_SRC0_374>:
   305d8:	00 00 04 00 	*unknown*

000305dc <T_SRC0_375>:
   305dc:	00 00 04 00 	*unknown*

000305e0 <T_SRC0_376>:
   305e0:	00 00 04 00 	*unknown*

000305e4 <T_SRC0_377>:
   305e4:	00 00 04 00 	*unknown*

000305e8 <T_SRC0_378>:
   305e8:	00 00 04 00 	*unknown*

000305ec <T_SRC0_379>:
   305ec:	00 00 04 00 	*unknown*

000305f0 <T_SRC0_380>:
   305f0:	00 00 04 00 	*unknown*

000305f4 <T_SRC0_381>:
   305f4:	00 00 04 00 	*unknown*

000305f8 <T_SRC0_382>:
   305f8:	00 00 04 00 	*unknown*

000305fc <T_SRC0_383>:
   305fc:	00 00 04 00 	*unknown*

00030600 <T_SRC0_384>:
   30600:	00 00 04 00 	*unknown*

00030604 <T_SRC0_385>:
   30604:	00 00 04 00 	*unknown*

00030608 <T_SRC0_386>:
   30608:	00 00 04 00 	*unknown*

0003060c <T_SRC0_387>:
   3060c:	00 00 04 00 	*unknown*

00030610 <T_SRC0_388>:
   30610:	00 00 04 00 	*unknown*

00030614 <T_SRC0_389>:
   30614:	00 00 04 00 	*unknown*

00030618 <T_SRC0_390>:
   30618:	00 00 04 00 	*unknown*

0003061c <T_SRC0_391>:
   3061c:	00 00 04 00 	*unknown*

00030620 <T_SRC0_392>:
   30620:	00 00 04 00 	*unknown*

00030624 <T_SRC0_393>:
   30624:	00 00 04 00 	*unknown*

00030628 <T_SRC0_394>:
   30628:	00 00 04 00 	*unknown*

0003062c <T_SRC0_395>:
   3062c:	00 00 04 00 	*unknown*

00030630 <T_SRC0_396>:
   30630:	00 00 08 00 	*unknown*

00030634 <T_SRC0_397>:
   30634:	00 00 08 00 	*unknown*

00030638 <T_SRC0_398>:
   30638:	00 00 08 00 	*unknown*

0003063c <T_SRC0_399>:
   3063c:	00 00 08 00 	*unknown*

00030640 <T_SRC0_400>:
   30640:	00 00 08 00 	*unknown*

00030644 <T_SRC0_401>:
   30644:	00 00 08 00 	*unknown*

00030648 <T_SRC0_402>:
   30648:	00 00 08 00 	*unknown*

0003064c <T_SRC0_403>:
   3064c:	00 00 08 00 	*unknown*

00030650 <T_SRC0_404>:
   30650:	00 00 08 00 	*unknown*

00030654 <T_SRC0_405>:
   30654:	00 00 08 00 	*unknown*

00030658 <T_SRC0_406>:
   30658:	00 00 08 00 	*unknown*

0003065c <T_SRC0_407>:
   3065c:	00 00 08 00 	*unknown*

00030660 <T_SRC0_408>:
   30660:	00 00 08 00 	*unknown*

00030664 <T_SRC0_409>:
   30664:	00 00 08 00 	*unknown*

00030668 <T_SRC0_410>:
   30668:	00 00 08 00 	*unknown*

0003066c <T_SRC0_411>:
   3066c:	00 00 08 00 	*unknown*

00030670 <T_SRC0_412>:
   30670:	00 00 08 00 	*unknown*

00030674 <T_SRC0_413>:
   30674:	00 00 08 00 	*unknown*

00030678 <T_SRC0_414>:
   30678:	00 00 08 00 	*unknown*

0003067c <T_SRC0_415>:
   3067c:	00 00 08 00 	*unknown*

00030680 <T_SRC0_416>:
   30680:	00 00 08 00 	*unknown*

00030684 <T_SRC0_417>:
   30684:	00 00 08 00 	*unknown*

00030688 <T_SRC0_418>:
   30688:	00 00 08 00 	*unknown*

0003068c <T_SRC0_419>:
   3068c:	00 00 08 00 	*unknown*

00030690 <T_SRC0_420>:
   30690:	00 00 08 00 	*unknown*

00030694 <T_SRC0_421>:
   30694:	00 00 08 00 	*unknown*

00030698 <T_SRC0_422>:
   30698:	00 00 08 00 	*unknown*

0003069c <T_SRC0_423>:
   3069c:	00 00 08 00 	*unknown*

000306a0 <T_SRC0_424>:
   306a0:	00 00 08 00 	*unknown*

000306a4 <T_SRC0_425>:
   306a4:	00 00 08 00 	*unknown*

000306a8 <T_SRC0_426>:
   306a8:	00 00 08 00 	*unknown*

000306ac <T_SRC0_427>:
   306ac:	00 00 08 00 	*unknown*

000306b0 <T_SRC0_428>:
   306b0:	00 00 08 00 	*unknown*

000306b4 <T_SRC0_429>:
   306b4:	00 00 10 00 	*unknown*

000306b8 <T_SRC0_430>:
   306b8:	00 00 10 00 	*unknown*

000306bc <T_SRC0_431>:
   306bc:	00 00 10 00 	*unknown*

000306c0 <T_SRC0_432>:
   306c0:	00 00 10 00 	*unknown*

000306c4 <T_SRC0_433>:
   306c4:	00 00 10 00 	*unknown*

000306c8 <T_SRC0_434>:
   306c8:	00 00 10 00 	*unknown*

000306cc <T_SRC0_435>:
   306cc:	00 00 10 00 	*unknown*

000306d0 <T_SRC0_436>:
   306d0:	00 00 10 00 	*unknown*

000306d4 <T_SRC0_437>:
   306d4:	00 00 10 00 	*unknown*

000306d8 <T_SRC0_438>:
   306d8:	00 00 10 00 	*unknown*

000306dc <T_SRC0_439>:
   306dc:	00 00 10 00 	*unknown*

000306e0 <T_SRC0_440>:
   306e0:	00 00 10 00 	*unknown*

000306e4 <T_SRC0_441>:
   306e4:	00 00 10 00 	*unknown*

000306e8 <T_SRC0_442>:
   306e8:	00 00 10 00 	*unknown*

000306ec <T_SRC0_443>:
   306ec:	00 00 10 00 	*unknown*

000306f0 <T_SRC0_444>:
   306f0:	00 00 10 00 	*unknown*

000306f4 <T_SRC0_445>:
   306f4:	00 00 10 00 	*unknown*

000306f8 <T_SRC0_446>:
   306f8:	00 00 10 00 	*unknown*

000306fc <T_SRC0_447>:
   306fc:	00 00 10 00 	*unknown*

00030700 <T_SRC0_448>:
   30700:	00 00 10 00 	*unknown*

00030704 <T_SRC0_449>:
   30704:	00 00 10 00 	*unknown*

00030708 <T_SRC0_450>:
   30708:	00 00 10 00 	*unknown*

0003070c <T_SRC0_451>:
   3070c:	00 00 10 00 	*unknown*

00030710 <T_SRC0_452>:
   30710:	00 00 10 00 	*unknown*

00030714 <T_SRC0_453>:
   30714:	00 00 10 00 	*unknown*

00030718 <T_SRC0_454>:
   30718:	00 00 10 00 	*unknown*

0003071c <T_SRC0_455>:
   3071c:	00 00 10 00 	*unknown*

00030720 <T_SRC0_456>:
   30720:	00 00 10 00 	*unknown*

00030724 <T_SRC0_457>:
   30724:	00 00 10 00 	*unknown*

00030728 <T_SRC0_458>:
   30728:	00 00 10 00 	*unknown*

0003072c <T_SRC0_459>:
   3072c:	00 00 10 00 	*unknown*

00030730 <T_SRC0_460>:
   30730:	00 00 10 00 	*unknown*

00030734 <T_SRC0_461>:
   30734:	00 00 10 00 	*unknown*

00030738 <T_SRC0_462>:
   30738:	00 00 20 00 	*unknown*

0003073c <T_SRC0_463>:
   3073c:	00 00 20 00 	*unknown*

00030740 <T_SRC0_464>:
   30740:	00 00 20 00 	*unknown*

00030744 <T_SRC0_465>:
   30744:	00 00 20 00 	*unknown*

00030748 <T_SRC0_466>:
   30748:	00 00 20 00 	*unknown*

0003074c <T_SRC0_467>:
   3074c:	00 00 20 00 	*unknown*

00030750 <T_SRC0_468>:
   30750:	00 00 20 00 	*unknown*

00030754 <T_SRC0_469>:
   30754:	00 00 20 00 	*unknown*

00030758 <T_SRC0_470>:
   30758:	00 00 20 00 	*unknown*

0003075c <T_SRC0_471>:
   3075c:	00 00 20 00 	*unknown*

00030760 <T_SRC0_472>:
   30760:	00 00 20 00 	*unknown*

00030764 <T_SRC0_473>:
   30764:	00 00 20 00 	*unknown*

00030768 <T_SRC0_474>:
   30768:	00 00 20 00 	*unknown*

0003076c <T_SRC0_475>:
   3076c:	00 00 20 00 	*unknown*

00030770 <T_SRC0_476>:
   30770:	00 00 20 00 	*unknown*

00030774 <T_SRC0_477>:
   30774:	00 00 20 00 	*unknown*

00030778 <T_SRC0_478>:
   30778:	00 00 20 00 	*unknown*

0003077c <T_SRC0_479>:
   3077c:	00 00 20 00 	*unknown*

00030780 <T_SRC0_480>:
   30780:	00 00 20 00 	*unknown*

00030784 <T_SRC0_481>:
   30784:	00 00 20 00 	*unknown*

00030788 <T_SRC0_482>:
   30788:	00 00 20 00 	*unknown*

0003078c <T_SRC0_483>:
   3078c:	00 00 20 00 	*unknown*

00030790 <T_SRC0_484>:
   30790:	00 00 20 00 	*unknown*

00030794 <T_SRC0_485>:
   30794:	00 00 20 00 	*unknown*

00030798 <T_SRC0_486>:
   30798:	00 00 20 00 	*unknown*

0003079c <T_SRC0_487>:
   3079c:	00 00 20 00 	*unknown*

000307a0 <T_SRC0_488>:
   307a0:	00 00 20 00 	*unknown*

000307a4 <T_SRC0_489>:
   307a4:	00 00 20 00 	*unknown*

000307a8 <T_SRC0_490>:
   307a8:	00 00 20 00 	*unknown*

000307ac <T_SRC0_491>:
   307ac:	00 00 20 00 	*unknown*

000307b0 <T_SRC0_492>:
   307b0:	00 00 20 00 	*unknown*

000307b4 <T_SRC0_493>:
   307b4:	00 00 20 00 	*unknown*

000307b8 <T_SRC0_494>:
   307b8:	00 00 20 00 	*unknown*

000307bc <T_SRC0_495>:
   307bc:	00 00 40 00 	*unknown*

000307c0 <T_SRC0_496>:
   307c0:	00 00 40 00 	*unknown*

000307c4 <T_SRC0_497>:
   307c4:	00 00 40 00 	*unknown*

000307c8 <T_SRC0_498>:
   307c8:	00 00 40 00 	*unknown*

000307cc <T_SRC0_499>:
   307cc:	00 00 40 00 	*unknown*

000307d0 <T_SRC0_500>:
   307d0:	00 00 40 00 	*unknown*

000307d4 <T_SRC0_501>:
   307d4:	00 00 40 00 	*unknown*

000307d8 <T_SRC0_502>:
   307d8:	00 00 40 00 	*unknown*

000307dc <T_SRC0_503>:
   307dc:	00 00 40 00 	*unknown*

000307e0 <T_SRC0_504>:
   307e0:	00 00 40 00 	*unknown*

000307e4 <T_SRC0_505>:
   307e4:	00 00 40 00 	*unknown*

000307e8 <T_SRC0_506>:
   307e8:	00 00 40 00 	*unknown*

000307ec <T_SRC0_507>:
   307ec:	00 00 40 00 	*unknown*

000307f0 <T_SRC0_508>:
   307f0:	00 00 40 00 	*unknown*

000307f4 <T_SRC0_509>:
   307f4:	00 00 40 00 	*unknown*

000307f8 <T_SRC0_510>:
   307f8:	00 00 40 00 	*unknown*

000307fc <T_SRC0_511>:
   307fc:	00 00 40 00 	*unknown*

00030800 <T_SRC0_512>:
   30800:	00 00 40 00 	*unknown*

00030804 <T_SRC0_513>:
   30804:	00 00 40 00 	*unknown*

00030808 <T_SRC0_514>:
   30808:	00 00 40 00 	*unknown*

0003080c <T_SRC0_515>:
   3080c:	00 00 40 00 	*unknown*

00030810 <T_SRC0_516>:
   30810:	00 00 40 00 	*unknown*

00030814 <T_SRC0_517>:
   30814:	00 00 40 00 	*unknown*

00030818 <T_SRC0_518>:
   30818:	00 00 40 00 	*unknown*

0003081c <T_SRC0_519>:
   3081c:	00 00 40 00 	*unknown*

00030820 <T_SRC0_520>:
   30820:	00 00 40 00 	*unknown*

00030824 <T_SRC0_521>:
   30824:	00 00 40 00 	*unknown*

00030828 <T_SRC0_522>:
   30828:	00 00 40 00 	*unknown*

0003082c <T_SRC0_523>:
   3082c:	00 00 40 00 	*unknown*

00030830 <T_SRC0_524>:
   30830:	00 00 40 00 	*unknown*

00030834 <T_SRC0_525>:
   30834:	00 00 40 00 	*unknown*

00030838 <T_SRC0_526>:
   30838:	00 00 40 00 	*unknown*

0003083c <T_SRC0_527>:
   3083c:	00 00 40 00 	*unknown*

00030840 <T_SRC0_528>:
   30840:	00 00 80 00 	*unknown*

00030844 <T_SRC0_529>:
   30844:	00 00 80 00 	*unknown*

00030848 <T_SRC0_530>:
   30848:	00 00 80 00 	*unknown*

0003084c <T_SRC0_531>:
   3084c:	00 00 80 00 	*unknown*

00030850 <T_SRC0_532>:
   30850:	00 00 80 00 	*unknown*

00030854 <T_SRC0_533>:
   30854:	00 00 80 00 	*unknown*

00030858 <T_SRC0_534>:
   30858:	00 00 80 00 	*unknown*

0003085c <T_SRC0_535>:
   3085c:	00 00 80 00 	*unknown*

00030860 <T_SRC0_536>:
   30860:	00 00 80 00 	*unknown*

00030864 <T_SRC0_537>:
   30864:	00 00 80 00 	*unknown*

00030868 <T_SRC0_538>:
   30868:	00 00 80 00 	*unknown*

0003086c <T_SRC0_539>:
   3086c:	00 00 80 00 	*unknown*

00030870 <T_SRC0_540>:
   30870:	00 00 80 00 	*unknown*

00030874 <T_SRC0_541>:
   30874:	00 00 80 00 	*unknown*

00030878 <T_SRC0_542>:
   30878:	00 00 80 00 	*unknown*

0003087c <T_SRC0_543>:
   3087c:	00 00 80 00 	*unknown*

00030880 <T_SRC0_544>:
   30880:	00 00 80 00 	*unknown*

00030884 <T_SRC0_545>:
   30884:	00 00 80 00 	*unknown*

00030888 <T_SRC0_546>:
   30888:	00 00 80 00 	*unknown*

0003088c <T_SRC0_547>:
   3088c:	00 00 80 00 	*unknown*

00030890 <T_SRC0_548>:
   30890:	00 00 80 00 	*unknown*

00030894 <T_SRC0_549>:
   30894:	00 00 80 00 	*unknown*

00030898 <T_SRC0_550>:
   30898:	00 00 80 00 	*unknown*

0003089c <T_SRC0_551>:
   3089c:	00 00 80 00 	*unknown*

000308a0 <T_SRC0_552>:
   308a0:	00 00 80 00 	*unknown*

000308a4 <T_SRC0_553>:
   308a4:	00 00 80 00 	*unknown*

000308a8 <T_SRC0_554>:
   308a8:	00 00 80 00 	*unknown*

000308ac <T_SRC0_555>:
   308ac:	00 00 80 00 	*unknown*

000308b0 <T_SRC0_556>:
   308b0:	00 00 80 00 	*unknown*

000308b4 <T_SRC0_557>:
   308b4:	00 00 80 00 	*unknown*

000308b8 <T_SRC0_558>:
   308b8:	00 00 80 00 	*unknown*

000308bc <T_SRC0_559>:
   308bc:	00 00 80 00 	*unknown*

000308c0 <T_SRC0_560>:
   308c0:	00 00 80 00 	*unknown*

000308c4 <T_SRC0_561>:
   308c4:	00 01 00 00 	*unknown*

000308c8 <T_SRC0_562>:
   308c8:	00 01 00 00 	*unknown*

000308cc <T_SRC0_563>:
   308cc:	00 01 00 00 	*unknown*

000308d0 <T_SRC0_564>:
   308d0:	00 01 00 00 	*unknown*

000308d4 <T_SRC0_565>:
   308d4:	00 01 00 00 	*unknown*

000308d8 <T_SRC0_566>:
   308d8:	00 01 00 00 	*unknown*

000308dc <T_SRC0_567>:
   308dc:	00 01 00 00 	*unknown*

000308e0 <T_SRC0_568>:
   308e0:	00 01 00 00 	*unknown*

000308e4 <T_SRC0_569>:
   308e4:	00 01 00 00 	*unknown*

000308e8 <T_SRC0_570>:
   308e8:	00 01 00 00 	*unknown*

000308ec <T_SRC0_571>:
   308ec:	00 01 00 00 	*unknown*

000308f0 <T_SRC0_572>:
   308f0:	00 01 00 00 	*unknown*

000308f4 <T_SRC0_573>:
   308f4:	00 01 00 00 	*unknown*

000308f8 <T_SRC0_574>:
   308f8:	00 01 00 00 	*unknown*

000308fc <T_SRC0_575>:
   308fc:	00 01 00 00 	*unknown*

00030900 <T_SRC0_576>:
   30900:	00 01 00 00 	*unknown*

00030904 <T_SRC0_577>:
   30904:	00 01 00 00 	*unknown*

00030908 <T_SRC0_578>:
   30908:	00 01 00 00 	*unknown*

0003090c <T_SRC0_579>:
   3090c:	00 01 00 00 	*unknown*

00030910 <T_SRC0_580>:
   30910:	00 01 00 00 	*unknown*

00030914 <T_SRC0_581>:
   30914:	00 01 00 00 	*unknown*

00030918 <T_SRC0_582>:
   30918:	00 01 00 00 	*unknown*

0003091c <T_SRC0_583>:
   3091c:	00 01 00 00 	*unknown*

00030920 <T_SRC0_584>:
   30920:	00 01 00 00 	*unknown*

00030924 <T_SRC0_585>:
   30924:	00 01 00 00 	*unknown*

00030928 <T_SRC0_586>:
   30928:	00 01 00 00 	*unknown*

0003092c <T_SRC0_587>:
   3092c:	00 01 00 00 	*unknown*

00030930 <T_SRC0_588>:
   30930:	00 01 00 00 	*unknown*

00030934 <T_SRC0_589>:
   30934:	00 01 00 00 	*unknown*

00030938 <T_SRC0_590>:
   30938:	00 01 00 00 	*unknown*

0003093c <T_SRC0_591>:
   3093c:	00 01 00 00 	*unknown*

00030940 <T_SRC0_592>:
   30940:	00 01 00 00 	*unknown*

00030944 <T_SRC0_593>:
   30944:	00 01 00 00 	*unknown*

00030948 <T_SRC0_594>:
   30948:	00 02 00 00 	*unknown*

0003094c <T_SRC0_595>:
   3094c:	00 02 00 00 	*unknown*

00030950 <T_SRC0_596>:
   30950:	00 02 00 00 	*unknown*

00030954 <T_SRC0_597>:
   30954:	00 02 00 00 	*unknown*

00030958 <T_SRC0_598>:
   30958:	00 02 00 00 	*unknown*

0003095c <T_SRC0_599>:
   3095c:	00 02 00 00 	*unknown*

00030960 <T_SRC0_600>:
   30960:	00 02 00 00 	*unknown*

00030964 <T_SRC0_601>:
   30964:	00 02 00 00 	*unknown*

00030968 <T_SRC0_602>:
   30968:	00 02 00 00 	*unknown*

0003096c <T_SRC0_603>:
   3096c:	00 02 00 00 	*unknown*

00030970 <T_SRC0_604>:
   30970:	00 02 00 00 	*unknown*

00030974 <T_SRC0_605>:
   30974:	00 02 00 00 	*unknown*

00030978 <T_SRC0_606>:
   30978:	00 02 00 00 	*unknown*

0003097c <T_SRC0_607>:
   3097c:	00 02 00 00 	*unknown*

00030980 <T_SRC0_608>:
   30980:	00 02 00 00 	*unknown*

00030984 <T_SRC0_609>:
   30984:	00 02 00 00 	*unknown*

00030988 <T_SRC0_610>:
   30988:	00 02 00 00 	*unknown*

0003098c <T_SRC0_611>:
   3098c:	00 02 00 00 	*unknown*

00030990 <T_SRC0_612>:
   30990:	00 02 00 00 	*unknown*

00030994 <T_SRC0_613>:
   30994:	00 02 00 00 	*unknown*

00030998 <T_SRC0_614>:
   30998:	00 02 00 00 	*unknown*

0003099c <T_SRC0_615>:
   3099c:	00 02 00 00 	*unknown*

000309a0 <T_SRC0_616>:
   309a0:	00 02 00 00 	*unknown*

000309a4 <T_SRC0_617>:
   309a4:	00 02 00 00 	*unknown*

000309a8 <T_SRC0_618>:
   309a8:	00 02 00 00 	*unknown*

000309ac <T_SRC0_619>:
   309ac:	00 02 00 00 	*unknown*

000309b0 <T_SRC0_620>:
   309b0:	00 02 00 00 	*unknown*

000309b4 <T_SRC0_621>:
   309b4:	00 02 00 00 	*unknown*

000309b8 <T_SRC0_622>:
   309b8:	00 02 00 00 	*unknown*

000309bc <T_SRC0_623>:
   309bc:	00 02 00 00 	*unknown*

000309c0 <T_SRC0_624>:
   309c0:	00 02 00 00 	*unknown*

000309c4 <T_SRC0_625>:
   309c4:	00 02 00 00 	*unknown*

000309c8 <T_SRC0_626>:
   309c8:	00 02 00 00 	*unknown*

000309cc <T_SRC0_627>:
   309cc:	00 04 00 00 	*unknown*

000309d0 <T_SRC0_628>:
   309d0:	00 04 00 00 	*unknown*

000309d4 <T_SRC0_629>:
   309d4:	00 04 00 00 	*unknown*

000309d8 <T_SRC0_630>:
   309d8:	00 04 00 00 	*unknown*

000309dc <T_SRC0_631>:
   309dc:	00 04 00 00 	*unknown*

000309e0 <T_SRC0_632>:
   309e0:	00 04 00 00 	*unknown*

000309e4 <T_SRC0_633>:
   309e4:	00 04 00 00 	*unknown*

000309e8 <T_SRC0_634>:
   309e8:	00 04 00 00 	*unknown*

000309ec <T_SRC0_635>:
   309ec:	00 04 00 00 	*unknown*

000309f0 <T_SRC0_636>:
   309f0:	00 04 00 00 	*unknown*

000309f4 <T_SRC0_637>:
   309f4:	00 04 00 00 	*unknown*

000309f8 <T_SRC0_638>:
   309f8:	00 04 00 00 	*unknown*

000309fc <T_SRC0_639>:
   309fc:	00 04 00 00 	*unknown*

00030a00 <T_SRC0_640>:
   30a00:	00 04 00 00 	*unknown*

00030a04 <T_SRC0_641>:
   30a04:	00 04 00 00 	*unknown*

00030a08 <T_SRC0_642>:
   30a08:	00 04 00 00 	*unknown*

00030a0c <T_SRC0_643>:
   30a0c:	00 04 00 00 	*unknown*

00030a10 <T_SRC0_644>:
   30a10:	00 04 00 00 	*unknown*

00030a14 <T_SRC0_645>:
   30a14:	00 04 00 00 	*unknown*

00030a18 <T_SRC0_646>:
   30a18:	00 04 00 00 	*unknown*

00030a1c <T_SRC0_647>:
   30a1c:	00 04 00 00 	*unknown*

00030a20 <T_SRC0_648>:
   30a20:	00 04 00 00 	*unknown*

00030a24 <T_SRC0_649>:
   30a24:	00 04 00 00 	*unknown*

00030a28 <T_SRC0_650>:
   30a28:	00 04 00 00 	*unknown*

00030a2c <T_SRC0_651>:
   30a2c:	00 04 00 00 	*unknown*

00030a30 <T_SRC0_652>:
   30a30:	00 04 00 00 	*unknown*

00030a34 <T_SRC0_653>:
   30a34:	00 04 00 00 	*unknown*

00030a38 <T_SRC0_654>:
   30a38:	00 04 00 00 	*unknown*

00030a3c <T_SRC0_655>:
   30a3c:	00 04 00 00 	*unknown*

00030a40 <T_SRC0_656>:
   30a40:	00 04 00 00 	*unknown*

00030a44 <T_SRC0_657>:
   30a44:	00 04 00 00 	*unknown*

00030a48 <T_SRC0_658>:
   30a48:	00 04 00 00 	*unknown*

00030a4c <T_SRC0_659>:
   30a4c:	00 04 00 00 	*unknown*

00030a50 <T_SRC0_660>:
   30a50:	00 08 00 00 	*unknown*

00030a54 <T_SRC0_661>:
   30a54:	00 08 00 00 	*unknown*

00030a58 <T_SRC0_662>:
   30a58:	00 08 00 00 	*unknown*

00030a5c <T_SRC0_663>:
   30a5c:	00 08 00 00 	*unknown*

00030a60 <T_SRC0_664>:
   30a60:	00 08 00 00 	*unknown*

00030a64 <T_SRC0_665>:
   30a64:	00 08 00 00 	*unknown*

00030a68 <T_SRC0_666>:
   30a68:	00 08 00 00 	*unknown*

00030a6c <T_SRC0_667>:
   30a6c:	00 08 00 00 	*unknown*

00030a70 <T_SRC0_668>:
   30a70:	00 08 00 00 	*unknown*

00030a74 <T_SRC0_669>:
   30a74:	00 08 00 00 	*unknown*

00030a78 <T_SRC0_670>:
   30a78:	00 08 00 00 	*unknown*

00030a7c <T_SRC0_671>:
   30a7c:	00 08 00 00 	*unknown*

00030a80 <T_SRC0_672>:
   30a80:	00 08 00 00 	*unknown*

00030a84 <T_SRC0_673>:
   30a84:	00 08 00 00 	*unknown*

00030a88 <T_SRC0_674>:
   30a88:	00 08 00 00 	*unknown*

00030a8c <T_SRC0_675>:
   30a8c:	00 08 00 00 	*unknown*

00030a90 <T_SRC0_676>:
   30a90:	00 08 00 00 	*unknown*

00030a94 <T_SRC0_677>:
   30a94:	00 08 00 00 	*unknown*

00030a98 <T_SRC0_678>:
   30a98:	00 08 00 00 	*unknown*

00030a9c <T_SRC0_679>:
   30a9c:	00 08 00 00 	*unknown*

00030aa0 <T_SRC0_680>:
   30aa0:	00 08 00 00 	*unknown*

00030aa4 <T_SRC0_681>:
   30aa4:	00 08 00 00 	*unknown*

00030aa8 <T_SRC0_682>:
   30aa8:	00 08 00 00 	*unknown*

00030aac <T_SRC0_683>:
   30aac:	00 08 00 00 	*unknown*

00030ab0 <T_SRC0_684>:
   30ab0:	00 08 00 00 	*unknown*

00030ab4 <T_SRC0_685>:
   30ab4:	00 08 00 00 	*unknown*

00030ab8 <T_SRC0_686>:
   30ab8:	00 08 00 00 	*unknown*

00030abc <T_SRC0_687>:
   30abc:	00 08 00 00 	*unknown*

00030ac0 <T_SRC0_688>:
   30ac0:	00 08 00 00 	*unknown*

00030ac4 <T_SRC0_689>:
   30ac4:	00 08 00 00 	*unknown*

00030ac8 <T_SRC0_690>:
   30ac8:	00 08 00 00 	*unknown*

00030acc <T_SRC0_691>:
   30acc:	00 08 00 00 	*unknown*

00030ad0 <T_SRC0_692>:
   30ad0:	00 08 00 00 	*unknown*

00030ad4 <T_SRC0_693>:
   30ad4:	00 10 00 00 	add	r0,0

00030ad8 <T_SRC0_694>:
   30ad8:	00 10 00 00 	add	r0,0

00030adc <T_SRC0_695>:
   30adc:	00 10 00 00 	add	r0,0

00030ae0 <T_SRC0_696>:
   30ae0:	00 10 00 00 	add	r0,0

00030ae4 <T_SRC0_697>:
   30ae4:	00 10 00 00 	add	r0,0

00030ae8 <T_SRC0_698>:
   30ae8:	00 10 00 00 	add	r0,0

00030aec <T_SRC0_699>:
   30aec:	00 10 00 00 	add	r0,0

00030af0 <T_SRC0_700>:
   30af0:	00 10 00 00 	add	r0,0

00030af4 <T_SRC0_701>:
   30af4:	00 10 00 00 	add	r0,0

00030af8 <T_SRC0_702>:
   30af8:	00 10 00 00 	add	r0,0

00030afc <T_SRC0_703>:
   30afc:	00 10 00 00 	add	r0,0

00030b00 <T_SRC0_704>:
   30b00:	00 10 00 00 	add	r0,0

00030b04 <T_SRC0_705>:
   30b04:	00 10 00 00 	add	r0,0

00030b08 <T_SRC0_706>:
   30b08:	00 10 00 00 	add	r0,0

00030b0c <T_SRC0_707>:
   30b0c:	00 10 00 00 	add	r0,0

00030b10 <T_SRC0_708>:
   30b10:	00 10 00 00 	add	r0,0

00030b14 <T_SRC0_709>:
   30b14:	00 10 00 00 	add	r0,0

00030b18 <T_SRC0_710>:
   30b18:	00 10 00 00 	add	r0,0

00030b1c <T_SRC0_711>:
   30b1c:	00 10 00 00 	add	r0,0

00030b20 <T_SRC0_712>:
   30b20:	00 10 00 00 	add	r0,0

00030b24 <T_SRC0_713>:
   30b24:	00 10 00 00 	add	r0,0

00030b28 <T_SRC0_714>:
   30b28:	00 10 00 00 	add	r0,0

00030b2c <T_SRC0_715>:
   30b2c:	00 10 00 00 	add	r0,0

00030b30 <T_SRC0_716>:
   30b30:	00 10 00 00 	add	r0,0

00030b34 <T_SRC0_717>:
   30b34:	00 10 00 00 	add	r0,0

00030b38 <T_SRC0_718>:
   30b38:	00 10 00 00 	add	r0,0

00030b3c <T_SRC0_719>:
   30b3c:	00 10 00 00 	add	r0,0

00030b40 <T_SRC0_720>:
   30b40:	00 10 00 00 	add	r0,0

00030b44 <T_SRC0_721>:
   30b44:	00 10 00 00 	add	r0,0

00030b48 <T_SRC0_722>:
   30b48:	00 10 00 00 	add	r0,0

00030b4c <T_SRC0_723>:
   30b4c:	00 10 00 00 	add	r0,0

00030b50 <T_SRC0_724>:
   30b50:	00 10 00 00 	add	r0,0

00030b54 <T_SRC0_725>:
   30b54:	00 10 00 00 	add	r0,0

00030b58 <T_SRC0_726>:
   30b58:	00 20 00 00 	sub	r0,r0

00030b5c <T_SRC0_727>:
   30b5c:	00 20 00 00 	sub	r0,r0

00030b60 <T_SRC0_728>:
   30b60:	00 20 00 00 	sub	r0,r0

00030b64 <T_SRC0_729>:
   30b64:	00 20 00 00 	sub	r0,r0

00030b68 <T_SRC0_730>:
   30b68:	00 20 00 00 	sub	r0,r0

00030b6c <T_SRC0_731>:
   30b6c:	00 20 00 00 	sub	r0,r0

00030b70 <T_SRC0_732>:
   30b70:	00 20 00 00 	sub	r0,r0

00030b74 <T_SRC0_733>:
   30b74:	00 20 00 00 	sub	r0,r0

00030b78 <T_SRC0_734>:
   30b78:	00 20 00 00 	sub	r0,r0

00030b7c <T_SRC0_735>:
   30b7c:	00 20 00 00 	sub	r0,r0

00030b80 <T_SRC0_736>:
   30b80:	00 20 00 00 	sub	r0,r0

00030b84 <T_SRC0_737>:
   30b84:	00 20 00 00 	sub	r0,r0

00030b88 <T_SRC0_738>:
   30b88:	00 20 00 00 	sub	r0,r0

00030b8c <T_SRC0_739>:
   30b8c:	00 20 00 00 	sub	r0,r0

00030b90 <T_SRC0_740>:
   30b90:	00 20 00 00 	sub	r0,r0

00030b94 <T_SRC0_741>:
   30b94:	00 20 00 00 	sub	r0,r0

00030b98 <T_SRC0_742>:
   30b98:	00 20 00 00 	sub	r0,r0

00030b9c <T_SRC0_743>:
   30b9c:	00 20 00 00 	sub	r0,r0

00030ba0 <T_SRC0_744>:
   30ba0:	00 20 00 00 	sub	r0,r0

00030ba4 <T_SRC0_745>:
   30ba4:	00 20 00 00 	sub	r0,r0

00030ba8 <T_SRC0_746>:
   30ba8:	00 20 00 00 	sub	r0,r0

00030bac <T_SRC0_747>:
   30bac:	00 20 00 00 	sub	r0,r0

00030bb0 <T_SRC0_748>:
   30bb0:	00 20 00 00 	sub	r0,r0

00030bb4 <T_SRC0_749>:
   30bb4:	00 20 00 00 	sub	r0,r0

00030bb8 <T_SRC0_750>:
   30bb8:	00 20 00 00 	sub	r0,r0

00030bbc <T_SRC0_751>:
   30bbc:	00 20 00 00 	sub	r0,r0

00030bc0 <T_SRC0_752>:
   30bc0:	00 20 00 00 	sub	r0,r0

00030bc4 <T_SRC0_753>:
   30bc4:	00 20 00 00 	sub	r0,r0

00030bc8 <T_SRC0_754>:
   30bc8:	00 20 00 00 	sub	r0,r0

00030bcc <T_SRC0_755>:
   30bcc:	00 20 00 00 	sub	r0,r0

00030bd0 <T_SRC0_756>:
   30bd0:	00 20 00 00 	sub	r0,r0

00030bd4 <T_SRC0_757>:
   30bd4:	00 20 00 00 	sub	r0,r0

00030bd8 <T_SRC0_758>:
   30bd8:	00 20 00 00 	sub	r0,r0

00030bdc <T_SRC0_759>:
   30bdc:	00 40 00 00 	mull	r0,r0

00030be0 <T_SRC0_760>:
   30be0:	00 40 00 00 	mull	r0,r0

00030be4 <T_SRC0_761>:
   30be4:	00 40 00 00 	mull	r0,r0

00030be8 <T_SRC0_762>:
   30be8:	00 40 00 00 	mull	r0,r0

00030bec <T_SRC0_763>:
   30bec:	00 40 00 00 	mull	r0,r0

00030bf0 <T_SRC0_764>:
   30bf0:	00 40 00 00 	mull	r0,r0

00030bf4 <T_SRC0_765>:
   30bf4:	00 40 00 00 	mull	r0,r0

00030bf8 <T_SRC0_766>:
   30bf8:	00 40 00 00 	mull	r0,r0

00030bfc <T_SRC0_767>:
   30bfc:	00 40 00 00 	mull	r0,r0

00030c00 <T_SRC0_768>:
   30c00:	00 40 00 00 	mull	r0,r0

00030c04 <T_SRC0_769>:
   30c04:	00 40 00 00 	mull	r0,r0

00030c08 <T_SRC0_770>:
   30c08:	00 40 00 00 	mull	r0,r0

00030c0c <T_SRC0_771>:
   30c0c:	00 40 00 00 	mull	r0,r0

00030c10 <T_SRC0_772>:
   30c10:	00 40 00 00 	mull	r0,r0

00030c14 <T_SRC0_773>:
   30c14:	00 40 00 00 	mull	r0,r0

00030c18 <T_SRC0_774>:
   30c18:	00 40 00 00 	mull	r0,r0

00030c1c <T_SRC0_775>:
   30c1c:	00 40 00 00 	mull	r0,r0

00030c20 <T_SRC0_776>:
   30c20:	00 40 00 00 	mull	r0,r0

00030c24 <T_SRC0_777>:
   30c24:	00 40 00 00 	mull	r0,r0

00030c28 <T_SRC0_778>:
   30c28:	00 40 00 00 	mull	r0,r0

00030c2c <T_SRC0_779>:
   30c2c:	00 40 00 00 	mull	r0,r0

00030c30 <T_SRC0_780>:
   30c30:	00 40 00 00 	mull	r0,r0

00030c34 <T_SRC0_781>:
   30c34:	00 40 00 00 	mull	r0,r0

00030c38 <T_SRC0_782>:
   30c38:	00 40 00 00 	mull	r0,r0

00030c3c <T_SRC0_783>:
   30c3c:	00 40 00 00 	mull	r0,r0

00030c40 <T_SRC0_784>:
   30c40:	00 40 00 00 	mull	r0,r0

00030c44 <T_SRC0_785>:
   30c44:	00 40 00 00 	mull	r0,r0

00030c48 <T_SRC0_786>:
   30c48:	00 40 00 00 	mull	r0,r0

00030c4c <T_SRC0_787>:
   30c4c:	00 40 00 00 	mull	r0,r0

00030c50 <T_SRC0_788>:
   30c50:	00 40 00 00 	mull	r0,r0

00030c54 <T_SRC0_789>:
   30c54:	00 40 00 00 	mull	r0,r0

00030c58 <T_SRC0_790>:
   30c58:	00 40 00 00 	mull	r0,r0

00030c5c <T_SRC0_791>:
   30c5c:	00 40 00 00 	mull	r0,r0

00030c60 <T_SRC0_792>:
   30c60:	00 80 00 00 	udiv	r0,r0

00030c64 <T_SRC0_793>:
   30c64:	00 80 00 00 	udiv	r0,r0

00030c68 <T_SRC0_794>:
   30c68:	00 80 00 00 	udiv	r0,r0

00030c6c <T_SRC0_795>:
   30c6c:	00 80 00 00 	udiv	r0,r0

00030c70 <T_SRC0_796>:
   30c70:	00 80 00 00 	udiv	r0,r0

00030c74 <T_SRC0_797>:
   30c74:	00 80 00 00 	udiv	r0,r0

00030c78 <T_SRC0_798>:
   30c78:	00 80 00 00 	udiv	r0,r0

00030c7c <T_SRC0_799>:
   30c7c:	00 80 00 00 	udiv	r0,r0

00030c80 <T_SRC0_800>:
   30c80:	00 80 00 00 	udiv	r0,r0

00030c84 <T_SRC0_801>:
   30c84:	00 80 00 00 	udiv	r0,r0

00030c88 <T_SRC0_802>:
   30c88:	00 80 00 00 	udiv	r0,r0

00030c8c <T_SRC0_803>:
   30c8c:	00 80 00 00 	udiv	r0,r0

00030c90 <T_SRC0_804>:
   30c90:	00 80 00 00 	udiv	r0,r0

00030c94 <T_SRC0_805>:
   30c94:	00 80 00 00 	udiv	r0,r0

00030c98 <T_SRC0_806>:
   30c98:	00 80 00 00 	udiv	r0,r0

00030c9c <T_SRC0_807>:
   30c9c:	00 80 00 00 	udiv	r0,r0

00030ca0 <T_SRC0_808>:
   30ca0:	00 80 00 00 	udiv	r0,r0

00030ca4 <T_SRC0_809>:
   30ca4:	00 80 00 00 	udiv	r0,r0

00030ca8 <T_SRC0_810>:
   30ca8:	00 80 00 00 	udiv	r0,r0

00030cac <T_SRC0_811>:
   30cac:	00 80 00 00 	udiv	r0,r0

00030cb0 <T_SRC0_812>:
   30cb0:	00 80 00 00 	udiv	r0,r0

00030cb4 <T_SRC0_813>:
   30cb4:	00 80 00 00 	udiv	r0,r0

00030cb8 <T_SRC0_814>:
   30cb8:	00 80 00 00 	udiv	r0,r0

00030cbc <T_SRC0_815>:
   30cbc:	00 80 00 00 	udiv	r0,r0

00030cc0 <T_SRC0_816>:
   30cc0:	00 80 00 00 	udiv	r0,r0

00030cc4 <T_SRC0_817>:
   30cc4:	00 80 00 00 	udiv	r0,r0

00030cc8 <T_SRC0_818>:
   30cc8:	00 80 00 00 	udiv	r0,r0

00030ccc <T_SRC0_819>:
   30ccc:	00 80 00 00 	udiv	r0,r0

00030cd0 <T_SRC0_820>:
   30cd0:	00 80 00 00 	udiv	r0,r0

00030cd4 <T_SRC0_821>:
   30cd4:	00 80 00 00 	udiv	r0,r0

00030cd8 <T_SRC0_822>:
   30cd8:	00 80 00 00 	udiv	r0,r0

00030cdc <T_SRC0_823>:
   30cdc:	00 80 00 00 	udiv	r0,r0

00030ce0 <T_SRC0_824>:
   30ce0:	00 80 00 00 	udiv	r0,r0

00030ce4 <T_SRC0_825>:
   30ce4:	01 00 00 00 	mod	r0,r0

00030ce8 <T_SRC0_826>:
   30ce8:	01 00 00 00 	mod	r0,r0

00030cec <T_SRC0_827>:
   30cec:	01 00 00 00 	mod	r0,r0

00030cf0 <T_SRC0_828>:
   30cf0:	01 00 00 00 	mod	r0,r0

00030cf4 <T_SRC0_829>:
   30cf4:	01 00 00 00 	mod	r0,r0

00030cf8 <T_SRC0_830>:
   30cf8:	01 00 00 00 	mod	r0,r0

00030cfc <T_SRC0_831>:
   30cfc:	01 00 00 00 	mod	r0,r0

00030d00 <T_SRC0_832>:
   30d00:	01 00 00 00 	mod	r0,r0

00030d04 <T_SRC0_833>:
   30d04:	01 00 00 00 	mod	r0,r0

00030d08 <T_SRC0_834>:
   30d08:	01 00 00 00 	mod	r0,r0

00030d0c <T_SRC0_835>:
   30d0c:	01 00 00 00 	mod	r0,r0

00030d10 <T_SRC0_836>:
   30d10:	01 00 00 00 	mod	r0,r0

00030d14 <T_SRC0_837>:
   30d14:	01 00 00 00 	mod	r0,r0

00030d18 <T_SRC0_838>:
   30d18:	01 00 00 00 	mod	r0,r0

00030d1c <T_SRC0_839>:
   30d1c:	01 00 00 00 	mod	r0,r0

00030d20 <T_SRC0_840>:
   30d20:	01 00 00 00 	mod	r0,r0

00030d24 <T_SRC0_841>:
   30d24:	01 00 00 00 	mod	r0,r0

00030d28 <T_SRC0_842>:
   30d28:	01 00 00 00 	mod	r0,r0

00030d2c <T_SRC0_843>:
   30d2c:	01 00 00 00 	mod	r0,r0

00030d30 <T_SRC0_844>:
   30d30:	01 00 00 00 	mod	r0,r0

00030d34 <T_SRC0_845>:
   30d34:	01 00 00 00 	mod	r0,r0

00030d38 <T_SRC0_846>:
   30d38:	01 00 00 00 	mod	r0,r0

00030d3c <T_SRC0_847>:
   30d3c:	01 00 00 00 	mod	r0,r0

00030d40 <T_SRC0_848>:
   30d40:	01 00 00 00 	mod	r0,r0

00030d44 <T_SRC0_849>:
   30d44:	01 00 00 00 	mod	r0,r0

00030d48 <T_SRC0_850>:
   30d48:	01 00 00 00 	mod	r0,r0

00030d4c <T_SRC0_851>:
   30d4c:	01 00 00 00 	mod	r0,r0

00030d50 <T_SRC0_852>:
   30d50:	01 00 00 00 	mod	r0,r0

00030d54 <T_SRC0_853>:
   30d54:	01 00 00 00 	mod	r0,r0

00030d58 <T_SRC0_854>:
   30d58:	01 00 00 00 	mod	r0,r0

00030d5c <T_SRC0_855>:
   30d5c:	01 00 00 00 	mod	r0,r0

00030d60 <T_SRC0_856>:
   30d60:	01 00 00 00 	mod	r0,r0

00030d64 <T_SRC0_857>:
   30d64:	01 00 00 00 	mod	r0,r0

00030d68 <T_SRC0_858>:
   30d68:	02 00 00 00 	inc	r0,r0

00030d6c <T_SRC0_859>:
   30d6c:	02 00 00 00 	inc	r0,r0

00030d70 <T_SRC0_860>:
   30d70:	02 00 00 00 	inc	r0,r0

00030d74 <T_SRC0_861>:
   30d74:	02 00 00 00 	inc	r0,r0

00030d78 <T_SRC0_862>:
   30d78:	02 00 00 00 	inc	r0,r0

00030d7c <T_SRC0_863>:
   30d7c:	02 00 00 00 	inc	r0,r0

00030d80 <T_SRC0_864>:
   30d80:	02 00 00 00 	inc	r0,r0

00030d84 <T_SRC0_865>:
   30d84:	02 00 00 00 	inc	r0,r0

00030d88 <T_SRC0_866>:
   30d88:	02 00 00 00 	inc	r0,r0

00030d8c <T_SRC0_867>:
   30d8c:	02 00 00 00 	inc	r0,r0

00030d90 <T_SRC0_868>:
   30d90:	02 00 00 00 	inc	r0,r0

00030d94 <T_SRC0_869>:
   30d94:	02 00 00 00 	inc	r0,r0

00030d98 <T_SRC0_870>:
   30d98:	02 00 00 00 	inc	r0,r0

00030d9c <T_SRC0_871>:
   30d9c:	02 00 00 00 	inc	r0,r0

00030da0 <T_SRC0_872>:
   30da0:	02 00 00 00 	inc	r0,r0

00030da4 <T_SRC0_873>:
   30da4:	02 00 00 00 	inc	r0,r0

00030da8 <T_SRC0_874>:
   30da8:	02 00 00 00 	inc	r0,r0

00030dac <T_SRC0_875>:
   30dac:	02 00 00 00 	inc	r0,r0

00030db0 <T_SRC0_876>:
   30db0:	02 00 00 00 	inc	r0,r0

00030db4 <T_SRC0_877>:
   30db4:	02 00 00 00 	inc	r0,r0

00030db8 <T_SRC0_878>:
   30db8:	02 00 00 00 	inc	r0,r0

00030dbc <T_SRC0_879>:
   30dbc:	02 00 00 00 	inc	r0,r0

00030dc0 <T_SRC0_880>:
   30dc0:	02 00 00 00 	inc	r0,r0

00030dc4 <T_SRC0_881>:
   30dc4:	02 00 00 00 	inc	r0,r0

00030dc8 <T_SRC0_882>:
   30dc8:	02 00 00 00 	inc	r0,r0

00030dcc <T_SRC0_883>:
   30dcc:	02 00 00 00 	inc	r0,r0

00030dd0 <T_SRC0_884>:
   30dd0:	02 00 00 00 	inc	r0,r0

00030dd4 <T_SRC0_885>:
   30dd4:	02 00 00 00 	inc	r0,r0

00030dd8 <T_SRC0_886>:
   30dd8:	02 00 00 00 	inc	r0,r0

00030ddc <T_SRC0_887>:
   30ddc:	02 00 00 00 	inc	r0,r0

00030de0 <T_SRC0_888>:
   30de0:	02 00 00 00 	inc	r0,r0

00030de4 <T_SRC0_889>:
   30de4:	02 00 00 00 	inc	r0,r0

00030de8 <T_SRC0_890>:
   30de8:	02 00 00 00 	inc	r0,r0

00030dec <T_SRC0_891>:
   30dec:	04 00 00 00 	*unknown*

00030df0 <T_SRC0_892>:
   30df0:	04 00 00 00 	*unknown*

00030df4 <T_SRC0_893>:
   30df4:	04 00 00 00 	*unknown*

00030df8 <T_SRC0_894>:
   30df8:	04 00 00 00 	*unknown*

00030dfc <T_SRC0_895>:
   30dfc:	04 00 00 00 	*unknown*

00030e00 <T_SRC0_896>:
   30e00:	04 00 00 00 	*unknown*

00030e04 <T_SRC0_897>:
   30e04:	04 00 00 00 	*unknown*

00030e08 <T_SRC0_898>:
   30e08:	04 00 00 00 	*unknown*

00030e0c <T_SRC0_899>:
   30e0c:	04 00 00 00 	*unknown*

00030e10 <T_SRC0_900>:
   30e10:	04 00 00 00 	*unknown*

00030e14 <T_SRC0_901>:
   30e14:	04 00 00 00 	*unknown*

00030e18 <T_SRC0_902>:
   30e18:	04 00 00 00 	*unknown*

00030e1c <T_SRC0_903>:
   30e1c:	04 00 00 00 	*unknown*

00030e20 <T_SRC0_904>:
   30e20:	04 00 00 00 	*unknown*

00030e24 <T_SRC0_905>:
   30e24:	04 00 00 00 	*unknown*

00030e28 <T_SRC0_906>:
   30e28:	04 00 00 00 	*unknown*

00030e2c <T_SRC0_907>:
   30e2c:	04 00 00 00 	*unknown*

00030e30 <T_SRC0_908>:
   30e30:	04 00 00 00 	*unknown*

00030e34 <T_SRC0_909>:
   30e34:	04 00 00 00 	*unknown*

00030e38 <T_SRC0_910>:
   30e38:	04 00 00 00 	*unknown*

00030e3c <T_SRC0_911>:
   30e3c:	04 00 00 00 	*unknown*

00030e40 <T_SRC0_912>:
   30e40:	04 00 00 00 	*unknown*

00030e44 <T_SRC0_913>:
   30e44:	04 00 00 00 	*unknown*

00030e48 <T_SRC0_914>:
   30e48:	04 00 00 00 	*unknown*

00030e4c <T_SRC0_915>:
   30e4c:	04 00 00 00 	*unknown*

00030e50 <T_SRC0_916>:
   30e50:	04 00 00 00 	*unknown*

00030e54 <T_SRC0_917>:
   30e54:	04 00 00 00 	*unknown*

00030e58 <T_SRC0_918>:
   30e58:	04 00 00 00 	*unknown*

00030e5c <T_SRC0_919>:
   30e5c:	04 00 00 00 	*unknown*

00030e60 <T_SRC0_920>:
   30e60:	04 00 00 00 	*unknown*

00030e64 <T_SRC0_921>:
   30e64:	04 00 00 00 	*unknown*

00030e68 <T_SRC0_922>:
   30e68:	04 00 00 00 	*unknown*

00030e6c <T_SRC0_923>:
   30e6c:	04 00 00 00 	*unknown*

00030e70 <T_SRC0_924>:
   30e70:	08 00 00 00 	shl	r0,r0

00030e74 <T_SRC0_925>:
   30e74:	08 00 00 00 	shl	r0,r0

00030e78 <T_SRC0_926>:
   30e78:	08 00 00 00 	shl	r0,r0

00030e7c <T_SRC0_927>:
   30e7c:	08 00 00 00 	shl	r0,r0

00030e80 <T_SRC0_928>:
   30e80:	08 00 00 00 	shl	r0,r0

00030e84 <T_SRC0_929>:
   30e84:	08 00 00 00 	shl	r0,r0

00030e88 <T_SRC0_930>:
   30e88:	08 00 00 00 	shl	r0,r0

00030e8c <T_SRC0_931>:
   30e8c:	08 00 00 00 	shl	r0,r0

00030e90 <T_SRC0_932>:
   30e90:	08 00 00 00 	shl	r0,r0

00030e94 <T_SRC0_933>:
   30e94:	08 00 00 00 	shl	r0,r0

00030e98 <T_SRC0_934>:
   30e98:	08 00 00 00 	shl	r0,r0

00030e9c <T_SRC0_935>:
   30e9c:	08 00 00 00 	shl	r0,r0

00030ea0 <T_SRC0_936>:
   30ea0:	08 00 00 00 	shl	r0,r0

00030ea4 <T_SRC0_937>:
   30ea4:	08 00 00 00 	shl	r0,r0

00030ea8 <T_SRC0_938>:
   30ea8:	08 00 00 00 	shl	r0,r0

00030eac <T_SRC0_939>:
   30eac:	08 00 00 00 	shl	r0,r0

00030eb0 <T_SRC0_940>:
   30eb0:	08 00 00 00 	shl	r0,r0

00030eb4 <T_SRC0_941>:
   30eb4:	08 00 00 00 	shl	r0,r0

00030eb8 <T_SRC0_942>:
   30eb8:	08 00 00 00 	shl	r0,r0

00030ebc <T_SRC0_943>:
   30ebc:	08 00 00 00 	shl	r0,r0

00030ec0 <T_SRC0_944>:
   30ec0:	08 00 00 00 	shl	r0,r0

00030ec4 <T_SRC0_945>:
   30ec4:	08 00 00 00 	shl	r0,r0

00030ec8 <T_SRC0_946>:
   30ec8:	08 00 00 00 	shl	r0,r0

00030ecc <T_SRC0_947>:
   30ecc:	08 00 00 00 	shl	r0,r0

00030ed0 <T_SRC0_948>:
   30ed0:	08 00 00 00 	shl	r0,r0

00030ed4 <T_SRC0_949>:
   30ed4:	08 00 00 00 	shl	r0,r0

00030ed8 <T_SRC0_950>:
   30ed8:	08 00 00 00 	shl	r0,r0

00030edc <T_SRC0_951>:
   30edc:	08 00 00 00 	shl	r0,r0

00030ee0 <T_SRC0_952>:
   30ee0:	08 00 00 00 	shl	r0,r0

00030ee4 <T_SRC0_953>:
   30ee4:	08 00 00 00 	shl	r0,r0

00030ee8 <T_SRC0_954>:
   30ee8:	08 00 00 00 	shl	r0,r0

00030eec <T_SRC0_955>:
   30eec:	08 00 00 00 	shl	r0,r0

00030ef0 <T_SRC0_956>:
   30ef0:	08 00 00 00 	shl	r0,r0

00030ef4 <T_SRC0_957>:
   30ef4:	10 00 00 00 	ld8	r0,r0

00030ef8 <T_SRC0_958>:
   30ef8:	10 00 00 00 	ld8	r0,r0

00030efc <T_SRC0_959>:
   30efc:	10 00 00 00 	ld8	r0,r0

00030f00 <T_SRC0_960>:
   30f00:	10 00 00 00 	ld8	r0,r0

00030f04 <T_SRC0_961>:
   30f04:	10 00 00 00 	ld8	r0,r0

00030f08 <T_SRC0_962>:
   30f08:	10 00 00 00 	ld8	r0,r0

00030f0c <T_SRC0_963>:
   30f0c:	10 00 00 00 	ld8	r0,r0

00030f10 <T_SRC0_964>:
   30f10:	10 00 00 00 	ld8	r0,r0

00030f14 <T_SRC0_965>:
   30f14:	10 00 00 00 	ld8	r0,r0

00030f18 <T_SRC0_966>:
   30f18:	10 00 00 00 	ld8	r0,r0

00030f1c <T_SRC0_967>:
   30f1c:	10 00 00 00 	ld8	r0,r0

00030f20 <T_SRC0_968>:
   30f20:	10 00 00 00 	ld8	r0,r0

00030f24 <T_SRC0_969>:
   30f24:	10 00 00 00 	ld8	r0,r0

00030f28 <T_SRC0_970>:
   30f28:	10 00 00 00 	ld8	r0,r0

00030f2c <T_SRC0_971>:
   30f2c:	10 00 00 00 	ld8	r0,r0

00030f30 <T_SRC0_972>:
   30f30:	10 00 00 00 	ld8	r0,r0

00030f34 <T_SRC0_973>:
   30f34:	10 00 00 00 	ld8	r0,r0

00030f38 <T_SRC0_974>:
   30f38:	10 00 00 00 	ld8	r0,r0

00030f3c <T_SRC0_975>:
   30f3c:	10 00 00 00 	ld8	r0,r0

00030f40 <T_SRC0_976>:
   30f40:	10 00 00 00 	ld8	r0,r0

00030f44 <T_SRC0_977>:
   30f44:	10 00 00 00 	ld8	r0,r0

00030f48 <T_SRC0_978>:
   30f48:	10 00 00 00 	ld8	r0,r0

00030f4c <T_SRC0_979>:
   30f4c:	10 00 00 00 	ld8	r0,r0

00030f50 <T_SRC0_980>:
   30f50:	10 00 00 00 	ld8	r0,r0

00030f54 <T_SRC0_981>:
   30f54:	10 00 00 00 	ld8	r0,r0

00030f58 <T_SRC0_982>:
   30f58:	10 00 00 00 	ld8	r0,r0

00030f5c <T_SRC0_983>:
   30f5c:	10 00 00 00 	ld8	r0,r0

00030f60 <T_SRC0_984>:
   30f60:	10 00 00 00 	ld8	r0,r0

00030f64 <T_SRC0_985>:
   30f64:	10 00 00 00 	ld8	r0,r0

00030f68 <T_SRC0_986>:
   30f68:	10 00 00 00 	ld8	r0,r0

00030f6c <T_SRC0_987>:
   30f6c:	10 00 00 00 	ld8	r0,r0

00030f70 <T_SRC0_988>:
   30f70:	10 00 00 00 	ld8	r0,r0

00030f74 <T_SRC0_989>:
   30f74:	10 00 00 00 	ld8	r0,r0

00030f78 <T_SRC0_990>:
   30f78:	20 00 00 00 	nop

00030f7c <T_SRC0_991>:
   30f7c:	20 00 00 00 	nop

00030f80 <T_SRC0_992>:
   30f80:	20 00 00 00 	nop

00030f84 <T_SRC0_993>:
   30f84:	20 00 00 00 	nop

00030f88 <T_SRC0_994>:
   30f88:	20 00 00 00 	nop

00030f8c <T_SRC0_995>:
   30f8c:	20 00 00 00 	nop

00030f90 <T_SRC0_996>:
   30f90:	20 00 00 00 	nop

00030f94 <T_SRC0_997>:
   30f94:	20 00 00 00 	nop

00030f98 <T_SRC0_998>:
   30f98:	20 00 00 00 	nop

00030f9c <T_SRC0_999>:
   30f9c:	20 00 00 00 	nop

00030fa0 <T_SRC0_1000>:
   30fa0:	20 00 00 00 	nop

00030fa4 <T_SRC0_1001>:
   30fa4:	20 00 00 00 	nop

00030fa8 <T_SRC0_1002>:
   30fa8:	20 00 00 00 	nop

00030fac <T_SRC0_1003>:
   30fac:	20 00 00 00 	nop

00030fb0 <T_SRC0_1004>:
   30fb0:	20 00 00 00 	nop

00030fb4 <T_SRC0_1005>:
   30fb4:	20 00 00 00 	nop

00030fb8 <T_SRC0_1006>:
   30fb8:	20 00 00 00 	nop

00030fbc <T_SRC0_1007>:
   30fbc:	20 00 00 00 	nop

00030fc0 <T_SRC0_1008>:
   30fc0:	20 00 00 00 	nop

00030fc4 <T_SRC0_1009>:
   30fc4:	20 00 00 00 	nop

00030fc8 <T_SRC0_1010>:
   30fc8:	20 00 00 00 	nop

00030fcc <T_SRC0_1011>:
   30fcc:	20 00 00 00 	nop

00030fd0 <T_SRC0_1012>:
   30fd0:	20 00 00 00 	nop

00030fd4 <T_SRC0_1013>:
   30fd4:	20 00 00 00 	nop

00030fd8 <T_SRC0_1014>:
   30fd8:	20 00 00 00 	nop

00030fdc <T_SRC0_1015>:
   30fdc:	20 00 00 00 	nop

00030fe0 <T_SRC0_1016>:
   30fe0:	20 00 00 00 	nop

00030fe4 <T_SRC0_1017>:
   30fe4:	20 00 00 00 	nop

00030fe8 <T_SRC0_1018>:
   30fe8:	20 00 00 00 	nop

00030fec <T_SRC0_1019>:
   30fec:	20 00 00 00 	nop

00030ff0 <T_SRC0_1020>:
   30ff0:	20 00 00 00 	nop

00030ff4 <T_SRC0_1021>:
   30ff4:	20 00 00 00 	nop

00030ff8 <T_SRC0_1022>:
   30ff8:	20 00 00 00 	nop

00030ffc <T_SRC0_1023>:
   30ffc:	40 00 00 00 	*unknown*

00031000 <T_SRC0_1024>:
   31000:	40 00 00 00 	*unknown*

00031004 <T_SRC0_1025>:
   31004:	40 00 00 00 	*unknown*

00031008 <T_SRC0_1026>:
   31008:	40 00 00 00 	*unknown*

0003100c <T_SRC0_1027>:
   3100c:	40 00 00 00 	*unknown*

00031010 <T_SRC0_1028>:
   31010:	40 00 00 00 	*unknown*

00031014 <T_SRC0_1029>:
   31014:	40 00 00 00 	*unknown*

00031018 <T_SRC0_1030>:
   31018:	40 00 00 00 	*unknown*

0003101c <T_SRC0_1031>:
   3101c:	40 00 00 00 	*unknown*

00031020 <T_SRC0_1032>:
   31020:	40 00 00 00 	*unknown*

00031024 <T_SRC0_1033>:
   31024:	40 00 00 00 	*unknown*

00031028 <T_SRC0_1034>:
   31028:	40 00 00 00 	*unknown*

0003102c <T_SRC0_1035>:
   3102c:	40 00 00 00 	*unknown*

00031030 <T_SRC0_1036>:
   31030:	40 00 00 00 	*unknown*

00031034 <T_SRC0_1037>:
   31034:	40 00 00 00 	*unknown*

00031038 <T_SRC0_1038>:
   31038:	40 00 00 00 	*unknown*

0003103c <T_SRC0_1039>:
   3103c:	40 00 00 00 	*unknown*

00031040 <T_SRC0_1040>:
   31040:	40 00 00 00 	*unknown*

00031044 <T_SRC0_1041>:
   31044:	40 00 00 00 	*unknown*

00031048 <T_SRC0_1042>:
   31048:	40 00 00 00 	*unknown*

0003104c <T_SRC0_1043>:
   3104c:	40 00 00 00 	*unknown*

00031050 <T_SRC0_1044>:
   31050:	40 00 00 00 	*unknown*

00031054 <T_SRC0_1045>:
   31054:	40 00 00 00 	*unknown*

00031058 <T_SRC0_1046>:
   31058:	40 00 00 00 	*unknown*

0003105c <T_SRC0_1047>:
   3105c:	40 00 00 00 	*unknown*

00031060 <T_SRC0_1048>:
   31060:	40 00 00 00 	*unknown*

00031064 <T_SRC0_1049>:
   31064:	40 00 00 00 	*unknown*

00031068 <T_SRC0_1050>:
   31068:	40 00 00 00 	*unknown*

0003106c <T_SRC0_1051>:
   3106c:	40 00 00 00 	*unknown*

00031070 <T_SRC0_1052>:
   31070:	40 00 00 00 	*unknown*

00031074 <T_SRC0_1053>:
   31074:	40 00 00 00 	*unknown*

00031078 <T_SRC0_1054>:
   31078:	40 00 00 00 	*unknown*

0003107c <T_SRC0_1055>:
   3107c:	40 00 00 00 	*unknown*

00031080 <T_SRC0_1056>:
   31080:	80 00 00 00 	*unknown*

00031084 <T_SRC0_1057>:
   31084:	80 00 00 00 	*unknown*

00031088 <T_SRC0_1058>:
   31088:	80 00 00 00 	*unknown*

0003108c <T_SRC0_1059>:
   3108c:	80 00 00 00 	*unknown*

00031090 <T_SRC0_1060>:
   31090:	80 00 00 00 	*unknown*

00031094 <T_SRC0_1061>:
   31094:	80 00 00 00 	*unknown*

00031098 <T_SRC0_1062>:
   31098:	80 00 00 00 	*unknown*

0003109c <T_SRC0_1063>:
   3109c:	80 00 00 00 	*unknown*

000310a0 <T_SRC0_1064>:
   310a0:	80 00 00 00 	*unknown*

000310a4 <T_SRC0_1065>:
   310a4:	80 00 00 00 	*unknown*

000310a8 <T_SRC0_1066>:
   310a8:	80 00 00 00 	*unknown*

000310ac <T_SRC0_1067>:
   310ac:	80 00 00 00 	*unknown*

000310b0 <T_SRC0_1068>:
   310b0:	80 00 00 00 	*unknown*

000310b4 <T_SRC0_1069>:
   310b4:	80 00 00 00 	*unknown*

000310b8 <T_SRC0_1070>:
   310b8:	80 00 00 00 	*unknown*

000310bc <T_SRC0_1071>:
   310bc:	80 00 00 00 	*unknown*

000310c0 <T_SRC0_1072>:
   310c0:	80 00 00 00 	*unknown*

000310c4 <T_SRC0_1073>:
   310c4:	80 00 00 00 	*unknown*

000310c8 <T_SRC0_1074>:
   310c8:	80 00 00 00 	*unknown*

000310cc <T_SRC0_1075>:
   310cc:	80 00 00 00 	*unknown*

000310d0 <T_SRC0_1076>:
   310d0:	80 00 00 00 	*unknown*

000310d4 <T_SRC0_1077>:
   310d4:	80 00 00 00 	*unknown*

000310d8 <T_SRC0_1078>:
   310d8:	80 00 00 00 	*unknown*

000310dc <T_SRC0_1079>:
   310dc:	80 00 00 00 	*unknown*

000310e0 <T_SRC0_1080>:
   310e0:	80 00 00 00 	*unknown*

000310e4 <T_SRC0_1081>:
   310e4:	80 00 00 00 	*unknown*

000310e8 <T_SRC0_1082>:
   310e8:	80 00 00 00 	*unknown*

000310ec <T_SRC0_1083>:
   310ec:	80 00 00 00 	*unknown*

000310f0 <T_SRC0_1084>:
   310f0:	80 00 00 00 	*unknown*

000310f4 <T_SRC0_1085>:
   310f4:	80 00 00 00 	*unknown*

000310f8 <T_SRC0_1086>:
   310f8:	80 00 00 00 	*unknown*

000310fc <T_SRC0_1087>:
   310fc:	80 00 00 00 	*unknown*

00031100 <T_SRC0_1088>:
   31100:	80 00 00 00 	*unknown*

00031104 <T_SRC0_1089>:
   31104:	00 00 00 03 	add	r0,r3

00031108 <T_SRC0_1090>:
   31108:	00 00 00 07 	add	r0,rtmp

0003110c <T_SRC0_1091>:
   3110c:	00 00 00 0f 	add	r0,r15

00031110 <T_SRC0_1092>:
   31110:	00 00 00 1f 	add	r0,rret

00031114 <T_SRC0_1093>:
   31114:	00 00 00 3f 	add	r1,rret

00031118 <T_SRC0_1094>:
   31118:	00 00 00 7f 	add	r3,rret

0003111c <T_SRC0_1095>:
   3111c:	00 00 00 ff 	add	rtmp,rret

00031120 <T_SRC0_1096>:
   31120:	00 00 01 ff 	add	r15,rret

00031124 <T_SRC0_1097>:
   31124:	00 00 03 ff 	add	rret,rret

00031128 <T_SRC0_1098>:
   31128:	00 00 07 ff 	*unknown*

0003112c <T_SRC0_1099>:
   3112c:	00 00 0f ff 	*unknown*

00031130 <T_SRC0_1100>:
   31130:	00 00 1f ff 	*unknown*

00031134 <T_SRC0_1101>:
   31134:	00 00 3f ff 	*unknown*

00031138 <T_SRC0_1102>:
   31138:	00 00 7f ff 	*unknown*

0003113c <T_SRC0_1103>:
   3113c:	00 00 ff ff 	*unknown*

00031140 <T_SRC0_1104>:
   31140:	00 01 ff ff 	*unknown*

00031144 <T_SRC0_1105>:
   31144:	00 03 ff ff 	*unknown*

00031148 <T_SRC0_1106>:
   31148:	00 07 ff ff 	*unknown*

0003114c <T_SRC0_1107>:
   3114c:	00 0f ff ff 	*unknown*

00031150 <T_SRC0_1108>:
   31150:	00 1f ff ff 	*unknown*

00031154 <T_SRC0_1109>:
   31154:	00 3f ff ff 	*unknown*

00031158 <T_SRC0_1110>:
   31158:	00 7f ff ff 	*unknown*

0003115c <T_SRC0_1111>:
   3115c:	00 ff ff ff 	*unknown*

00031160 <T_SRC0_1112>:
   31160:	01 ff ff ff 	*unknown*

00031164 <T_SRC0_1113>:
   31164:	03 ff ff ff 	*unknown*

00031168 <T_SRC0_1114>:
   31168:	07 ff ff ff 	*unknown*

0003116c <T_SRC0_1115>:
   3116c:	0f ff ff ff 	*unknown*

00031170 <T_SRC0_1116>:
   31170:	1f ff ff ff 	*unknown*

00031174 <T_SRC0_1117>:
   31174:	3f ff ff ff 	*unknown*

00031178 <T_SRC0_1118>:
   31178:	7f ff ff ff 	*unknown*

0003117c <T_SRC0_1119>:
   3117c:	ff ff ff ff 	*unknown*

00031180 <T_SRC1_0>:
   31180:	00 00 00 00 	add	r0,r0

00031184 <T_SRC1_1>:
   31184:	00 00 00 01 	add	r0,r1

00031188 <T_SRC1_2>:
   31188:	00 00 00 02 	add	r0,r2

0003118c <T_SRC1_3>:
   3118c:	00 00 00 04 	add	r0,r4

00031190 <T_SRC1_4>:
   31190:	00 00 00 08 	add	r0,r8

00031194 <T_SRC1_5>:
   31194:	00 00 00 10 	add	r0,r16

00031198 <T_SRC1_6>:
   31198:	00 00 00 20 	add	r1,r0

0003119c <T_SRC1_7>:
   3119c:	00 00 00 40 	add	r2,r0

000311a0 <T_SRC1_8>:
   311a0:	00 00 00 80 	add	r4,r0

000311a4 <T_SRC1_9>:
   311a4:	00 00 01 00 	add	r8,r0

000311a8 <T_SRC1_10>:
   311a8:	00 00 02 00 	add	r16,r0

000311ac <T_SRC1_11>:
   311ac:	00 00 04 00 	*unknown*

000311b0 <T_SRC1_12>:
   311b0:	00 00 08 00 	*unknown*

000311b4 <T_SRC1_13>:
   311b4:	00 00 10 00 	*unknown*

000311b8 <T_SRC1_14>:
   311b8:	00 00 20 00 	*unknown*

000311bc <T_SRC1_15>:
   311bc:	00 00 40 00 	*unknown*

000311c0 <T_SRC1_16>:
   311c0:	00 00 80 00 	*unknown*

000311c4 <T_SRC1_17>:
   311c4:	00 01 00 00 	*unknown*

000311c8 <T_SRC1_18>:
   311c8:	00 02 00 00 	*unknown*

000311cc <T_SRC1_19>:
   311cc:	00 04 00 00 	*unknown*

000311d0 <T_SRC1_20>:
   311d0:	00 08 00 00 	*unknown*

000311d4 <T_SRC1_21>:
   311d4:	00 10 00 00 	add	r0,0

000311d8 <T_SRC1_22>:
   311d8:	00 20 00 00 	sub	r0,r0

000311dc <T_SRC1_23>:
   311dc:	00 40 00 00 	mull	r0,r0

000311e0 <T_SRC1_24>:
   311e0:	00 80 00 00 	udiv	r0,r0

000311e4 <T_SRC1_25>:
   311e4:	01 00 00 00 	mod	r0,r0

000311e8 <T_SRC1_26>:
   311e8:	02 00 00 00 	inc	r0,r0

000311ec <T_SRC1_27>:
   311ec:	04 00 00 00 	*unknown*

000311f0 <T_SRC1_28>:
   311f0:	08 00 00 00 	shl	r0,r0

000311f4 <T_SRC1_29>:
   311f4:	10 00 00 00 	ld8	r0,r0

000311f8 <T_SRC1_30>:
   311f8:	20 00 00 00 	nop

000311fc <T_SRC1_31>:
   311fc:	40 00 00 00 	*unknown*

00031200 <T_SRC1_32>:
   31200:	80 00 00 00 	*unknown*

00031204 <T_SRC1_33>:
   31204:	00 00 00 00 	add	r0,r0

00031208 <T_SRC1_34>:
   31208:	00 00 00 01 	add	r0,r1

0003120c <T_SRC1_35>:
   3120c:	00 00 00 02 	add	r0,r2

00031210 <T_SRC1_36>:
   31210:	00 00 00 04 	add	r0,r4

00031214 <T_SRC1_37>:
   31214:	00 00 00 08 	add	r0,r8

00031218 <T_SRC1_38>:
   31218:	00 00 00 10 	add	r0,r16

0003121c <T_SRC1_39>:
   3121c:	00 00 00 20 	add	r1,r0

00031220 <T_SRC1_40>:
   31220:	00 00 00 40 	add	r2,r0

00031224 <T_SRC1_41>:
   31224:	00 00 00 80 	add	r4,r0

00031228 <T_SRC1_42>:
   31228:	00 00 01 00 	add	r8,r0

0003122c <T_SRC1_43>:
   3122c:	00 00 02 00 	add	r16,r0

00031230 <T_SRC1_44>:
   31230:	00 00 04 00 	*unknown*

00031234 <T_SRC1_45>:
   31234:	00 00 08 00 	*unknown*

00031238 <T_SRC1_46>:
   31238:	00 00 10 00 	*unknown*

0003123c <T_SRC1_47>:
   3123c:	00 00 20 00 	*unknown*

00031240 <T_SRC1_48>:
   31240:	00 00 40 00 	*unknown*

00031244 <T_SRC1_49>:
   31244:	00 00 80 00 	*unknown*

00031248 <T_SRC1_50>:
   31248:	00 01 00 00 	*unknown*

0003124c <T_SRC1_51>:
   3124c:	00 02 00 00 	*unknown*

00031250 <T_SRC1_52>:
   31250:	00 04 00 00 	*unknown*

00031254 <T_SRC1_53>:
   31254:	00 08 00 00 	*unknown*

00031258 <T_SRC1_54>:
   31258:	00 10 00 00 	add	r0,0

0003125c <T_SRC1_55>:
   3125c:	00 20 00 00 	sub	r0,r0

00031260 <T_SRC1_56>:
   31260:	00 40 00 00 	mull	r0,r0

00031264 <T_SRC1_57>:
   31264:	00 80 00 00 	udiv	r0,r0

00031268 <T_SRC1_58>:
   31268:	01 00 00 00 	mod	r0,r0

0003126c <T_SRC1_59>:
   3126c:	02 00 00 00 	inc	r0,r0

00031270 <T_SRC1_60>:
   31270:	04 00 00 00 	*unknown*

00031274 <T_SRC1_61>:
   31274:	08 00 00 00 	shl	r0,r0

00031278 <T_SRC1_62>:
   31278:	10 00 00 00 	ld8	r0,r0

0003127c <T_SRC1_63>:
   3127c:	20 00 00 00 	nop

00031280 <T_SRC1_64>:
   31280:	40 00 00 00 	*unknown*

00031284 <T_SRC1_65>:
   31284:	80 00 00 00 	*unknown*

00031288 <T_SRC1_66>:
   31288:	00 00 00 00 	add	r0,r0

0003128c <T_SRC1_67>:
   3128c:	00 00 00 01 	add	r0,r1

00031290 <T_SRC1_68>:
   31290:	00 00 00 02 	add	r0,r2

00031294 <T_SRC1_69>:
   31294:	00 00 00 04 	add	r0,r4

00031298 <T_SRC1_70>:
   31298:	00 00 00 08 	add	r0,r8

0003129c <T_SRC1_71>:
   3129c:	00 00 00 10 	add	r0,r16

000312a0 <T_SRC1_72>:
   312a0:	00 00 00 20 	add	r1,r0

000312a4 <T_SRC1_73>:
   312a4:	00 00 00 40 	add	r2,r0

000312a8 <T_SRC1_74>:
   312a8:	00 00 00 80 	add	r4,r0

000312ac <T_SRC1_75>:
   312ac:	00 00 01 00 	add	r8,r0

000312b0 <T_SRC1_76>:
   312b0:	00 00 02 00 	add	r16,r0

000312b4 <T_SRC1_77>:
   312b4:	00 00 04 00 	*unknown*

000312b8 <T_SRC1_78>:
   312b8:	00 00 08 00 	*unknown*

000312bc <T_SRC1_79>:
   312bc:	00 00 10 00 	*unknown*

000312c0 <T_SRC1_80>:
   312c0:	00 00 20 00 	*unknown*

000312c4 <T_SRC1_81>:
   312c4:	00 00 40 00 	*unknown*

000312c8 <T_SRC1_82>:
   312c8:	00 00 80 00 	*unknown*

000312cc <T_SRC1_83>:
   312cc:	00 01 00 00 	*unknown*

000312d0 <T_SRC1_84>:
   312d0:	00 02 00 00 	*unknown*

000312d4 <T_SRC1_85>:
   312d4:	00 04 00 00 	*unknown*

000312d8 <T_SRC1_86>:
   312d8:	00 08 00 00 	*unknown*

000312dc <T_SRC1_87>:
   312dc:	00 10 00 00 	add	r0,0

000312e0 <T_SRC1_88>:
   312e0:	00 20 00 00 	sub	r0,r0

000312e4 <T_SRC1_89>:
   312e4:	00 40 00 00 	mull	r0,r0

000312e8 <T_SRC1_90>:
   312e8:	00 80 00 00 	udiv	r0,r0

000312ec <T_SRC1_91>:
   312ec:	01 00 00 00 	mod	r0,r0

000312f0 <T_SRC1_92>:
   312f0:	02 00 00 00 	inc	r0,r0

000312f4 <T_SRC1_93>:
   312f4:	04 00 00 00 	*unknown*

000312f8 <T_SRC1_94>:
   312f8:	08 00 00 00 	shl	r0,r0

000312fc <T_SRC1_95>:
   312fc:	10 00 00 00 	ld8	r0,r0

00031300 <T_SRC1_96>:
   31300:	20 00 00 00 	nop

00031304 <T_SRC1_97>:
   31304:	40 00 00 00 	*unknown*

00031308 <T_SRC1_98>:
   31308:	80 00 00 00 	*unknown*

0003130c <T_SRC1_99>:
   3130c:	00 00 00 00 	add	r0,r0

00031310 <T_SRC1_100>:
   31310:	00 00 00 01 	add	r0,r1

00031314 <T_SRC1_101>:
   31314:	00 00 00 02 	add	r0,r2

00031318 <T_SRC1_102>:
   31318:	00 00 00 04 	add	r0,r4

0003131c <T_SRC1_103>:
   3131c:	00 00 00 08 	add	r0,r8

00031320 <T_SRC1_104>:
   31320:	00 00 00 10 	add	r0,r16

00031324 <T_SRC1_105>:
   31324:	00 00 00 20 	add	r1,r0

00031328 <T_SRC1_106>:
   31328:	00 00 00 40 	add	r2,r0

0003132c <T_SRC1_107>:
   3132c:	00 00 00 80 	add	r4,r0

00031330 <T_SRC1_108>:
   31330:	00 00 01 00 	add	r8,r0

00031334 <T_SRC1_109>:
   31334:	00 00 02 00 	add	r16,r0

00031338 <T_SRC1_110>:
   31338:	00 00 04 00 	*unknown*

0003133c <T_SRC1_111>:
   3133c:	00 00 08 00 	*unknown*

00031340 <T_SRC1_112>:
   31340:	00 00 10 00 	*unknown*

00031344 <T_SRC1_113>:
   31344:	00 00 20 00 	*unknown*

00031348 <T_SRC1_114>:
   31348:	00 00 40 00 	*unknown*

0003134c <T_SRC1_115>:
   3134c:	00 00 80 00 	*unknown*

00031350 <T_SRC1_116>:
   31350:	00 01 00 00 	*unknown*

00031354 <T_SRC1_117>:
   31354:	00 02 00 00 	*unknown*

00031358 <T_SRC1_118>:
   31358:	00 04 00 00 	*unknown*

0003135c <T_SRC1_119>:
   3135c:	00 08 00 00 	*unknown*

00031360 <T_SRC1_120>:
   31360:	00 10 00 00 	add	r0,0

00031364 <T_SRC1_121>:
   31364:	00 20 00 00 	sub	r0,r0

00031368 <T_SRC1_122>:
   31368:	00 40 00 00 	mull	r0,r0

0003136c <T_SRC1_123>:
   3136c:	00 80 00 00 	udiv	r0,r0

00031370 <T_SRC1_124>:
   31370:	01 00 00 00 	mod	r0,r0

00031374 <T_SRC1_125>:
   31374:	02 00 00 00 	inc	r0,r0

00031378 <T_SRC1_126>:
   31378:	04 00 00 00 	*unknown*

0003137c <T_SRC1_127>:
   3137c:	08 00 00 00 	shl	r0,r0

00031380 <T_SRC1_128>:
   31380:	10 00 00 00 	ld8	r0,r0

00031384 <T_SRC1_129>:
   31384:	20 00 00 00 	nop

00031388 <T_SRC1_130>:
   31388:	40 00 00 00 	*unknown*

0003138c <T_SRC1_131>:
   3138c:	80 00 00 00 	*unknown*

00031390 <T_SRC1_132>:
   31390:	00 00 00 00 	add	r0,r0

00031394 <T_SRC1_133>:
   31394:	00 00 00 01 	add	r0,r1

00031398 <T_SRC1_134>:
   31398:	00 00 00 02 	add	r0,r2

0003139c <T_SRC1_135>:
   3139c:	00 00 00 04 	add	r0,r4

000313a0 <T_SRC1_136>:
   313a0:	00 00 00 08 	add	r0,r8

000313a4 <T_SRC1_137>:
   313a4:	00 00 00 10 	add	r0,r16

000313a8 <T_SRC1_138>:
   313a8:	00 00 00 20 	add	r1,r0

000313ac <T_SRC1_139>:
   313ac:	00 00 00 40 	add	r2,r0

000313b0 <T_SRC1_140>:
   313b0:	00 00 00 80 	add	r4,r0

000313b4 <T_SRC1_141>:
   313b4:	00 00 01 00 	add	r8,r0

000313b8 <T_SRC1_142>:
   313b8:	00 00 02 00 	add	r16,r0

000313bc <T_SRC1_143>:
   313bc:	00 00 04 00 	*unknown*

000313c0 <T_SRC1_144>:
   313c0:	00 00 08 00 	*unknown*

000313c4 <T_SRC1_145>:
   313c4:	00 00 10 00 	*unknown*

000313c8 <T_SRC1_146>:
   313c8:	00 00 20 00 	*unknown*

000313cc <T_SRC1_147>:
   313cc:	00 00 40 00 	*unknown*

000313d0 <T_SRC1_148>:
   313d0:	00 00 80 00 	*unknown*

000313d4 <T_SRC1_149>:
   313d4:	00 01 00 00 	*unknown*

000313d8 <T_SRC1_150>:
   313d8:	00 02 00 00 	*unknown*

000313dc <T_SRC1_151>:
   313dc:	00 04 00 00 	*unknown*

000313e0 <T_SRC1_152>:
   313e0:	00 08 00 00 	*unknown*

000313e4 <T_SRC1_153>:
   313e4:	00 10 00 00 	add	r0,0

000313e8 <T_SRC1_154>:
   313e8:	00 20 00 00 	sub	r0,r0

000313ec <T_SRC1_155>:
   313ec:	00 40 00 00 	mull	r0,r0

000313f0 <T_SRC1_156>:
   313f0:	00 80 00 00 	udiv	r0,r0

000313f4 <T_SRC1_157>:
   313f4:	01 00 00 00 	mod	r0,r0

000313f8 <T_SRC1_158>:
   313f8:	02 00 00 00 	inc	r0,r0

000313fc <T_SRC1_159>:
   313fc:	04 00 00 00 	*unknown*

00031400 <T_SRC1_160>:
   31400:	08 00 00 00 	shl	r0,r0

00031404 <T_SRC1_161>:
   31404:	10 00 00 00 	ld8	r0,r0

00031408 <T_SRC1_162>:
   31408:	20 00 00 00 	nop

0003140c <T_SRC1_163>:
   3140c:	40 00 00 00 	*unknown*

00031410 <T_SRC1_164>:
   31410:	80 00 00 00 	*unknown*

00031414 <T_SRC1_165>:
   31414:	00 00 00 00 	add	r0,r0

00031418 <T_SRC1_166>:
   31418:	00 00 00 01 	add	r0,r1

0003141c <T_SRC1_167>:
   3141c:	00 00 00 02 	add	r0,r2

00031420 <T_SRC1_168>:
   31420:	00 00 00 04 	add	r0,r4

00031424 <T_SRC1_169>:
   31424:	00 00 00 08 	add	r0,r8

00031428 <T_SRC1_170>:
   31428:	00 00 00 10 	add	r0,r16

0003142c <T_SRC1_171>:
   3142c:	00 00 00 20 	add	r1,r0

00031430 <T_SRC1_172>:
   31430:	00 00 00 40 	add	r2,r0

00031434 <T_SRC1_173>:
   31434:	00 00 00 80 	add	r4,r0

00031438 <T_SRC1_174>:
   31438:	00 00 01 00 	add	r8,r0

0003143c <T_SRC1_175>:
   3143c:	00 00 02 00 	add	r16,r0

00031440 <T_SRC1_176>:
   31440:	00 00 04 00 	*unknown*

00031444 <T_SRC1_177>:
   31444:	00 00 08 00 	*unknown*

00031448 <T_SRC1_178>:
   31448:	00 00 10 00 	*unknown*

0003144c <T_SRC1_179>:
   3144c:	00 00 20 00 	*unknown*

00031450 <T_SRC1_180>:
   31450:	00 00 40 00 	*unknown*

00031454 <T_SRC1_181>:
   31454:	00 00 80 00 	*unknown*

00031458 <T_SRC1_182>:
   31458:	00 01 00 00 	*unknown*

0003145c <T_SRC1_183>:
   3145c:	00 02 00 00 	*unknown*

00031460 <T_SRC1_184>:
   31460:	00 04 00 00 	*unknown*

00031464 <T_SRC1_185>:
   31464:	00 08 00 00 	*unknown*

00031468 <T_SRC1_186>:
   31468:	00 10 00 00 	add	r0,0

0003146c <T_SRC1_187>:
   3146c:	00 20 00 00 	sub	r0,r0

00031470 <T_SRC1_188>:
   31470:	00 40 00 00 	mull	r0,r0

00031474 <T_SRC1_189>:
   31474:	00 80 00 00 	udiv	r0,r0

00031478 <T_SRC1_190>:
   31478:	01 00 00 00 	mod	r0,r0

0003147c <T_SRC1_191>:
   3147c:	02 00 00 00 	inc	r0,r0

00031480 <T_SRC1_192>:
   31480:	04 00 00 00 	*unknown*

00031484 <T_SRC1_193>:
   31484:	08 00 00 00 	shl	r0,r0

00031488 <T_SRC1_194>:
   31488:	10 00 00 00 	ld8	r0,r0

0003148c <T_SRC1_195>:
   3148c:	20 00 00 00 	nop

00031490 <T_SRC1_196>:
   31490:	40 00 00 00 	*unknown*

00031494 <T_SRC1_197>:
   31494:	80 00 00 00 	*unknown*

00031498 <T_SRC1_198>:
   31498:	00 00 00 00 	add	r0,r0

0003149c <T_SRC1_199>:
   3149c:	00 00 00 01 	add	r0,r1

000314a0 <T_SRC1_200>:
   314a0:	00 00 00 02 	add	r0,r2

000314a4 <T_SRC1_201>:
   314a4:	00 00 00 04 	add	r0,r4

000314a8 <T_SRC1_202>:
   314a8:	00 00 00 08 	add	r0,r8

000314ac <T_SRC1_203>:
   314ac:	00 00 00 10 	add	r0,r16

000314b0 <T_SRC1_204>:
   314b0:	00 00 00 20 	add	r1,r0

000314b4 <T_SRC1_205>:
   314b4:	00 00 00 40 	add	r2,r0

000314b8 <T_SRC1_206>:
   314b8:	00 00 00 80 	add	r4,r0

000314bc <T_SRC1_207>:
   314bc:	00 00 01 00 	add	r8,r0

000314c0 <T_SRC1_208>:
   314c0:	00 00 02 00 	add	r16,r0

000314c4 <T_SRC1_209>:
   314c4:	00 00 04 00 	*unknown*

000314c8 <T_SRC1_210>:
   314c8:	00 00 08 00 	*unknown*

000314cc <T_SRC1_211>:
   314cc:	00 00 10 00 	*unknown*

000314d0 <T_SRC1_212>:
   314d0:	00 00 20 00 	*unknown*

000314d4 <T_SRC1_213>:
   314d4:	00 00 40 00 	*unknown*

000314d8 <T_SRC1_214>:
   314d8:	00 00 80 00 	*unknown*

000314dc <T_SRC1_215>:
   314dc:	00 01 00 00 	*unknown*

000314e0 <T_SRC1_216>:
   314e0:	00 02 00 00 	*unknown*

000314e4 <T_SRC1_217>:
   314e4:	00 04 00 00 	*unknown*

000314e8 <T_SRC1_218>:
   314e8:	00 08 00 00 	*unknown*

000314ec <T_SRC1_219>:
   314ec:	00 10 00 00 	add	r0,0

000314f0 <T_SRC1_220>:
   314f0:	00 20 00 00 	sub	r0,r0

000314f4 <T_SRC1_221>:
   314f4:	00 40 00 00 	mull	r0,r0

000314f8 <T_SRC1_222>:
   314f8:	00 80 00 00 	udiv	r0,r0

000314fc <T_SRC1_223>:
   314fc:	01 00 00 00 	mod	r0,r0

00031500 <T_SRC1_224>:
   31500:	02 00 00 00 	inc	r0,r0

00031504 <T_SRC1_225>:
   31504:	04 00 00 00 	*unknown*

00031508 <T_SRC1_226>:
   31508:	08 00 00 00 	shl	r0,r0

0003150c <T_SRC1_227>:
   3150c:	10 00 00 00 	ld8	r0,r0

00031510 <T_SRC1_228>:
   31510:	20 00 00 00 	nop

00031514 <T_SRC1_229>:
   31514:	40 00 00 00 	*unknown*

00031518 <T_SRC1_230>:
   31518:	80 00 00 00 	*unknown*

0003151c <T_SRC1_231>:
   3151c:	00 00 00 00 	add	r0,r0

00031520 <T_SRC1_232>:
   31520:	00 00 00 01 	add	r0,r1

00031524 <T_SRC1_233>:
   31524:	00 00 00 02 	add	r0,r2

00031528 <T_SRC1_234>:
   31528:	00 00 00 04 	add	r0,r4

0003152c <T_SRC1_235>:
   3152c:	00 00 00 08 	add	r0,r8

00031530 <T_SRC1_236>:
   31530:	00 00 00 10 	add	r0,r16

00031534 <T_SRC1_237>:
   31534:	00 00 00 20 	add	r1,r0

00031538 <T_SRC1_238>:
   31538:	00 00 00 40 	add	r2,r0

0003153c <T_SRC1_239>:
   3153c:	00 00 00 80 	add	r4,r0

00031540 <T_SRC1_240>:
   31540:	00 00 01 00 	add	r8,r0

00031544 <T_SRC1_241>:
   31544:	00 00 02 00 	add	r16,r0

00031548 <T_SRC1_242>:
   31548:	00 00 04 00 	*unknown*

0003154c <T_SRC1_243>:
   3154c:	00 00 08 00 	*unknown*

00031550 <T_SRC1_244>:
   31550:	00 00 10 00 	*unknown*

00031554 <T_SRC1_245>:
   31554:	00 00 20 00 	*unknown*

00031558 <T_SRC1_246>:
   31558:	00 00 40 00 	*unknown*

0003155c <T_SRC1_247>:
   3155c:	00 00 80 00 	*unknown*

00031560 <T_SRC1_248>:
   31560:	00 01 00 00 	*unknown*

00031564 <T_SRC1_249>:
   31564:	00 02 00 00 	*unknown*

00031568 <T_SRC1_250>:
   31568:	00 04 00 00 	*unknown*

0003156c <T_SRC1_251>:
   3156c:	00 08 00 00 	*unknown*

00031570 <T_SRC1_252>:
   31570:	00 10 00 00 	add	r0,0

00031574 <T_SRC1_253>:
   31574:	00 20 00 00 	sub	r0,r0

00031578 <T_SRC1_254>:
   31578:	00 40 00 00 	mull	r0,r0

0003157c <T_SRC1_255>:
   3157c:	00 80 00 00 	udiv	r0,r0

00031580 <T_SRC1_256>:
   31580:	01 00 00 00 	mod	r0,r0

00031584 <T_SRC1_257>:
   31584:	02 00 00 00 	inc	r0,r0

00031588 <T_SRC1_258>:
   31588:	04 00 00 00 	*unknown*

0003158c <T_SRC1_259>:
   3158c:	08 00 00 00 	shl	r0,r0

00031590 <T_SRC1_260>:
   31590:	10 00 00 00 	ld8	r0,r0

00031594 <T_SRC1_261>:
   31594:	20 00 00 00 	nop

00031598 <T_SRC1_262>:
   31598:	40 00 00 00 	*unknown*

0003159c <T_SRC1_263>:
   3159c:	80 00 00 00 	*unknown*

000315a0 <T_SRC1_264>:
   315a0:	00 00 00 00 	add	r0,r0

000315a4 <T_SRC1_265>:
   315a4:	00 00 00 01 	add	r0,r1

000315a8 <T_SRC1_266>:
   315a8:	00 00 00 02 	add	r0,r2

000315ac <T_SRC1_267>:
   315ac:	00 00 00 04 	add	r0,r4

000315b0 <T_SRC1_268>:
   315b0:	00 00 00 08 	add	r0,r8

000315b4 <T_SRC1_269>:
   315b4:	00 00 00 10 	add	r0,r16

000315b8 <T_SRC1_270>:
   315b8:	00 00 00 20 	add	r1,r0

000315bc <T_SRC1_271>:
   315bc:	00 00 00 40 	add	r2,r0

000315c0 <T_SRC1_272>:
   315c0:	00 00 00 80 	add	r4,r0

000315c4 <T_SRC1_273>:
   315c4:	00 00 01 00 	add	r8,r0

000315c8 <T_SRC1_274>:
   315c8:	00 00 02 00 	add	r16,r0

000315cc <T_SRC1_275>:
   315cc:	00 00 04 00 	*unknown*

000315d0 <T_SRC1_276>:
   315d0:	00 00 08 00 	*unknown*

000315d4 <T_SRC1_277>:
   315d4:	00 00 10 00 	*unknown*

000315d8 <T_SRC1_278>:
   315d8:	00 00 20 00 	*unknown*

000315dc <T_SRC1_279>:
   315dc:	00 00 40 00 	*unknown*

000315e0 <T_SRC1_280>:
   315e0:	00 00 80 00 	*unknown*

000315e4 <T_SRC1_281>:
   315e4:	00 01 00 00 	*unknown*

000315e8 <T_SRC1_282>:
   315e8:	00 02 00 00 	*unknown*

000315ec <T_SRC1_283>:
   315ec:	00 04 00 00 	*unknown*

000315f0 <T_SRC1_284>:
   315f0:	00 08 00 00 	*unknown*

000315f4 <T_SRC1_285>:
   315f4:	00 10 00 00 	add	r0,0

000315f8 <T_SRC1_286>:
   315f8:	00 20 00 00 	sub	r0,r0

000315fc <T_SRC1_287>:
   315fc:	00 40 00 00 	mull	r0,r0

00031600 <T_SRC1_288>:
   31600:	00 80 00 00 	udiv	r0,r0

00031604 <T_SRC1_289>:
   31604:	01 00 00 00 	mod	r0,r0

00031608 <T_SRC1_290>:
   31608:	02 00 00 00 	inc	r0,r0

0003160c <T_SRC1_291>:
   3160c:	04 00 00 00 	*unknown*

00031610 <T_SRC1_292>:
   31610:	08 00 00 00 	shl	r0,r0

00031614 <T_SRC1_293>:
   31614:	10 00 00 00 	ld8	r0,r0

00031618 <T_SRC1_294>:
   31618:	20 00 00 00 	nop

0003161c <T_SRC1_295>:
   3161c:	40 00 00 00 	*unknown*

00031620 <T_SRC1_296>:
   31620:	80 00 00 00 	*unknown*

00031624 <T_SRC1_297>:
   31624:	00 00 00 00 	add	r0,r0

00031628 <T_SRC1_298>:
   31628:	00 00 00 01 	add	r0,r1

0003162c <T_SRC1_299>:
   3162c:	00 00 00 02 	add	r0,r2

00031630 <T_SRC1_300>:
   31630:	00 00 00 04 	add	r0,r4

00031634 <T_SRC1_301>:
   31634:	00 00 00 08 	add	r0,r8

00031638 <T_SRC1_302>:
   31638:	00 00 00 10 	add	r0,r16

0003163c <T_SRC1_303>:
   3163c:	00 00 00 20 	add	r1,r0

00031640 <T_SRC1_304>:
   31640:	00 00 00 40 	add	r2,r0

00031644 <T_SRC1_305>:
   31644:	00 00 00 80 	add	r4,r0

00031648 <T_SRC1_306>:
   31648:	00 00 01 00 	add	r8,r0

0003164c <T_SRC1_307>:
   3164c:	00 00 02 00 	add	r16,r0

00031650 <T_SRC1_308>:
   31650:	00 00 04 00 	*unknown*

00031654 <T_SRC1_309>:
   31654:	00 00 08 00 	*unknown*

00031658 <T_SRC1_310>:
   31658:	00 00 10 00 	*unknown*

0003165c <T_SRC1_311>:
   3165c:	00 00 20 00 	*unknown*

00031660 <T_SRC1_312>:
   31660:	00 00 40 00 	*unknown*

00031664 <T_SRC1_313>:
   31664:	00 00 80 00 	*unknown*

00031668 <T_SRC1_314>:
   31668:	00 01 00 00 	*unknown*

0003166c <T_SRC1_315>:
   3166c:	00 02 00 00 	*unknown*

00031670 <T_SRC1_316>:
   31670:	00 04 00 00 	*unknown*

00031674 <T_SRC1_317>:
   31674:	00 08 00 00 	*unknown*

00031678 <T_SRC1_318>:
   31678:	00 10 00 00 	add	r0,0

0003167c <T_SRC1_319>:
   3167c:	00 20 00 00 	sub	r0,r0

00031680 <T_SRC1_320>:
   31680:	00 40 00 00 	mull	r0,r0

00031684 <T_SRC1_321>:
   31684:	00 80 00 00 	udiv	r0,r0

00031688 <T_SRC1_322>:
   31688:	01 00 00 00 	mod	r0,r0

0003168c <T_SRC1_323>:
   3168c:	02 00 00 00 	inc	r0,r0

00031690 <T_SRC1_324>:
   31690:	04 00 00 00 	*unknown*

00031694 <T_SRC1_325>:
   31694:	08 00 00 00 	shl	r0,r0

00031698 <T_SRC1_326>:
   31698:	10 00 00 00 	ld8	r0,r0

0003169c <T_SRC1_327>:
   3169c:	20 00 00 00 	nop

000316a0 <T_SRC1_328>:
   316a0:	40 00 00 00 	*unknown*

000316a4 <T_SRC1_329>:
   316a4:	80 00 00 00 	*unknown*

000316a8 <T_SRC1_330>:
   316a8:	00 00 00 00 	add	r0,r0

000316ac <T_SRC1_331>:
   316ac:	00 00 00 01 	add	r0,r1

000316b0 <T_SRC1_332>:
   316b0:	00 00 00 02 	add	r0,r2

000316b4 <T_SRC1_333>:
   316b4:	00 00 00 04 	add	r0,r4

000316b8 <T_SRC1_334>:
   316b8:	00 00 00 08 	add	r0,r8

000316bc <T_SRC1_335>:
   316bc:	00 00 00 10 	add	r0,r16

000316c0 <T_SRC1_336>:
   316c0:	00 00 00 20 	add	r1,r0

000316c4 <T_SRC1_337>:
   316c4:	00 00 00 40 	add	r2,r0

000316c8 <T_SRC1_338>:
   316c8:	00 00 00 80 	add	r4,r0

000316cc <T_SRC1_339>:
   316cc:	00 00 01 00 	add	r8,r0

000316d0 <T_SRC1_340>:
   316d0:	00 00 02 00 	add	r16,r0

000316d4 <T_SRC1_341>:
   316d4:	00 00 04 00 	*unknown*

000316d8 <T_SRC1_342>:
   316d8:	00 00 08 00 	*unknown*

000316dc <T_SRC1_343>:
   316dc:	00 00 10 00 	*unknown*

000316e0 <T_SRC1_344>:
   316e0:	00 00 20 00 	*unknown*

000316e4 <T_SRC1_345>:
   316e4:	00 00 40 00 	*unknown*

000316e8 <T_SRC1_346>:
   316e8:	00 00 80 00 	*unknown*

000316ec <T_SRC1_347>:
   316ec:	00 01 00 00 	*unknown*

000316f0 <T_SRC1_348>:
   316f0:	00 02 00 00 	*unknown*

000316f4 <T_SRC1_349>:
   316f4:	00 04 00 00 	*unknown*

000316f8 <T_SRC1_350>:
   316f8:	00 08 00 00 	*unknown*

000316fc <T_SRC1_351>:
   316fc:	00 10 00 00 	add	r0,0

00031700 <T_SRC1_352>:
   31700:	00 20 00 00 	sub	r0,r0

00031704 <T_SRC1_353>:
   31704:	00 40 00 00 	mull	r0,r0

00031708 <T_SRC1_354>:
   31708:	00 80 00 00 	udiv	r0,r0

0003170c <T_SRC1_355>:
   3170c:	01 00 00 00 	mod	r0,r0

00031710 <T_SRC1_356>:
   31710:	02 00 00 00 	inc	r0,r0

00031714 <T_SRC1_357>:
   31714:	04 00 00 00 	*unknown*

00031718 <T_SRC1_358>:
   31718:	08 00 00 00 	shl	r0,r0

0003171c <T_SRC1_359>:
   3171c:	10 00 00 00 	ld8	r0,r0

00031720 <T_SRC1_360>:
   31720:	20 00 00 00 	nop

00031724 <T_SRC1_361>:
   31724:	40 00 00 00 	*unknown*

00031728 <T_SRC1_362>:
   31728:	80 00 00 00 	*unknown*

0003172c <T_SRC1_363>:
   3172c:	00 00 00 00 	add	r0,r0

00031730 <T_SRC1_364>:
   31730:	00 00 00 01 	add	r0,r1

00031734 <T_SRC1_365>:
   31734:	00 00 00 02 	add	r0,r2

00031738 <T_SRC1_366>:
   31738:	00 00 00 04 	add	r0,r4

0003173c <T_SRC1_367>:
   3173c:	00 00 00 08 	add	r0,r8

00031740 <T_SRC1_368>:
   31740:	00 00 00 10 	add	r0,r16

00031744 <T_SRC1_369>:
   31744:	00 00 00 20 	add	r1,r0

00031748 <T_SRC1_370>:
   31748:	00 00 00 40 	add	r2,r0

0003174c <T_SRC1_371>:
   3174c:	00 00 00 80 	add	r4,r0

00031750 <T_SRC1_372>:
   31750:	00 00 01 00 	add	r8,r0

00031754 <T_SRC1_373>:
   31754:	00 00 02 00 	add	r16,r0

00031758 <T_SRC1_374>:
   31758:	00 00 04 00 	*unknown*

0003175c <T_SRC1_375>:
   3175c:	00 00 08 00 	*unknown*

00031760 <T_SRC1_376>:
   31760:	00 00 10 00 	*unknown*

00031764 <T_SRC1_377>:
   31764:	00 00 20 00 	*unknown*

00031768 <T_SRC1_378>:
   31768:	00 00 40 00 	*unknown*

0003176c <T_SRC1_379>:
   3176c:	00 00 80 00 	*unknown*

00031770 <T_SRC1_380>:
   31770:	00 01 00 00 	*unknown*

00031774 <T_SRC1_381>:
   31774:	00 02 00 00 	*unknown*

00031778 <T_SRC1_382>:
   31778:	00 04 00 00 	*unknown*

0003177c <T_SRC1_383>:
   3177c:	00 08 00 00 	*unknown*

00031780 <T_SRC1_384>:
   31780:	00 10 00 00 	add	r0,0

00031784 <T_SRC1_385>:
   31784:	00 20 00 00 	sub	r0,r0

00031788 <T_SRC1_386>:
   31788:	00 40 00 00 	mull	r0,r0

0003178c <T_SRC1_387>:
   3178c:	00 80 00 00 	udiv	r0,r0

00031790 <T_SRC1_388>:
   31790:	01 00 00 00 	mod	r0,r0

00031794 <T_SRC1_389>:
   31794:	02 00 00 00 	inc	r0,r0

00031798 <T_SRC1_390>:
   31798:	04 00 00 00 	*unknown*

0003179c <T_SRC1_391>:
   3179c:	08 00 00 00 	shl	r0,r0

000317a0 <T_SRC1_392>:
   317a0:	10 00 00 00 	ld8	r0,r0

000317a4 <T_SRC1_393>:
   317a4:	20 00 00 00 	nop

000317a8 <T_SRC1_394>:
   317a8:	40 00 00 00 	*unknown*

000317ac <T_SRC1_395>:
   317ac:	80 00 00 00 	*unknown*

000317b0 <T_SRC1_396>:
   317b0:	00 00 00 00 	add	r0,r0

000317b4 <T_SRC1_397>:
   317b4:	00 00 00 01 	add	r0,r1

000317b8 <T_SRC1_398>:
   317b8:	00 00 00 02 	add	r0,r2

000317bc <T_SRC1_399>:
   317bc:	00 00 00 04 	add	r0,r4

000317c0 <T_SRC1_400>:
   317c0:	00 00 00 08 	add	r0,r8

000317c4 <T_SRC1_401>:
   317c4:	00 00 00 10 	add	r0,r16

000317c8 <T_SRC1_402>:
   317c8:	00 00 00 20 	add	r1,r0

000317cc <T_SRC1_403>:
   317cc:	00 00 00 40 	add	r2,r0

000317d0 <T_SRC1_404>:
   317d0:	00 00 00 80 	add	r4,r0

000317d4 <T_SRC1_405>:
   317d4:	00 00 01 00 	add	r8,r0

000317d8 <T_SRC1_406>:
   317d8:	00 00 02 00 	add	r16,r0

000317dc <T_SRC1_407>:
   317dc:	00 00 04 00 	*unknown*

000317e0 <T_SRC1_408>:
   317e0:	00 00 08 00 	*unknown*

000317e4 <T_SRC1_409>:
   317e4:	00 00 10 00 	*unknown*

000317e8 <T_SRC1_410>:
   317e8:	00 00 20 00 	*unknown*

000317ec <T_SRC1_411>:
   317ec:	00 00 40 00 	*unknown*

000317f0 <T_SRC1_412>:
   317f0:	00 00 80 00 	*unknown*

000317f4 <T_SRC1_413>:
   317f4:	00 01 00 00 	*unknown*

000317f8 <T_SRC1_414>:
   317f8:	00 02 00 00 	*unknown*

000317fc <T_SRC1_415>:
   317fc:	00 04 00 00 	*unknown*

00031800 <T_SRC1_416>:
   31800:	00 08 00 00 	*unknown*

00031804 <T_SRC1_417>:
   31804:	00 10 00 00 	add	r0,0

00031808 <T_SRC1_418>:
   31808:	00 20 00 00 	sub	r0,r0

0003180c <T_SRC1_419>:
   3180c:	00 40 00 00 	mull	r0,r0

00031810 <T_SRC1_420>:
   31810:	00 80 00 00 	udiv	r0,r0

00031814 <T_SRC1_421>:
   31814:	01 00 00 00 	mod	r0,r0

00031818 <T_SRC1_422>:
   31818:	02 00 00 00 	inc	r0,r0

0003181c <T_SRC1_423>:
   3181c:	04 00 00 00 	*unknown*

00031820 <T_SRC1_424>:
   31820:	08 00 00 00 	shl	r0,r0

00031824 <T_SRC1_425>:
   31824:	10 00 00 00 	ld8	r0,r0

00031828 <T_SRC1_426>:
   31828:	20 00 00 00 	nop

0003182c <T_SRC1_427>:
   3182c:	40 00 00 00 	*unknown*

00031830 <T_SRC1_428>:
   31830:	80 00 00 00 	*unknown*

00031834 <T_SRC1_429>:
   31834:	00 00 00 00 	add	r0,r0

00031838 <T_SRC1_430>:
   31838:	00 00 00 01 	add	r0,r1

0003183c <T_SRC1_431>:
   3183c:	00 00 00 02 	add	r0,r2

00031840 <T_SRC1_432>:
   31840:	00 00 00 04 	add	r0,r4

00031844 <T_SRC1_433>:
   31844:	00 00 00 08 	add	r0,r8

00031848 <T_SRC1_434>:
   31848:	00 00 00 10 	add	r0,r16

0003184c <T_SRC1_435>:
   3184c:	00 00 00 20 	add	r1,r0

00031850 <T_SRC1_436>:
   31850:	00 00 00 40 	add	r2,r0

00031854 <T_SRC1_437>:
   31854:	00 00 00 80 	add	r4,r0

00031858 <T_SRC1_438>:
   31858:	00 00 01 00 	add	r8,r0

0003185c <T_SRC1_439>:
   3185c:	00 00 02 00 	add	r16,r0

00031860 <T_SRC1_440>:
   31860:	00 00 04 00 	*unknown*

00031864 <T_SRC1_441>:
   31864:	00 00 08 00 	*unknown*

00031868 <T_SRC1_442>:
   31868:	00 00 10 00 	*unknown*

0003186c <T_SRC1_443>:
   3186c:	00 00 20 00 	*unknown*

00031870 <T_SRC1_444>:
   31870:	00 00 40 00 	*unknown*

00031874 <T_SRC1_445>:
   31874:	00 00 80 00 	*unknown*

00031878 <T_SRC1_446>:
   31878:	00 01 00 00 	*unknown*

0003187c <T_SRC1_447>:
   3187c:	00 02 00 00 	*unknown*

00031880 <T_SRC1_448>:
   31880:	00 04 00 00 	*unknown*

00031884 <T_SRC1_449>:
   31884:	00 08 00 00 	*unknown*

00031888 <T_SRC1_450>:
   31888:	00 10 00 00 	add	r0,0

0003188c <T_SRC1_451>:
   3188c:	00 20 00 00 	sub	r0,r0

00031890 <T_SRC1_452>:
   31890:	00 40 00 00 	mull	r0,r0

00031894 <T_SRC1_453>:
   31894:	00 80 00 00 	udiv	r0,r0

00031898 <T_SRC1_454>:
   31898:	01 00 00 00 	mod	r0,r0

0003189c <T_SRC1_455>:
   3189c:	02 00 00 00 	inc	r0,r0

000318a0 <T_SRC1_456>:
   318a0:	04 00 00 00 	*unknown*

000318a4 <T_SRC1_457>:
   318a4:	08 00 00 00 	shl	r0,r0

000318a8 <T_SRC1_458>:
   318a8:	10 00 00 00 	ld8	r0,r0

000318ac <T_SRC1_459>:
   318ac:	20 00 00 00 	nop

000318b0 <T_SRC1_460>:
   318b0:	40 00 00 00 	*unknown*

000318b4 <T_SRC1_461>:
   318b4:	80 00 00 00 	*unknown*

000318b8 <T_SRC1_462>:
   318b8:	00 00 00 00 	add	r0,r0

000318bc <T_SRC1_463>:
   318bc:	00 00 00 01 	add	r0,r1

000318c0 <T_SRC1_464>:
   318c0:	00 00 00 02 	add	r0,r2

000318c4 <T_SRC1_465>:
   318c4:	00 00 00 04 	add	r0,r4

000318c8 <T_SRC1_466>:
   318c8:	00 00 00 08 	add	r0,r8

000318cc <T_SRC1_467>:
   318cc:	00 00 00 10 	add	r0,r16

000318d0 <T_SRC1_468>:
   318d0:	00 00 00 20 	add	r1,r0

000318d4 <T_SRC1_469>:
   318d4:	00 00 00 40 	add	r2,r0

000318d8 <T_SRC1_470>:
   318d8:	00 00 00 80 	add	r4,r0

000318dc <T_SRC1_471>:
   318dc:	00 00 01 00 	add	r8,r0

000318e0 <T_SRC1_472>:
   318e0:	00 00 02 00 	add	r16,r0

000318e4 <T_SRC1_473>:
   318e4:	00 00 04 00 	*unknown*

000318e8 <T_SRC1_474>:
   318e8:	00 00 08 00 	*unknown*

000318ec <T_SRC1_475>:
   318ec:	00 00 10 00 	*unknown*

000318f0 <T_SRC1_476>:
   318f0:	00 00 20 00 	*unknown*

000318f4 <T_SRC1_477>:
   318f4:	00 00 40 00 	*unknown*

000318f8 <T_SRC1_478>:
   318f8:	00 00 80 00 	*unknown*

000318fc <T_SRC1_479>:
   318fc:	00 01 00 00 	*unknown*

00031900 <T_SRC1_480>:
   31900:	00 02 00 00 	*unknown*

00031904 <T_SRC1_481>:
   31904:	00 04 00 00 	*unknown*

00031908 <T_SRC1_482>:
   31908:	00 08 00 00 	*unknown*

0003190c <T_SRC1_483>:
   3190c:	00 10 00 00 	add	r0,0

00031910 <T_SRC1_484>:
   31910:	00 20 00 00 	sub	r0,r0

00031914 <T_SRC1_485>:
   31914:	00 40 00 00 	mull	r0,r0

00031918 <T_SRC1_486>:
   31918:	00 80 00 00 	udiv	r0,r0

0003191c <T_SRC1_487>:
   3191c:	01 00 00 00 	mod	r0,r0

00031920 <T_SRC1_488>:
   31920:	02 00 00 00 	inc	r0,r0

00031924 <T_SRC1_489>:
   31924:	04 00 00 00 	*unknown*

00031928 <T_SRC1_490>:
   31928:	08 00 00 00 	shl	r0,r0

0003192c <T_SRC1_491>:
   3192c:	10 00 00 00 	ld8	r0,r0

00031930 <T_SRC1_492>:
   31930:	20 00 00 00 	nop

00031934 <T_SRC1_493>:
   31934:	40 00 00 00 	*unknown*

00031938 <T_SRC1_494>:
   31938:	80 00 00 00 	*unknown*

0003193c <T_SRC1_495>:
   3193c:	00 00 00 00 	add	r0,r0

00031940 <T_SRC1_496>:
   31940:	00 00 00 01 	add	r0,r1

00031944 <T_SRC1_497>:
   31944:	00 00 00 02 	add	r0,r2

00031948 <T_SRC1_498>:
   31948:	00 00 00 04 	add	r0,r4

0003194c <T_SRC1_499>:
   3194c:	00 00 00 08 	add	r0,r8

00031950 <T_SRC1_500>:
   31950:	00 00 00 10 	add	r0,r16

00031954 <T_SRC1_501>:
   31954:	00 00 00 20 	add	r1,r0

00031958 <T_SRC1_502>:
   31958:	00 00 00 40 	add	r2,r0

0003195c <T_SRC1_503>:
   3195c:	00 00 00 80 	add	r4,r0

00031960 <T_SRC1_504>:
   31960:	00 00 01 00 	add	r8,r0

00031964 <T_SRC1_505>:
   31964:	00 00 02 00 	add	r16,r0

00031968 <T_SRC1_506>:
   31968:	00 00 04 00 	*unknown*

0003196c <T_SRC1_507>:
   3196c:	00 00 08 00 	*unknown*

00031970 <T_SRC1_508>:
   31970:	00 00 10 00 	*unknown*

00031974 <T_SRC1_509>:
   31974:	00 00 20 00 	*unknown*

00031978 <T_SRC1_510>:
   31978:	00 00 40 00 	*unknown*

0003197c <T_SRC1_511>:
   3197c:	00 00 80 00 	*unknown*

00031980 <T_SRC1_512>:
   31980:	00 01 00 00 	*unknown*

00031984 <T_SRC1_513>:
   31984:	00 02 00 00 	*unknown*

00031988 <T_SRC1_514>:
   31988:	00 04 00 00 	*unknown*

0003198c <T_SRC1_515>:
   3198c:	00 08 00 00 	*unknown*

00031990 <T_SRC1_516>:
   31990:	00 10 00 00 	add	r0,0

00031994 <T_SRC1_517>:
   31994:	00 20 00 00 	sub	r0,r0

00031998 <T_SRC1_518>:
   31998:	00 40 00 00 	mull	r0,r0

0003199c <T_SRC1_519>:
   3199c:	00 80 00 00 	udiv	r0,r0

000319a0 <T_SRC1_520>:
   319a0:	01 00 00 00 	mod	r0,r0

000319a4 <T_SRC1_521>:
   319a4:	02 00 00 00 	inc	r0,r0

000319a8 <T_SRC1_522>:
   319a8:	04 00 00 00 	*unknown*

000319ac <T_SRC1_523>:
   319ac:	08 00 00 00 	shl	r0,r0

000319b0 <T_SRC1_524>:
   319b0:	10 00 00 00 	ld8	r0,r0

000319b4 <T_SRC1_525>:
   319b4:	20 00 00 00 	nop

000319b8 <T_SRC1_526>:
   319b8:	40 00 00 00 	*unknown*

000319bc <T_SRC1_527>:
   319bc:	80 00 00 00 	*unknown*

000319c0 <T_SRC1_528>:
   319c0:	00 00 00 00 	add	r0,r0

000319c4 <T_SRC1_529>:
   319c4:	00 00 00 01 	add	r0,r1

000319c8 <T_SRC1_530>:
   319c8:	00 00 00 02 	add	r0,r2

000319cc <T_SRC1_531>:
   319cc:	00 00 00 04 	add	r0,r4

000319d0 <T_SRC1_532>:
   319d0:	00 00 00 08 	add	r0,r8

000319d4 <T_SRC1_533>:
   319d4:	00 00 00 10 	add	r0,r16

000319d8 <T_SRC1_534>:
   319d8:	00 00 00 20 	add	r1,r0

000319dc <T_SRC1_535>:
   319dc:	00 00 00 40 	add	r2,r0

000319e0 <T_SRC1_536>:
   319e0:	00 00 00 80 	add	r4,r0

000319e4 <T_SRC1_537>:
   319e4:	00 00 01 00 	add	r8,r0

000319e8 <T_SRC1_538>:
   319e8:	00 00 02 00 	add	r16,r0

000319ec <T_SRC1_539>:
   319ec:	00 00 04 00 	*unknown*

000319f0 <T_SRC1_540>:
   319f0:	00 00 08 00 	*unknown*

000319f4 <T_SRC1_541>:
   319f4:	00 00 10 00 	*unknown*

000319f8 <T_SRC1_542>:
   319f8:	00 00 20 00 	*unknown*

000319fc <T_SRC1_543>:
   319fc:	00 00 40 00 	*unknown*

00031a00 <T_SRC1_544>:
   31a00:	00 00 80 00 	*unknown*

00031a04 <T_SRC1_545>:
   31a04:	00 01 00 00 	*unknown*

00031a08 <T_SRC1_546>:
   31a08:	00 02 00 00 	*unknown*

00031a0c <T_SRC1_547>:
   31a0c:	00 04 00 00 	*unknown*

00031a10 <T_SRC1_548>:
   31a10:	00 08 00 00 	*unknown*

00031a14 <T_SRC1_549>:
   31a14:	00 10 00 00 	add	r0,0

00031a18 <T_SRC1_550>:
   31a18:	00 20 00 00 	sub	r0,r0

00031a1c <T_SRC1_551>:
   31a1c:	00 40 00 00 	mull	r0,r0

00031a20 <T_SRC1_552>:
   31a20:	00 80 00 00 	udiv	r0,r0

00031a24 <T_SRC1_553>:
   31a24:	01 00 00 00 	mod	r0,r0

00031a28 <T_SRC1_554>:
   31a28:	02 00 00 00 	inc	r0,r0

00031a2c <T_SRC1_555>:
   31a2c:	04 00 00 00 	*unknown*

00031a30 <T_SRC1_556>:
   31a30:	08 00 00 00 	shl	r0,r0

00031a34 <T_SRC1_557>:
   31a34:	10 00 00 00 	ld8	r0,r0

00031a38 <T_SRC1_558>:
   31a38:	20 00 00 00 	nop

00031a3c <T_SRC1_559>:
   31a3c:	40 00 00 00 	*unknown*

00031a40 <T_SRC1_560>:
   31a40:	80 00 00 00 	*unknown*

00031a44 <T_SRC1_561>:
   31a44:	00 00 00 00 	add	r0,r0

00031a48 <T_SRC1_562>:
   31a48:	00 00 00 01 	add	r0,r1

00031a4c <T_SRC1_563>:
   31a4c:	00 00 00 02 	add	r0,r2

00031a50 <T_SRC1_564>:
   31a50:	00 00 00 04 	add	r0,r4

00031a54 <T_SRC1_565>:
   31a54:	00 00 00 08 	add	r0,r8

00031a58 <T_SRC1_566>:
   31a58:	00 00 00 10 	add	r0,r16

00031a5c <T_SRC1_567>:
   31a5c:	00 00 00 20 	add	r1,r0

00031a60 <T_SRC1_568>:
   31a60:	00 00 00 40 	add	r2,r0

00031a64 <T_SRC1_569>:
   31a64:	00 00 00 80 	add	r4,r0

00031a68 <T_SRC1_570>:
   31a68:	00 00 01 00 	add	r8,r0

00031a6c <T_SRC1_571>:
   31a6c:	00 00 02 00 	add	r16,r0

00031a70 <T_SRC1_572>:
   31a70:	00 00 04 00 	*unknown*

00031a74 <T_SRC1_573>:
   31a74:	00 00 08 00 	*unknown*

00031a78 <T_SRC1_574>:
   31a78:	00 00 10 00 	*unknown*

00031a7c <T_SRC1_575>:
   31a7c:	00 00 20 00 	*unknown*

00031a80 <T_SRC1_576>:
   31a80:	00 00 40 00 	*unknown*

00031a84 <T_SRC1_577>:
   31a84:	00 00 80 00 	*unknown*

00031a88 <T_SRC1_578>:
   31a88:	00 01 00 00 	*unknown*

00031a8c <T_SRC1_579>:
   31a8c:	00 02 00 00 	*unknown*

00031a90 <T_SRC1_580>:
   31a90:	00 04 00 00 	*unknown*

00031a94 <T_SRC1_581>:
   31a94:	00 08 00 00 	*unknown*

00031a98 <T_SRC1_582>:
   31a98:	00 10 00 00 	add	r0,0

00031a9c <T_SRC1_583>:
   31a9c:	00 20 00 00 	sub	r0,r0

00031aa0 <T_SRC1_584>:
   31aa0:	00 40 00 00 	mull	r0,r0

00031aa4 <T_SRC1_585>:
   31aa4:	00 80 00 00 	udiv	r0,r0

00031aa8 <T_SRC1_586>:
   31aa8:	01 00 00 00 	mod	r0,r0

00031aac <T_SRC1_587>:
   31aac:	02 00 00 00 	inc	r0,r0

00031ab0 <T_SRC1_588>:
   31ab0:	04 00 00 00 	*unknown*

00031ab4 <T_SRC1_589>:
   31ab4:	08 00 00 00 	shl	r0,r0

00031ab8 <T_SRC1_590>:
   31ab8:	10 00 00 00 	ld8	r0,r0

00031abc <T_SRC1_591>:
   31abc:	20 00 00 00 	nop

00031ac0 <T_SRC1_592>:
   31ac0:	40 00 00 00 	*unknown*

00031ac4 <T_SRC1_593>:
   31ac4:	80 00 00 00 	*unknown*

00031ac8 <T_SRC1_594>:
   31ac8:	00 00 00 00 	add	r0,r0

00031acc <T_SRC1_595>:
   31acc:	00 00 00 01 	add	r0,r1

00031ad0 <T_SRC1_596>:
   31ad0:	00 00 00 02 	add	r0,r2

00031ad4 <T_SRC1_597>:
   31ad4:	00 00 00 04 	add	r0,r4

00031ad8 <T_SRC1_598>:
   31ad8:	00 00 00 08 	add	r0,r8

00031adc <T_SRC1_599>:
   31adc:	00 00 00 10 	add	r0,r16

00031ae0 <T_SRC1_600>:
   31ae0:	00 00 00 20 	add	r1,r0

00031ae4 <T_SRC1_601>:
   31ae4:	00 00 00 40 	add	r2,r0

00031ae8 <T_SRC1_602>:
   31ae8:	00 00 00 80 	add	r4,r0

00031aec <T_SRC1_603>:
   31aec:	00 00 01 00 	add	r8,r0

00031af0 <T_SRC1_604>:
   31af0:	00 00 02 00 	add	r16,r0

00031af4 <T_SRC1_605>:
   31af4:	00 00 04 00 	*unknown*

00031af8 <T_SRC1_606>:
   31af8:	00 00 08 00 	*unknown*

00031afc <T_SRC1_607>:
   31afc:	00 00 10 00 	*unknown*

00031b00 <T_SRC1_608>:
   31b00:	00 00 20 00 	*unknown*

00031b04 <T_SRC1_609>:
   31b04:	00 00 40 00 	*unknown*

00031b08 <T_SRC1_610>:
   31b08:	00 00 80 00 	*unknown*

00031b0c <T_SRC1_611>:
   31b0c:	00 01 00 00 	*unknown*

00031b10 <T_SRC1_612>:
   31b10:	00 02 00 00 	*unknown*

00031b14 <T_SRC1_613>:
   31b14:	00 04 00 00 	*unknown*

00031b18 <T_SRC1_614>:
   31b18:	00 08 00 00 	*unknown*

00031b1c <T_SRC1_615>:
   31b1c:	00 10 00 00 	add	r0,0

00031b20 <T_SRC1_616>:
   31b20:	00 20 00 00 	sub	r0,r0

00031b24 <T_SRC1_617>:
   31b24:	00 40 00 00 	mull	r0,r0

00031b28 <T_SRC1_618>:
   31b28:	00 80 00 00 	udiv	r0,r0

00031b2c <T_SRC1_619>:
   31b2c:	01 00 00 00 	mod	r0,r0

00031b30 <T_SRC1_620>:
   31b30:	02 00 00 00 	inc	r0,r0

00031b34 <T_SRC1_621>:
   31b34:	04 00 00 00 	*unknown*

00031b38 <T_SRC1_622>:
   31b38:	08 00 00 00 	shl	r0,r0

00031b3c <T_SRC1_623>:
   31b3c:	10 00 00 00 	ld8	r0,r0

00031b40 <T_SRC1_624>:
   31b40:	20 00 00 00 	nop

00031b44 <T_SRC1_625>:
   31b44:	40 00 00 00 	*unknown*

00031b48 <T_SRC1_626>:
   31b48:	80 00 00 00 	*unknown*

00031b4c <T_SRC1_627>:
   31b4c:	00 00 00 00 	add	r0,r0

00031b50 <T_SRC1_628>:
   31b50:	00 00 00 01 	add	r0,r1

00031b54 <T_SRC1_629>:
   31b54:	00 00 00 02 	add	r0,r2

00031b58 <T_SRC1_630>:
   31b58:	00 00 00 04 	add	r0,r4

00031b5c <T_SRC1_631>:
   31b5c:	00 00 00 08 	add	r0,r8

00031b60 <T_SRC1_632>:
   31b60:	00 00 00 10 	add	r0,r16

00031b64 <T_SRC1_633>:
   31b64:	00 00 00 20 	add	r1,r0

00031b68 <T_SRC1_634>:
   31b68:	00 00 00 40 	add	r2,r0

00031b6c <T_SRC1_635>:
   31b6c:	00 00 00 80 	add	r4,r0

00031b70 <T_SRC1_636>:
   31b70:	00 00 01 00 	add	r8,r0

00031b74 <T_SRC1_637>:
   31b74:	00 00 02 00 	add	r16,r0

00031b78 <T_SRC1_638>:
   31b78:	00 00 04 00 	*unknown*

00031b7c <T_SRC1_639>:
   31b7c:	00 00 08 00 	*unknown*

00031b80 <T_SRC1_640>:
   31b80:	00 00 10 00 	*unknown*

00031b84 <T_SRC1_641>:
   31b84:	00 00 20 00 	*unknown*

00031b88 <T_SRC1_642>:
   31b88:	00 00 40 00 	*unknown*

00031b8c <T_SRC1_643>:
   31b8c:	00 00 80 00 	*unknown*

00031b90 <T_SRC1_644>:
   31b90:	00 01 00 00 	*unknown*

00031b94 <T_SRC1_645>:
   31b94:	00 02 00 00 	*unknown*

00031b98 <T_SRC1_646>:
   31b98:	00 04 00 00 	*unknown*

00031b9c <T_SRC1_647>:
   31b9c:	00 08 00 00 	*unknown*

00031ba0 <T_SRC1_648>:
   31ba0:	00 10 00 00 	add	r0,0

00031ba4 <T_SRC1_649>:
   31ba4:	00 20 00 00 	sub	r0,r0

00031ba8 <T_SRC1_650>:
   31ba8:	00 40 00 00 	mull	r0,r0

00031bac <T_SRC1_651>:
   31bac:	00 80 00 00 	udiv	r0,r0

00031bb0 <T_SRC1_652>:
   31bb0:	01 00 00 00 	mod	r0,r0

00031bb4 <T_SRC1_653>:
   31bb4:	02 00 00 00 	inc	r0,r0

00031bb8 <T_SRC1_654>:
   31bb8:	04 00 00 00 	*unknown*

00031bbc <T_SRC1_655>:
   31bbc:	08 00 00 00 	shl	r0,r0

00031bc0 <T_SRC1_656>:
   31bc0:	10 00 00 00 	ld8	r0,r0

00031bc4 <T_SRC1_657>:
   31bc4:	20 00 00 00 	nop

00031bc8 <T_SRC1_658>:
   31bc8:	40 00 00 00 	*unknown*

00031bcc <T_SRC1_659>:
   31bcc:	80 00 00 00 	*unknown*

00031bd0 <T_SRC1_660>:
   31bd0:	00 00 00 00 	add	r0,r0

00031bd4 <T_SRC1_661>:
   31bd4:	00 00 00 01 	add	r0,r1

00031bd8 <T_SRC1_662>:
   31bd8:	00 00 00 02 	add	r0,r2

00031bdc <T_SRC1_663>:
   31bdc:	00 00 00 04 	add	r0,r4

00031be0 <T_SRC1_664>:
   31be0:	00 00 00 08 	add	r0,r8

00031be4 <T_SRC1_665>:
   31be4:	00 00 00 10 	add	r0,r16

00031be8 <T_SRC1_666>:
   31be8:	00 00 00 20 	add	r1,r0

00031bec <T_SRC1_667>:
   31bec:	00 00 00 40 	add	r2,r0

00031bf0 <T_SRC1_668>:
   31bf0:	00 00 00 80 	add	r4,r0

00031bf4 <T_SRC1_669>:
   31bf4:	00 00 01 00 	add	r8,r0

00031bf8 <T_SRC1_670>:
   31bf8:	00 00 02 00 	add	r16,r0

00031bfc <T_SRC1_671>:
   31bfc:	00 00 04 00 	*unknown*

00031c00 <T_SRC1_672>:
   31c00:	00 00 08 00 	*unknown*

00031c04 <T_SRC1_673>:
   31c04:	00 00 10 00 	*unknown*

00031c08 <T_SRC1_674>:
   31c08:	00 00 20 00 	*unknown*

00031c0c <T_SRC1_675>:
   31c0c:	00 00 40 00 	*unknown*

00031c10 <T_SRC1_676>:
   31c10:	00 00 80 00 	*unknown*

00031c14 <T_SRC1_677>:
   31c14:	00 01 00 00 	*unknown*

00031c18 <T_SRC1_678>:
   31c18:	00 02 00 00 	*unknown*

00031c1c <T_SRC1_679>:
   31c1c:	00 04 00 00 	*unknown*

00031c20 <T_SRC1_680>:
   31c20:	00 08 00 00 	*unknown*

00031c24 <T_SRC1_681>:
   31c24:	00 10 00 00 	add	r0,0

00031c28 <T_SRC1_682>:
   31c28:	00 20 00 00 	sub	r0,r0

00031c2c <T_SRC1_683>:
   31c2c:	00 40 00 00 	mull	r0,r0

00031c30 <T_SRC1_684>:
   31c30:	00 80 00 00 	udiv	r0,r0

00031c34 <T_SRC1_685>:
   31c34:	01 00 00 00 	mod	r0,r0

00031c38 <T_SRC1_686>:
   31c38:	02 00 00 00 	inc	r0,r0

00031c3c <T_SRC1_687>:
   31c3c:	04 00 00 00 	*unknown*

00031c40 <T_SRC1_688>:
   31c40:	08 00 00 00 	shl	r0,r0

00031c44 <T_SRC1_689>:
   31c44:	10 00 00 00 	ld8	r0,r0

00031c48 <T_SRC1_690>:
   31c48:	20 00 00 00 	nop

00031c4c <T_SRC1_691>:
   31c4c:	40 00 00 00 	*unknown*

00031c50 <T_SRC1_692>:
   31c50:	80 00 00 00 	*unknown*

00031c54 <T_SRC1_693>:
   31c54:	00 00 00 00 	add	r0,r0

00031c58 <T_SRC1_694>:
   31c58:	00 00 00 01 	add	r0,r1

00031c5c <T_SRC1_695>:
   31c5c:	00 00 00 02 	add	r0,r2

00031c60 <T_SRC1_696>:
   31c60:	00 00 00 04 	add	r0,r4

00031c64 <T_SRC1_697>:
   31c64:	00 00 00 08 	add	r0,r8

00031c68 <T_SRC1_698>:
   31c68:	00 00 00 10 	add	r0,r16

00031c6c <T_SRC1_699>:
   31c6c:	00 00 00 20 	add	r1,r0

00031c70 <T_SRC1_700>:
   31c70:	00 00 00 40 	add	r2,r0

00031c74 <T_SRC1_701>:
   31c74:	00 00 00 80 	add	r4,r0

00031c78 <T_SRC1_702>:
   31c78:	00 00 01 00 	add	r8,r0

00031c7c <T_SRC1_703>:
   31c7c:	00 00 02 00 	add	r16,r0

00031c80 <T_SRC1_704>:
   31c80:	00 00 04 00 	*unknown*

00031c84 <T_SRC1_705>:
   31c84:	00 00 08 00 	*unknown*

00031c88 <T_SRC1_706>:
   31c88:	00 00 10 00 	*unknown*

00031c8c <T_SRC1_707>:
   31c8c:	00 00 20 00 	*unknown*

00031c90 <T_SRC1_708>:
   31c90:	00 00 40 00 	*unknown*

00031c94 <T_SRC1_709>:
   31c94:	00 00 80 00 	*unknown*

00031c98 <T_SRC1_710>:
   31c98:	00 01 00 00 	*unknown*

00031c9c <T_SRC1_711>:
   31c9c:	00 02 00 00 	*unknown*

00031ca0 <T_SRC1_712>:
   31ca0:	00 04 00 00 	*unknown*

00031ca4 <T_SRC1_713>:
   31ca4:	00 08 00 00 	*unknown*

00031ca8 <T_SRC1_714>:
   31ca8:	00 10 00 00 	add	r0,0

00031cac <T_SRC1_715>:
   31cac:	00 20 00 00 	sub	r0,r0

00031cb0 <T_SRC1_716>:
   31cb0:	00 40 00 00 	mull	r0,r0

00031cb4 <T_SRC1_717>:
   31cb4:	00 80 00 00 	udiv	r0,r0

00031cb8 <T_SRC1_718>:
   31cb8:	01 00 00 00 	mod	r0,r0

00031cbc <T_SRC1_719>:
   31cbc:	02 00 00 00 	inc	r0,r0

00031cc0 <T_SRC1_720>:
   31cc0:	04 00 00 00 	*unknown*

00031cc4 <T_SRC1_721>:
   31cc4:	08 00 00 00 	shl	r0,r0

00031cc8 <T_SRC1_722>:
   31cc8:	10 00 00 00 	ld8	r0,r0

00031ccc <T_SRC1_723>:
   31ccc:	20 00 00 00 	nop

00031cd0 <T_SRC1_724>:
   31cd0:	40 00 00 00 	*unknown*

00031cd4 <T_SRC1_725>:
   31cd4:	80 00 00 00 	*unknown*

00031cd8 <T_SRC1_726>:
   31cd8:	00 00 00 00 	add	r0,r0

00031cdc <T_SRC1_727>:
   31cdc:	00 00 00 01 	add	r0,r1

00031ce0 <T_SRC1_728>:
   31ce0:	00 00 00 02 	add	r0,r2

00031ce4 <T_SRC1_729>:
   31ce4:	00 00 00 04 	add	r0,r4

00031ce8 <T_SRC1_730>:
   31ce8:	00 00 00 08 	add	r0,r8

00031cec <T_SRC1_731>:
   31cec:	00 00 00 10 	add	r0,r16

00031cf0 <T_SRC1_732>:
   31cf0:	00 00 00 20 	add	r1,r0

00031cf4 <T_SRC1_733>:
   31cf4:	00 00 00 40 	add	r2,r0

00031cf8 <T_SRC1_734>:
   31cf8:	00 00 00 80 	add	r4,r0

00031cfc <T_SRC1_735>:
   31cfc:	00 00 01 00 	add	r8,r0

00031d00 <T_SRC1_736>:
   31d00:	00 00 02 00 	add	r16,r0

00031d04 <T_SRC1_737>:
   31d04:	00 00 04 00 	*unknown*

00031d08 <T_SRC1_738>:
   31d08:	00 00 08 00 	*unknown*

00031d0c <T_SRC1_739>:
   31d0c:	00 00 10 00 	*unknown*

00031d10 <T_SRC1_740>:
   31d10:	00 00 20 00 	*unknown*

00031d14 <T_SRC1_741>:
   31d14:	00 00 40 00 	*unknown*

00031d18 <T_SRC1_742>:
   31d18:	00 00 80 00 	*unknown*

00031d1c <T_SRC1_743>:
   31d1c:	00 01 00 00 	*unknown*

00031d20 <T_SRC1_744>:
   31d20:	00 02 00 00 	*unknown*

00031d24 <T_SRC1_745>:
   31d24:	00 04 00 00 	*unknown*

00031d28 <T_SRC1_746>:
   31d28:	00 08 00 00 	*unknown*

00031d2c <T_SRC1_747>:
   31d2c:	00 10 00 00 	add	r0,0

00031d30 <T_SRC1_748>:
   31d30:	00 20 00 00 	sub	r0,r0

00031d34 <T_SRC1_749>:
   31d34:	00 40 00 00 	mull	r0,r0

00031d38 <T_SRC1_750>:
   31d38:	00 80 00 00 	udiv	r0,r0

00031d3c <T_SRC1_751>:
   31d3c:	01 00 00 00 	mod	r0,r0

00031d40 <T_SRC1_752>:
   31d40:	02 00 00 00 	inc	r0,r0

00031d44 <T_SRC1_753>:
   31d44:	04 00 00 00 	*unknown*

00031d48 <T_SRC1_754>:
   31d48:	08 00 00 00 	shl	r0,r0

00031d4c <T_SRC1_755>:
   31d4c:	10 00 00 00 	ld8	r0,r0

00031d50 <T_SRC1_756>:
   31d50:	20 00 00 00 	nop

00031d54 <T_SRC1_757>:
   31d54:	40 00 00 00 	*unknown*

00031d58 <T_SRC1_758>:
   31d58:	80 00 00 00 	*unknown*

00031d5c <T_SRC1_759>:
   31d5c:	00 00 00 00 	add	r0,r0

00031d60 <T_SRC1_760>:
   31d60:	00 00 00 01 	add	r0,r1

00031d64 <T_SRC1_761>:
   31d64:	00 00 00 02 	add	r0,r2

00031d68 <T_SRC1_762>:
   31d68:	00 00 00 04 	add	r0,r4

00031d6c <T_SRC1_763>:
   31d6c:	00 00 00 08 	add	r0,r8

00031d70 <T_SRC1_764>:
   31d70:	00 00 00 10 	add	r0,r16

00031d74 <T_SRC1_765>:
   31d74:	00 00 00 20 	add	r1,r0

00031d78 <T_SRC1_766>:
   31d78:	00 00 00 40 	add	r2,r0

00031d7c <T_SRC1_767>:
   31d7c:	00 00 00 80 	add	r4,r0

00031d80 <T_SRC1_768>:
   31d80:	00 00 01 00 	add	r8,r0

00031d84 <T_SRC1_769>:
   31d84:	00 00 02 00 	add	r16,r0

00031d88 <T_SRC1_770>:
   31d88:	00 00 04 00 	*unknown*

00031d8c <T_SRC1_771>:
   31d8c:	00 00 08 00 	*unknown*

00031d90 <T_SRC1_772>:
   31d90:	00 00 10 00 	*unknown*

00031d94 <T_SRC1_773>:
   31d94:	00 00 20 00 	*unknown*

00031d98 <T_SRC1_774>:
   31d98:	00 00 40 00 	*unknown*

00031d9c <T_SRC1_775>:
   31d9c:	00 00 80 00 	*unknown*

00031da0 <T_SRC1_776>:
   31da0:	00 01 00 00 	*unknown*

00031da4 <T_SRC1_777>:
   31da4:	00 02 00 00 	*unknown*

00031da8 <T_SRC1_778>:
   31da8:	00 04 00 00 	*unknown*

00031dac <T_SRC1_779>:
   31dac:	00 08 00 00 	*unknown*

00031db0 <T_SRC1_780>:
   31db0:	00 10 00 00 	add	r0,0

00031db4 <T_SRC1_781>:
   31db4:	00 20 00 00 	sub	r0,r0

00031db8 <T_SRC1_782>:
   31db8:	00 40 00 00 	mull	r0,r0

00031dbc <T_SRC1_783>:
   31dbc:	00 80 00 00 	udiv	r0,r0

00031dc0 <T_SRC1_784>:
   31dc0:	01 00 00 00 	mod	r0,r0

00031dc4 <T_SRC1_785>:
   31dc4:	02 00 00 00 	inc	r0,r0

00031dc8 <T_SRC1_786>:
   31dc8:	04 00 00 00 	*unknown*

00031dcc <T_SRC1_787>:
   31dcc:	08 00 00 00 	shl	r0,r0

00031dd0 <T_SRC1_788>:
   31dd0:	10 00 00 00 	ld8	r0,r0

00031dd4 <T_SRC1_789>:
   31dd4:	20 00 00 00 	nop

00031dd8 <T_SRC1_790>:
   31dd8:	40 00 00 00 	*unknown*

00031ddc <T_SRC1_791>:
   31ddc:	80 00 00 00 	*unknown*

00031de0 <T_SRC1_792>:
   31de0:	00 00 00 00 	add	r0,r0

00031de4 <T_SRC1_793>:
   31de4:	00 00 00 01 	add	r0,r1

00031de8 <T_SRC1_794>:
   31de8:	00 00 00 02 	add	r0,r2

00031dec <T_SRC1_795>:
   31dec:	00 00 00 04 	add	r0,r4

00031df0 <T_SRC1_796>:
   31df0:	00 00 00 08 	add	r0,r8

00031df4 <T_SRC1_797>:
   31df4:	00 00 00 10 	add	r0,r16

00031df8 <T_SRC1_798>:
   31df8:	00 00 00 20 	add	r1,r0

00031dfc <T_SRC1_799>:
   31dfc:	00 00 00 40 	add	r2,r0

00031e00 <T_SRC1_800>:
   31e00:	00 00 00 80 	add	r4,r0

00031e04 <T_SRC1_801>:
   31e04:	00 00 01 00 	add	r8,r0

00031e08 <T_SRC1_802>:
   31e08:	00 00 02 00 	add	r16,r0

00031e0c <T_SRC1_803>:
   31e0c:	00 00 04 00 	*unknown*

00031e10 <T_SRC1_804>:
   31e10:	00 00 08 00 	*unknown*

00031e14 <T_SRC1_805>:
   31e14:	00 00 10 00 	*unknown*

00031e18 <T_SRC1_806>:
   31e18:	00 00 20 00 	*unknown*

00031e1c <T_SRC1_807>:
   31e1c:	00 00 40 00 	*unknown*

00031e20 <T_SRC1_808>:
   31e20:	00 00 80 00 	*unknown*

00031e24 <T_SRC1_809>:
   31e24:	00 01 00 00 	*unknown*

00031e28 <T_SRC1_810>:
   31e28:	00 02 00 00 	*unknown*

00031e2c <T_SRC1_811>:
   31e2c:	00 04 00 00 	*unknown*

00031e30 <T_SRC1_812>:
   31e30:	00 08 00 00 	*unknown*

00031e34 <T_SRC1_813>:
   31e34:	00 10 00 00 	add	r0,0

00031e38 <T_SRC1_814>:
   31e38:	00 20 00 00 	sub	r0,r0

00031e3c <T_SRC1_815>:
   31e3c:	00 40 00 00 	mull	r0,r0

00031e40 <T_SRC1_816>:
   31e40:	00 80 00 00 	udiv	r0,r0

00031e44 <T_SRC1_817>:
   31e44:	01 00 00 00 	mod	r0,r0

00031e48 <T_SRC1_818>:
   31e48:	02 00 00 00 	inc	r0,r0

00031e4c <T_SRC1_819>:
   31e4c:	04 00 00 00 	*unknown*

00031e50 <T_SRC1_820>:
   31e50:	08 00 00 00 	shl	r0,r0

00031e54 <T_SRC1_821>:
   31e54:	10 00 00 00 	ld8	r0,r0

00031e58 <T_SRC1_822>:
   31e58:	20 00 00 00 	nop

00031e5c <T_SRC1_823>:
   31e5c:	40 00 00 00 	*unknown*

00031e60 <T_SRC1_824>:
   31e60:	80 00 00 00 	*unknown*

00031e64 <T_SRC1_825>:
   31e64:	00 00 00 00 	add	r0,r0

00031e68 <T_SRC1_826>:
   31e68:	00 00 00 01 	add	r0,r1

00031e6c <T_SRC1_827>:
   31e6c:	00 00 00 02 	add	r0,r2

00031e70 <T_SRC1_828>:
   31e70:	00 00 00 04 	add	r0,r4

00031e74 <T_SRC1_829>:
   31e74:	00 00 00 08 	add	r0,r8

00031e78 <T_SRC1_830>:
   31e78:	00 00 00 10 	add	r0,r16

00031e7c <T_SRC1_831>:
   31e7c:	00 00 00 20 	add	r1,r0

00031e80 <T_SRC1_832>:
   31e80:	00 00 00 40 	add	r2,r0

00031e84 <T_SRC1_833>:
   31e84:	00 00 00 80 	add	r4,r0

00031e88 <T_SRC1_834>:
   31e88:	00 00 01 00 	add	r8,r0

00031e8c <T_SRC1_835>:
   31e8c:	00 00 02 00 	add	r16,r0

00031e90 <T_SRC1_836>:
   31e90:	00 00 04 00 	*unknown*

00031e94 <T_SRC1_837>:
   31e94:	00 00 08 00 	*unknown*

00031e98 <T_SRC1_838>:
   31e98:	00 00 10 00 	*unknown*

00031e9c <T_SRC1_839>:
   31e9c:	00 00 20 00 	*unknown*

00031ea0 <T_SRC1_840>:
   31ea0:	00 00 40 00 	*unknown*

00031ea4 <T_SRC1_841>:
   31ea4:	00 00 80 00 	*unknown*

00031ea8 <T_SRC1_842>:
   31ea8:	00 01 00 00 	*unknown*

00031eac <T_SRC1_843>:
   31eac:	00 02 00 00 	*unknown*

00031eb0 <T_SRC1_844>:
   31eb0:	00 04 00 00 	*unknown*

00031eb4 <T_SRC1_845>:
   31eb4:	00 08 00 00 	*unknown*

00031eb8 <T_SRC1_846>:
   31eb8:	00 10 00 00 	add	r0,0

00031ebc <T_SRC1_847>:
   31ebc:	00 20 00 00 	sub	r0,r0

00031ec0 <T_SRC1_848>:
   31ec0:	00 40 00 00 	mull	r0,r0

00031ec4 <T_SRC1_849>:
   31ec4:	00 80 00 00 	udiv	r0,r0

00031ec8 <T_SRC1_850>:
   31ec8:	01 00 00 00 	mod	r0,r0

00031ecc <T_SRC1_851>:
   31ecc:	02 00 00 00 	inc	r0,r0

00031ed0 <T_SRC1_852>:
   31ed0:	04 00 00 00 	*unknown*

00031ed4 <T_SRC1_853>:
   31ed4:	08 00 00 00 	shl	r0,r0

00031ed8 <T_SRC1_854>:
   31ed8:	10 00 00 00 	ld8	r0,r0

00031edc <T_SRC1_855>:
   31edc:	20 00 00 00 	nop

00031ee0 <T_SRC1_856>:
   31ee0:	40 00 00 00 	*unknown*

00031ee4 <T_SRC1_857>:
   31ee4:	80 00 00 00 	*unknown*

00031ee8 <T_SRC1_858>:
   31ee8:	00 00 00 00 	add	r0,r0

00031eec <T_SRC1_859>:
   31eec:	00 00 00 01 	add	r0,r1

00031ef0 <T_SRC1_860>:
   31ef0:	00 00 00 02 	add	r0,r2

00031ef4 <T_SRC1_861>:
   31ef4:	00 00 00 04 	add	r0,r4

00031ef8 <T_SRC1_862>:
   31ef8:	00 00 00 08 	add	r0,r8

00031efc <T_SRC1_863>:
   31efc:	00 00 00 10 	add	r0,r16

00031f00 <T_SRC1_864>:
   31f00:	00 00 00 20 	add	r1,r0

00031f04 <T_SRC1_865>:
   31f04:	00 00 00 40 	add	r2,r0

00031f08 <T_SRC1_866>:
   31f08:	00 00 00 80 	add	r4,r0

00031f0c <T_SRC1_867>:
   31f0c:	00 00 01 00 	add	r8,r0

00031f10 <T_SRC1_868>:
   31f10:	00 00 02 00 	add	r16,r0

00031f14 <T_SRC1_869>:
   31f14:	00 00 04 00 	*unknown*

00031f18 <T_SRC1_870>:
   31f18:	00 00 08 00 	*unknown*

00031f1c <T_SRC1_871>:
   31f1c:	00 00 10 00 	*unknown*

00031f20 <T_SRC1_872>:
   31f20:	00 00 20 00 	*unknown*

00031f24 <T_SRC1_873>:
   31f24:	00 00 40 00 	*unknown*

00031f28 <T_SRC1_874>:
   31f28:	00 00 80 00 	*unknown*

00031f2c <T_SRC1_875>:
   31f2c:	00 01 00 00 	*unknown*

00031f30 <T_SRC1_876>:
   31f30:	00 02 00 00 	*unknown*

00031f34 <T_SRC1_877>:
   31f34:	00 04 00 00 	*unknown*

00031f38 <T_SRC1_878>:
   31f38:	00 08 00 00 	*unknown*

00031f3c <T_SRC1_879>:
   31f3c:	00 10 00 00 	add	r0,0

00031f40 <T_SRC1_880>:
   31f40:	00 20 00 00 	sub	r0,r0

00031f44 <T_SRC1_881>:
   31f44:	00 40 00 00 	mull	r0,r0

00031f48 <T_SRC1_882>:
   31f48:	00 80 00 00 	udiv	r0,r0

00031f4c <T_SRC1_883>:
   31f4c:	01 00 00 00 	mod	r0,r0

00031f50 <T_SRC1_884>:
   31f50:	02 00 00 00 	inc	r0,r0

00031f54 <T_SRC1_885>:
   31f54:	04 00 00 00 	*unknown*

00031f58 <T_SRC1_886>:
   31f58:	08 00 00 00 	shl	r0,r0

00031f5c <T_SRC1_887>:
   31f5c:	10 00 00 00 	ld8	r0,r0

00031f60 <T_SRC1_888>:
   31f60:	20 00 00 00 	nop

00031f64 <T_SRC1_889>:
   31f64:	40 00 00 00 	*unknown*

00031f68 <T_SRC1_890>:
   31f68:	80 00 00 00 	*unknown*

00031f6c <T_SRC1_891>:
   31f6c:	00 00 00 00 	add	r0,r0

00031f70 <T_SRC1_892>:
   31f70:	00 00 00 01 	add	r0,r1

00031f74 <T_SRC1_893>:
   31f74:	00 00 00 02 	add	r0,r2

00031f78 <T_SRC1_894>:
   31f78:	00 00 00 04 	add	r0,r4

00031f7c <T_SRC1_895>:
   31f7c:	00 00 00 08 	add	r0,r8

00031f80 <T_SRC1_896>:
   31f80:	00 00 00 10 	add	r0,r16

00031f84 <T_SRC1_897>:
   31f84:	00 00 00 20 	add	r1,r0

00031f88 <T_SRC1_898>:
   31f88:	00 00 00 40 	add	r2,r0

00031f8c <T_SRC1_899>:
   31f8c:	00 00 00 80 	add	r4,r0

00031f90 <T_SRC1_900>:
   31f90:	00 00 01 00 	add	r8,r0

00031f94 <T_SRC1_901>:
   31f94:	00 00 02 00 	add	r16,r0

00031f98 <T_SRC1_902>:
   31f98:	00 00 04 00 	*unknown*

00031f9c <T_SRC1_903>:
   31f9c:	00 00 08 00 	*unknown*

00031fa0 <T_SRC1_904>:
   31fa0:	00 00 10 00 	*unknown*

00031fa4 <T_SRC1_905>:
   31fa4:	00 00 20 00 	*unknown*

00031fa8 <T_SRC1_906>:
   31fa8:	00 00 40 00 	*unknown*

00031fac <T_SRC1_907>:
   31fac:	00 00 80 00 	*unknown*

00031fb0 <T_SRC1_908>:
   31fb0:	00 01 00 00 	*unknown*

00031fb4 <T_SRC1_909>:
   31fb4:	00 02 00 00 	*unknown*

00031fb8 <T_SRC1_910>:
   31fb8:	00 04 00 00 	*unknown*

00031fbc <T_SRC1_911>:
   31fbc:	00 08 00 00 	*unknown*

00031fc0 <T_SRC1_912>:
   31fc0:	00 10 00 00 	add	r0,0

00031fc4 <T_SRC1_913>:
   31fc4:	00 20 00 00 	sub	r0,r0

00031fc8 <T_SRC1_914>:
   31fc8:	00 40 00 00 	mull	r0,r0

00031fcc <T_SRC1_915>:
   31fcc:	00 80 00 00 	udiv	r0,r0

00031fd0 <T_SRC1_916>:
   31fd0:	01 00 00 00 	mod	r0,r0

00031fd4 <T_SRC1_917>:
   31fd4:	02 00 00 00 	inc	r0,r0

00031fd8 <T_SRC1_918>:
   31fd8:	04 00 00 00 	*unknown*

00031fdc <T_SRC1_919>:
   31fdc:	08 00 00 00 	shl	r0,r0

00031fe0 <T_SRC1_920>:
   31fe0:	10 00 00 00 	ld8	r0,r0

00031fe4 <T_SRC1_921>:
   31fe4:	20 00 00 00 	nop

00031fe8 <T_SRC1_922>:
   31fe8:	40 00 00 00 	*unknown*

00031fec <T_SRC1_923>:
   31fec:	80 00 00 00 	*unknown*

00031ff0 <T_SRC1_924>:
   31ff0:	00 00 00 00 	add	r0,r0

00031ff4 <T_SRC1_925>:
   31ff4:	00 00 00 01 	add	r0,r1

00031ff8 <T_SRC1_926>:
   31ff8:	00 00 00 02 	add	r0,r2

00031ffc <T_SRC1_927>:
   31ffc:	00 00 00 04 	add	r0,r4

00032000 <T_SRC1_928>:
   32000:	00 00 00 08 	add	r0,r8

00032004 <T_SRC1_929>:
   32004:	00 00 00 10 	add	r0,r16

00032008 <T_SRC1_930>:
   32008:	00 00 00 20 	add	r1,r0

0003200c <T_SRC1_931>:
   3200c:	00 00 00 40 	add	r2,r0

00032010 <T_SRC1_932>:
   32010:	00 00 00 80 	add	r4,r0

00032014 <T_SRC1_933>:
   32014:	00 00 01 00 	add	r8,r0

00032018 <T_SRC1_934>:
   32018:	00 00 02 00 	add	r16,r0

0003201c <T_SRC1_935>:
   3201c:	00 00 04 00 	*unknown*

00032020 <T_SRC1_936>:
   32020:	00 00 08 00 	*unknown*

00032024 <T_SRC1_937>:
   32024:	00 00 10 00 	*unknown*

00032028 <T_SRC1_938>:
   32028:	00 00 20 00 	*unknown*

0003202c <T_SRC1_939>:
   3202c:	00 00 40 00 	*unknown*

00032030 <T_SRC1_940>:
   32030:	00 00 80 00 	*unknown*

00032034 <T_SRC1_941>:
   32034:	00 01 00 00 	*unknown*

00032038 <T_SRC1_942>:
   32038:	00 02 00 00 	*unknown*

0003203c <T_SRC1_943>:
   3203c:	00 04 00 00 	*unknown*

00032040 <T_SRC1_944>:
   32040:	00 08 00 00 	*unknown*

00032044 <T_SRC1_945>:
   32044:	00 10 00 00 	add	r0,0

00032048 <T_SRC1_946>:
   32048:	00 20 00 00 	sub	r0,r0

0003204c <T_SRC1_947>:
   3204c:	00 40 00 00 	mull	r0,r0

00032050 <T_SRC1_948>:
   32050:	00 80 00 00 	udiv	r0,r0

00032054 <T_SRC1_949>:
   32054:	01 00 00 00 	mod	r0,r0

00032058 <T_SRC1_950>:
   32058:	02 00 00 00 	inc	r0,r0

0003205c <T_SRC1_951>:
   3205c:	04 00 00 00 	*unknown*

00032060 <T_SRC1_952>:
   32060:	08 00 00 00 	shl	r0,r0

00032064 <T_SRC1_953>:
   32064:	10 00 00 00 	ld8	r0,r0

00032068 <T_SRC1_954>:
   32068:	20 00 00 00 	nop

0003206c <T_SRC1_955>:
   3206c:	40 00 00 00 	*unknown*

00032070 <T_SRC1_956>:
   32070:	80 00 00 00 	*unknown*

00032074 <T_SRC1_957>:
   32074:	00 00 00 00 	add	r0,r0

00032078 <T_SRC1_958>:
   32078:	00 00 00 01 	add	r0,r1

0003207c <T_SRC1_959>:
   3207c:	00 00 00 02 	add	r0,r2

00032080 <T_SRC1_960>:
   32080:	00 00 00 04 	add	r0,r4

00032084 <T_SRC1_961>:
   32084:	00 00 00 08 	add	r0,r8

00032088 <T_SRC1_962>:
   32088:	00 00 00 10 	add	r0,r16

0003208c <T_SRC1_963>:
   3208c:	00 00 00 20 	add	r1,r0

00032090 <T_SRC1_964>:
   32090:	00 00 00 40 	add	r2,r0

00032094 <T_SRC1_965>:
   32094:	00 00 00 80 	add	r4,r0

00032098 <T_SRC1_966>:
   32098:	00 00 01 00 	add	r8,r0

0003209c <T_SRC1_967>:
   3209c:	00 00 02 00 	add	r16,r0

000320a0 <T_SRC1_968>:
   320a0:	00 00 04 00 	*unknown*

000320a4 <T_SRC1_969>:
   320a4:	00 00 08 00 	*unknown*

000320a8 <T_SRC1_970>:
   320a8:	00 00 10 00 	*unknown*

000320ac <T_SRC1_971>:
   320ac:	00 00 20 00 	*unknown*

000320b0 <T_SRC1_972>:
   320b0:	00 00 40 00 	*unknown*

000320b4 <T_SRC1_973>:
   320b4:	00 00 80 00 	*unknown*

000320b8 <T_SRC1_974>:
   320b8:	00 01 00 00 	*unknown*

000320bc <T_SRC1_975>:
   320bc:	00 02 00 00 	*unknown*

000320c0 <T_SRC1_976>:
   320c0:	00 04 00 00 	*unknown*

000320c4 <T_SRC1_977>:
   320c4:	00 08 00 00 	*unknown*

000320c8 <T_SRC1_978>:
   320c8:	00 10 00 00 	add	r0,0

000320cc <T_SRC1_979>:
   320cc:	00 20 00 00 	sub	r0,r0

000320d0 <T_SRC1_980>:
   320d0:	00 40 00 00 	mull	r0,r0

000320d4 <T_SRC1_981>:
   320d4:	00 80 00 00 	udiv	r0,r0

000320d8 <T_SRC1_982>:
   320d8:	01 00 00 00 	mod	r0,r0

000320dc <T_SRC1_983>:
   320dc:	02 00 00 00 	inc	r0,r0

000320e0 <T_SRC1_984>:
   320e0:	04 00 00 00 	*unknown*

000320e4 <T_SRC1_985>:
   320e4:	08 00 00 00 	shl	r0,r0

000320e8 <T_SRC1_986>:
   320e8:	10 00 00 00 	ld8	r0,r0

000320ec <T_SRC1_987>:
   320ec:	20 00 00 00 	nop

000320f0 <T_SRC1_988>:
   320f0:	40 00 00 00 	*unknown*

000320f4 <T_SRC1_989>:
   320f4:	80 00 00 00 	*unknown*

000320f8 <T_SRC1_990>:
   320f8:	00 00 00 00 	add	r0,r0

000320fc <T_SRC1_991>:
   320fc:	00 00 00 01 	add	r0,r1

00032100 <T_SRC1_992>:
   32100:	00 00 00 02 	add	r0,r2

00032104 <T_SRC1_993>:
   32104:	00 00 00 04 	add	r0,r4

00032108 <T_SRC1_994>:
   32108:	00 00 00 08 	add	r0,r8

0003210c <T_SRC1_995>:
   3210c:	00 00 00 10 	add	r0,r16

00032110 <T_SRC1_996>:
   32110:	00 00 00 20 	add	r1,r0

00032114 <T_SRC1_997>:
   32114:	00 00 00 40 	add	r2,r0

00032118 <T_SRC1_998>:
   32118:	00 00 00 80 	add	r4,r0

0003211c <T_SRC1_999>:
   3211c:	00 00 01 00 	add	r8,r0

00032120 <T_SRC1_1000>:
   32120:	00 00 02 00 	add	r16,r0

00032124 <T_SRC1_1001>:
   32124:	00 00 04 00 	*unknown*

00032128 <T_SRC1_1002>:
   32128:	00 00 08 00 	*unknown*

0003212c <T_SRC1_1003>:
   3212c:	00 00 10 00 	*unknown*

00032130 <T_SRC1_1004>:
   32130:	00 00 20 00 	*unknown*

00032134 <T_SRC1_1005>:
   32134:	00 00 40 00 	*unknown*

00032138 <T_SRC1_1006>:
   32138:	00 00 80 00 	*unknown*

0003213c <T_SRC1_1007>:
   3213c:	00 01 00 00 	*unknown*

00032140 <T_SRC1_1008>:
   32140:	00 02 00 00 	*unknown*

00032144 <T_SRC1_1009>:
   32144:	00 04 00 00 	*unknown*

00032148 <T_SRC1_1010>:
   32148:	00 08 00 00 	*unknown*

0003214c <T_SRC1_1011>:
   3214c:	00 10 00 00 	add	r0,0

00032150 <T_SRC1_1012>:
   32150:	00 20 00 00 	sub	r0,r0

00032154 <T_SRC1_1013>:
   32154:	00 40 00 00 	mull	r0,r0

00032158 <T_SRC1_1014>:
   32158:	00 80 00 00 	udiv	r0,r0

0003215c <T_SRC1_1015>:
   3215c:	01 00 00 00 	mod	r0,r0

00032160 <T_SRC1_1016>:
   32160:	02 00 00 00 	inc	r0,r0

00032164 <T_SRC1_1017>:
   32164:	04 00 00 00 	*unknown*

00032168 <T_SRC1_1018>:
   32168:	08 00 00 00 	shl	r0,r0

0003216c <T_SRC1_1019>:
   3216c:	10 00 00 00 	ld8	r0,r0

00032170 <T_SRC1_1020>:
   32170:	20 00 00 00 	nop

00032174 <T_SRC1_1021>:
   32174:	40 00 00 00 	*unknown*

00032178 <T_SRC1_1022>:
   32178:	80 00 00 00 	*unknown*

0003217c <T_SRC1_1023>:
   3217c:	00 00 00 00 	add	r0,r0

00032180 <T_SRC1_1024>:
   32180:	00 00 00 01 	add	r0,r1

00032184 <T_SRC1_1025>:
   32184:	00 00 00 02 	add	r0,r2

00032188 <T_SRC1_1026>:
   32188:	00 00 00 04 	add	r0,r4

0003218c <T_SRC1_1027>:
   3218c:	00 00 00 08 	add	r0,r8

00032190 <T_SRC1_1028>:
   32190:	00 00 00 10 	add	r0,r16

00032194 <T_SRC1_1029>:
   32194:	00 00 00 20 	add	r1,r0

00032198 <T_SRC1_1030>:
   32198:	00 00 00 40 	add	r2,r0

0003219c <T_SRC1_1031>:
   3219c:	00 00 00 80 	add	r4,r0

000321a0 <T_SRC1_1032>:
   321a0:	00 00 01 00 	add	r8,r0

000321a4 <T_SRC1_1033>:
   321a4:	00 00 02 00 	add	r16,r0

000321a8 <T_SRC1_1034>:
   321a8:	00 00 04 00 	*unknown*

000321ac <T_SRC1_1035>:
   321ac:	00 00 08 00 	*unknown*

000321b0 <T_SRC1_1036>:
   321b0:	00 00 10 00 	*unknown*

000321b4 <T_SRC1_1037>:
   321b4:	00 00 20 00 	*unknown*

000321b8 <T_SRC1_1038>:
   321b8:	00 00 40 00 	*unknown*

000321bc <T_SRC1_1039>:
   321bc:	00 00 80 00 	*unknown*

000321c0 <T_SRC1_1040>:
   321c0:	00 01 00 00 	*unknown*

000321c4 <T_SRC1_1041>:
   321c4:	00 02 00 00 	*unknown*

000321c8 <T_SRC1_1042>:
   321c8:	00 04 00 00 	*unknown*

000321cc <T_SRC1_1043>:
   321cc:	00 08 00 00 	*unknown*

000321d0 <T_SRC1_1044>:
   321d0:	00 10 00 00 	add	r0,0

000321d4 <T_SRC1_1045>:
   321d4:	00 20 00 00 	sub	r0,r0

000321d8 <T_SRC1_1046>:
   321d8:	00 40 00 00 	mull	r0,r0

000321dc <T_SRC1_1047>:
   321dc:	00 80 00 00 	udiv	r0,r0

000321e0 <T_SRC1_1048>:
   321e0:	01 00 00 00 	mod	r0,r0

000321e4 <T_SRC1_1049>:
   321e4:	02 00 00 00 	inc	r0,r0

000321e8 <T_SRC1_1050>:
   321e8:	04 00 00 00 	*unknown*

000321ec <T_SRC1_1051>:
   321ec:	08 00 00 00 	shl	r0,r0

000321f0 <T_SRC1_1052>:
   321f0:	10 00 00 00 	ld8	r0,r0

000321f4 <T_SRC1_1053>:
   321f4:	20 00 00 00 	nop

000321f8 <T_SRC1_1054>:
   321f8:	40 00 00 00 	*unknown*

000321fc <T_SRC1_1055>:
   321fc:	80 00 00 00 	*unknown*

00032200 <T_SRC1_1056>:
   32200:	00 00 00 00 	add	r0,r0

00032204 <T_SRC1_1057>:
   32204:	00 00 00 01 	add	r0,r1

00032208 <T_SRC1_1058>:
   32208:	00 00 00 02 	add	r0,r2

0003220c <T_SRC1_1059>:
   3220c:	00 00 00 04 	add	r0,r4

00032210 <T_SRC1_1060>:
   32210:	00 00 00 08 	add	r0,r8

00032214 <T_SRC1_1061>:
   32214:	00 00 00 10 	add	r0,r16

00032218 <T_SRC1_1062>:
   32218:	00 00 00 20 	add	r1,r0

0003221c <T_SRC1_1063>:
   3221c:	00 00 00 40 	add	r2,r0

00032220 <T_SRC1_1064>:
   32220:	00 00 00 80 	add	r4,r0

00032224 <T_SRC1_1065>:
   32224:	00 00 01 00 	add	r8,r0

00032228 <T_SRC1_1066>:
   32228:	00 00 02 00 	add	r16,r0

0003222c <T_SRC1_1067>:
   3222c:	00 00 04 00 	*unknown*

00032230 <T_SRC1_1068>:
   32230:	00 00 08 00 	*unknown*

00032234 <T_SRC1_1069>:
   32234:	00 00 10 00 	*unknown*

00032238 <T_SRC1_1070>:
   32238:	00 00 20 00 	*unknown*

0003223c <T_SRC1_1071>:
   3223c:	00 00 40 00 	*unknown*

00032240 <T_SRC1_1072>:
   32240:	00 00 80 00 	*unknown*

00032244 <T_SRC1_1073>:
   32244:	00 01 00 00 	*unknown*

00032248 <T_SRC1_1074>:
   32248:	00 02 00 00 	*unknown*

0003224c <T_SRC1_1075>:
   3224c:	00 04 00 00 	*unknown*

00032250 <T_SRC1_1076>:
   32250:	00 08 00 00 	*unknown*

00032254 <T_SRC1_1077>:
   32254:	00 10 00 00 	add	r0,0

00032258 <T_SRC1_1078>:
   32258:	00 20 00 00 	sub	r0,r0

0003225c <T_SRC1_1079>:
   3225c:	00 40 00 00 	mull	r0,r0

00032260 <T_SRC1_1080>:
   32260:	00 80 00 00 	udiv	r0,r0

00032264 <T_SRC1_1081>:
   32264:	01 00 00 00 	mod	r0,r0

00032268 <T_SRC1_1082>:
   32268:	02 00 00 00 	inc	r0,r0

0003226c <T_SRC1_1083>:
   3226c:	04 00 00 00 	*unknown*

00032270 <T_SRC1_1084>:
   32270:	08 00 00 00 	shl	r0,r0

00032274 <T_SRC1_1085>:
   32274:	10 00 00 00 	ld8	r0,r0

00032278 <T_SRC1_1086>:
   32278:	20 00 00 00 	nop

0003227c <T_SRC1_1087>:
   3227c:	40 00 00 00 	*unknown*

00032280 <T_SRC1_1088>:
   32280:	80 00 00 00 	*unknown*

00032284 <T_SRC1_1089>:
   32284:	00 00 00 03 	add	r0,r3

00032288 <T_SRC1_1090>:
   32288:	00 00 00 07 	add	r0,rtmp

0003228c <T_SRC1_1091>:
   3228c:	00 00 00 0f 	add	r0,r15

00032290 <T_SRC1_1092>:
   32290:	00 00 00 1f 	add	r0,rret

00032294 <T_SRC1_1093>:
   32294:	00 00 00 3f 	add	r1,rret

00032298 <T_SRC1_1094>:
   32298:	00 00 00 7f 	add	r3,rret

0003229c <T_SRC1_1095>:
   3229c:	00 00 00 ff 	add	rtmp,rret

000322a0 <T_SRC1_1096>:
   322a0:	00 00 01 ff 	add	r15,rret

000322a4 <T_SRC1_1097>:
   322a4:	00 00 03 ff 	add	rret,rret

000322a8 <T_SRC1_1098>:
   322a8:	00 00 07 ff 	*unknown*

000322ac <T_SRC1_1099>:
   322ac:	00 00 0f ff 	*unknown*

000322b0 <T_SRC1_1100>:
   322b0:	00 00 1f ff 	*unknown*

000322b4 <T_SRC1_1101>:
   322b4:	00 00 3f ff 	*unknown*

000322b8 <T_SRC1_1102>:
   322b8:	00 00 7f ff 	*unknown*

000322bc <T_SRC1_1103>:
   322bc:	00 00 ff ff 	*unknown*

000322c0 <T_SRC1_1104>:
   322c0:	00 01 ff ff 	*unknown*

000322c4 <T_SRC1_1105>:
   322c4:	00 03 ff ff 	*unknown*

000322c8 <T_SRC1_1106>:
   322c8:	00 07 ff ff 	*unknown*

000322cc <T_SRC1_1107>:
   322cc:	00 0f ff ff 	*unknown*

000322d0 <T_SRC1_1108>:
   322d0:	00 1f ff ff 	*unknown*

000322d4 <T_SRC1_1109>:
   322d4:	00 3f ff ff 	*unknown*

000322d8 <T_SRC1_1110>:
   322d8:	00 7f ff ff 	*unknown*

000322dc <T_SRC1_1111>:
   322dc:	00 ff ff ff 	*unknown*

000322e0 <T_SRC1_1112>:
   322e0:	01 ff ff ff 	*unknown*

000322e4 <T_SRC1_1113>:
   322e4:	03 ff ff ff 	*unknown*

000322e8 <T_SRC1_1114>:
   322e8:	07 ff ff ff 	*unknown*

000322ec <T_SRC1_1115>:
   322ec:	0f ff ff ff 	*unknown*

000322f0 <T_SRC1_1116>:
   322f0:	1f ff ff ff 	*unknown*

000322f4 <T_SRC1_1117>:
   322f4:	3f ff ff ff 	*unknown*

000322f8 <T_SRC1_1118>:
   322f8:	7f ff ff ff 	*unknown*

000322fc <T_SRC1_1119>:
   322fc:	ff ff ff ff 	*unknown*

00032300 <T_EXPECT0>:
   32300:	00 00 00 00 	add	r0,r0

00032304 <T_EXPECT1>:
   32304:	00 00 00 01 	add	r0,r1

00032308 <T_EXPECT2>:
   32308:	00 00 00 02 	add	r0,r2

0003230c <T_EXPECT3>:
   3230c:	00 00 00 04 	add	r0,r4

00032310 <T_EXPECT4>:
   32310:	00 00 00 08 	add	r0,r8

00032314 <T_EXPECT5>:
   32314:	00 00 00 10 	add	r0,r16

00032318 <T_EXPECT6>:
   32318:	00 00 00 20 	add	r1,r0

0003231c <T_EXPECT7>:
   3231c:	00 00 00 40 	add	r2,r0

00032320 <T_EXPECT8>:
   32320:	00 00 00 80 	add	r4,r0

00032324 <T_EXPECT9>:
   32324:	00 00 01 00 	add	r8,r0

00032328 <T_EXPECT10>:
   32328:	00 00 02 00 	add	r16,r0

0003232c <T_EXPECT11>:
   3232c:	00 00 04 00 	*unknown*

00032330 <T_EXPECT12>:
   32330:	00 00 08 00 	*unknown*

00032334 <T_EXPECT13>:
   32334:	00 00 10 00 	*unknown*

00032338 <T_EXPECT14>:
   32338:	00 00 20 00 	*unknown*

0003233c <T_EXPECT15>:
   3233c:	00 00 40 00 	*unknown*

00032340 <T_EXPECT16>:
   32340:	00 00 80 00 	*unknown*

00032344 <T_EXPECT17>:
   32344:	00 01 00 00 	*unknown*

00032348 <T_EXPECT18>:
   32348:	00 02 00 00 	*unknown*

0003234c <T_EXPECT19>:
   3234c:	00 04 00 00 	*unknown*

00032350 <T_EXPECT20>:
   32350:	00 08 00 00 	*unknown*

00032354 <T_EXPECT21>:
   32354:	00 10 00 00 	add	r0,0

00032358 <T_EXPECT22>:
   32358:	00 20 00 00 	sub	r0,r0

0003235c <T_EXPECT23>:
   3235c:	00 40 00 00 	mull	r0,r0

00032360 <T_EXPECT24>:
   32360:	00 80 00 00 	udiv	r0,r0

00032364 <T_EXPECT25>:
   32364:	01 00 00 00 	mod	r0,r0

00032368 <T_EXPECT26>:
   32368:	02 00 00 00 	inc	r0,r0

0003236c <T_EXPECT27>:
   3236c:	04 00 00 00 	*unknown*

00032370 <T_EXPECT28>:
   32370:	08 00 00 00 	shl	r0,r0

00032374 <T_EXPECT29>:
   32374:	10 00 00 00 	ld8	r0,r0

00032378 <T_EXPECT30>:
   32378:	20 00 00 00 	nop

0003237c <T_EXPECT31>:
   3237c:	40 00 00 00 	*unknown*

00032380 <T_EXPECT32>:
   32380:	80 00 00 00 	*unknown*

00032384 <T_EXPECT33>:
   32384:	00 00 00 01 	add	r0,r1

00032388 <T_EXPECT34>:
   32388:	00 00 00 02 	add	r0,r2

0003238c <T_EXPECT35>:
   3238c:	00 00 00 03 	add	r0,r3

00032390 <T_EXPECT36>:
   32390:	00 00 00 05 	add	r0,r5

00032394 <T_EXPECT37>:
   32394:	00 00 00 09 	add	r0,r9

00032398 <T_EXPECT38>:
   32398:	00 00 00 11 	add	r0,r17

0003239c <T_EXPECT39>:
   3239c:	00 00 00 21 	add	r1,r1

000323a0 <T_EXPECT40>:
   323a0:	00 00 00 41 	add	r2,r1

000323a4 <T_EXPECT41>:
   323a4:	00 00 00 81 	add	r4,r1

000323a8 <T_EXPECT42>:
   323a8:	00 00 01 01 	add	r8,r1

000323ac <T_EXPECT43>:
   323ac:	00 00 02 01 	add	r16,r1

000323b0 <T_EXPECT44>:
   323b0:	00 00 04 01 	*unknown*

000323b4 <T_EXPECT45>:
   323b4:	00 00 08 01 	*unknown*

000323b8 <T_EXPECT46>:
   323b8:	00 00 10 01 	*unknown*

000323bc <T_EXPECT47>:
   323bc:	00 00 20 01 	*unknown*

000323c0 <T_EXPECT48>:
   323c0:	00 00 40 01 	*unknown*

000323c4 <T_EXPECT49>:
   323c4:	00 00 80 01 	*unknown*

000323c8 <T_EXPECT50>:
   323c8:	00 01 00 01 	*unknown*

000323cc <T_EXPECT51>:
   323cc:	00 02 00 01 	*unknown*

000323d0 <T_EXPECT52>:
   323d0:	00 04 00 01 	*unknown*

000323d4 <T_EXPECT53>:
   323d4:	00 08 00 01 	*unknown*

000323d8 <T_EXPECT54>:
   323d8:	00 10 00 01 	add	r0,1

000323dc <T_EXPECT55>:
   323dc:	00 20 00 01 	sub	r0,r1

000323e0 <T_EXPECT56>:
   323e0:	00 40 00 01 	mull	r0,r1

000323e4 <T_EXPECT57>:
   323e4:	00 80 00 01 	udiv	r0,r1

000323e8 <T_EXPECT58>:
   323e8:	01 00 00 01 	mod	r0,r1

000323ec <T_EXPECT59>:
   323ec:	02 00 00 01 	inc	r0,r1

000323f0 <T_EXPECT60>:
   323f0:	04 00 00 01 	*unknown*

000323f4 <T_EXPECT61>:
   323f4:	08 00 00 01 	shl	r0,r1

000323f8 <T_EXPECT62>:
   323f8:	10 00 00 01 	ld8	r0,r1

000323fc <T_EXPECT63>:
   323fc:	20 00 00 01 	*unknown*

00032400 <T_EXPECT64>:
   32400:	40 00 00 01 	*unknown*

00032404 <T_EXPECT65>:
   32404:	80 00 00 01 	*unknown*

00032408 <T_EXPECT66>:
   32408:	00 00 00 02 	add	r0,r2

0003240c <T_EXPECT67>:
   3240c:	00 00 00 03 	add	r0,r3

00032410 <T_EXPECT68>:
   32410:	00 00 00 04 	add	r0,r4

00032414 <T_EXPECT69>:
   32414:	00 00 00 06 	add	r0,r6

00032418 <T_EXPECT70>:
   32418:	00 00 00 0a 	add	r0,r10

0003241c <T_EXPECT71>:
   3241c:	00 00 00 12 	add	r0,r18

00032420 <T_EXPECT72>:
   32420:	00 00 00 22 	add	r1,r2

00032424 <T_EXPECT73>:
   32424:	00 00 00 42 	add	r2,r2

00032428 <T_EXPECT74>:
   32428:	00 00 00 82 	add	r4,r2

0003242c <T_EXPECT75>:
   3242c:	00 00 01 02 	add	r8,r2

00032430 <T_EXPECT76>:
   32430:	00 00 02 02 	add	r16,r2

00032434 <T_EXPECT77>:
   32434:	00 00 04 02 	*unknown*

00032438 <T_EXPECT78>:
   32438:	00 00 08 02 	*unknown*

0003243c <T_EXPECT79>:
   3243c:	00 00 10 02 	*unknown*

00032440 <T_EXPECT80>:
   32440:	00 00 20 02 	*unknown*

00032444 <T_EXPECT81>:
   32444:	00 00 40 02 	*unknown*

00032448 <T_EXPECT82>:
   32448:	00 00 80 02 	*unknown*

0003244c <T_EXPECT83>:
   3244c:	00 01 00 02 	*unknown*

00032450 <T_EXPECT84>:
   32450:	00 02 00 02 	*unknown*

00032454 <T_EXPECT85>:
   32454:	00 04 00 02 	*unknown*

00032458 <T_EXPECT86>:
   32458:	00 08 00 02 	*unknown*

0003245c <T_EXPECT87>:
   3245c:	00 10 00 02 	add	r0,2

00032460 <T_EXPECT88>:
   32460:	00 20 00 02 	sub	r0,r2

00032464 <T_EXPECT89>:
   32464:	00 40 00 02 	mull	r0,r2

00032468 <T_EXPECT90>:
   32468:	00 80 00 02 	udiv	r0,r2

0003246c <T_EXPECT91>:
   3246c:	01 00 00 02 	mod	r0,r2

00032470 <T_EXPECT92>:
   32470:	02 00 00 02 	inc	r0,r2

00032474 <T_EXPECT93>:
   32474:	04 00 00 02 	*unknown*

00032478 <T_EXPECT94>:
   32478:	08 00 00 02 	shl	r0,r2

0003247c <T_EXPECT95>:
   3247c:	10 00 00 02 	ld8	r0,r2

00032480 <T_EXPECT96>:
   32480:	20 00 00 02 	*unknown*

00032484 <T_EXPECT97>:
   32484:	40 00 00 02 	*unknown*

00032488 <T_EXPECT98>:
   32488:	80 00 00 02 	*unknown*

0003248c <T_EXPECT99>:
   3248c:	00 00 00 04 	add	r0,r4

00032490 <T_EXPECT100>:
   32490:	00 00 00 05 	add	r0,r5

00032494 <T_EXPECT101>:
   32494:	00 00 00 06 	add	r0,r6

00032498 <T_EXPECT102>:
   32498:	00 00 00 08 	add	r0,r8

0003249c <T_EXPECT103>:
   3249c:	00 00 00 0c 	add	r0,r12

000324a0 <T_EXPECT104>:
   324a0:	00 00 00 14 	add	r0,r20

000324a4 <T_EXPECT105>:
   324a4:	00 00 00 24 	add	r1,r4

000324a8 <T_EXPECT106>:
   324a8:	00 00 00 44 	add	r2,r4

000324ac <T_EXPECT107>:
   324ac:	00 00 00 84 	add	r4,r4

000324b0 <T_EXPECT108>:
   324b0:	00 00 01 04 	add	r8,r4

000324b4 <T_EXPECT109>:
   324b4:	00 00 02 04 	add	r16,r4

000324b8 <T_EXPECT110>:
   324b8:	00 00 04 04 	*unknown*

000324bc <T_EXPECT111>:
   324bc:	00 00 08 04 	*unknown*

000324c0 <T_EXPECT112>:
   324c0:	00 00 10 04 	*unknown*

000324c4 <T_EXPECT113>:
   324c4:	00 00 20 04 	*unknown*

000324c8 <T_EXPECT114>:
   324c8:	00 00 40 04 	*unknown*

000324cc <T_EXPECT115>:
   324cc:	00 00 80 04 	*unknown*

000324d0 <T_EXPECT116>:
   324d0:	00 01 00 04 	*unknown*

000324d4 <T_EXPECT117>:
   324d4:	00 02 00 04 	*unknown*

000324d8 <T_EXPECT118>:
   324d8:	00 04 00 04 	*unknown*

000324dc <T_EXPECT119>:
   324dc:	00 08 00 04 	*unknown*

000324e0 <T_EXPECT120>:
   324e0:	00 10 00 04 	add	r0,4

000324e4 <T_EXPECT121>:
   324e4:	00 20 00 04 	sub	r0,r4

000324e8 <T_EXPECT122>:
   324e8:	00 40 00 04 	mull	r0,r4

000324ec <T_EXPECT123>:
   324ec:	00 80 00 04 	udiv	r0,r4

000324f0 <T_EXPECT124>:
   324f0:	01 00 00 04 	mod	r0,r4

000324f4 <T_EXPECT125>:
   324f4:	02 00 00 04 	inc	r0,r4

000324f8 <T_EXPECT126>:
   324f8:	04 00 00 04 	*unknown*

000324fc <T_EXPECT127>:
   324fc:	08 00 00 04 	shl	r0,r4

00032500 <T_EXPECT128>:
   32500:	10 00 00 04 	ld8	r0,r4

00032504 <T_EXPECT129>:
   32504:	20 00 00 04 	*unknown*

00032508 <T_EXPECT130>:
   32508:	40 00 00 04 	*unknown*

0003250c <T_EXPECT131>:
   3250c:	80 00 00 04 	*unknown*

00032510 <T_EXPECT132>:
   32510:	00 00 00 08 	add	r0,r8

00032514 <T_EXPECT133>:
   32514:	00 00 00 09 	add	r0,r9

00032518 <T_EXPECT134>:
   32518:	00 00 00 0a 	add	r0,r10

0003251c <T_EXPECT135>:
   3251c:	00 00 00 0c 	add	r0,r12

00032520 <T_EXPECT136>:
   32520:	00 00 00 10 	add	r0,r16

00032524 <T_EXPECT137>:
   32524:	00 00 00 18 	add	r0,r24

00032528 <T_EXPECT138>:
   32528:	00 00 00 28 	add	r1,r8

0003252c <T_EXPECT139>:
   3252c:	00 00 00 48 	add	r2,r8

00032530 <T_EXPECT140>:
   32530:	00 00 00 88 	add	r4,r8

00032534 <T_EXPECT141>:
   32534:	00 00 01 08 	add	r8,r8

00032538 <T_EXPECT142>:
   32538:	00 00 02 08 	add	r16,r8

0003253c <T_EXPECT143>:
   3253c:	00 00 04 08 	*unknown*

00032540 <T_EXPECT144>:
   32540:	00 00 08 08 	*unknown*

00032544 <T_EXPECT145>:
   32544:	00 00 10 08 	*unknown*

00032548 <T_EXPECT146>:
   32548:	00 00 20 08 	*unknown*

0003254c <T_EXPECT147>:
   3254c:	00 00 40 08 	*unknown*

00032550 <T_EXPECT148>:
   32550:	00 00 80 08 	*unknown*

00032554 <T_EXPECT149>:
   32554:	00 01 00 08 	*unknown*

00032558 <T_EXPECT150>:
   32558:	00 02 00 08 	*unknown*

0003255c <T_EXPECT151>:
   3255c:	00 04 00 08 	*unknown*

00032560 <T_EXPECT152>:
   32560:	00 08 00 08 	*unknown*

00032564 <T_EXPECT153>:
   32564:	00 10 00 08 	add	r0,8

00032568 <T_EXPECT154>:
   32568:	00 20 00 08 	sub	r0,r8

0003256c <T_EXPECT155>:
   3256c:	00 40 00 08 	mull	r0,r8

00032570 <T_EXPECT156>:
   32570:	00 80 00 08 	udiv	r0,r8

00032574 <T_EXPECT157>:
   32574:	01 00 00 08 	mod	r0,r8

00032578 <T_EXPECT158>:
   32578:	02 00 00 08 	inc	r0,r8

0003257c <T_EXPECT159>:
   3257c:	04 00 00 08 	*unknown*

00032580 <T_EXPECT160>:
   32580:	08 00 00 08 	shl	r0,r8

00032584 <T_EXPECT161>:
   32584:	10 00 00 08 	ld8	r0,r8

00032588 <T_EXPECT162>:
   32588:	20 00 00 08 	*unknown*

0003258c <T_EXPECT163>:
   3258c:	40 00 00 08 	*unknown*

00032590 <T_EXPECT164>:
   32590:	80 00 00 08 	*unknown*

00032594 <T_EXPECT165>:
   32594:	00 00 00 10 	add	r0,r16

00032598 <T_EXPECT166>:
   32598:	00 00 00 11 	add	r0,r17

0003259c <T_EXPECT167>:
   3259c:	00 00 00 12 	add	r0,r18

000325a0 <T_EXPECT168>:
   325a0:	00 00 00 14 	add	r0,r20

000325a4 <T_EXPECT169>:
   325a4:	00 00 00 18 	add	r0,r24

000325a8 <T_EXPECT170>:
   325a8:	00 00 00 20 	add	r1,r0

000325ac <T_EXPECT171>:
   325ac:	00 00 00 30 	add	r1,r16

000325b0 <T_EXPECT172>:
   325b0:	00 00 00 50 	add	r2,r16

000325b4 <T_EXPECT173>:
   325b4:	00 00 00 90 	add	r4,r16

000325b8 <T_EXPECT174>:
   325b8:	00 00 01 10 	add	r8,r16

000325bc <T_EXPECT175>:
   325bc:	00 00 02 10 	add	r16,r16

000325c0 <T_EXPECT176>:
   325c0:	00 00 04 10 	*unknown*

000325c4 <T_EXPECT177>:
   325c4:	00 00 08 10 	*unknown*

000325c8 <T_EXPECT178>:
   325c8:	00 00 10 10 	*unknown*

000325cc <T_EXPECT179>:
   325cc:	00 00 20 10 	*unknown*

000325d0 <T_EXPECT180>:
   325d0:	00 00 40 10 	*unknown*

000325d4 <T_EXPECT181>:
   325d4:	00 00 80 10 	*unknown*

000325d8 <T_EXPECT182>:
   325d8:	00 01 00 10 	*unknown*

000325dc <T_EXPECT183>:
   325dc:	00 02 00 10 	*unknown*

000325e0 <T_EXPECT184>:
   325e0:	00 04 00 10 	*unknown*

000325e4 <T_EXPECT185>:
   325e4:	00 08 00 10 	*unknown*

000325e8 <T_EXPECT186>:
   325e8:	00 10 00 10 	add	r0,16

000325ec <T_EXPECT187>:
   325ec:	00 20 00 10 	sub	r0,r16

000325f0 <T_EXPECT188>:
   325f0:	00 40 00 10 	mull	r0,r16

000325f4 <T_EXPECT189>:
   325f4:	00 80 00 10 	udiv	r0,r16

000325f8 <T_EXPECT190>:
   325f8:	01 00 00 10 	mod	r0,r16

000325fc <T_EXPECT191>:
   325fc:	02 00 00 10 	inc	r0,r16

00032600 <T_EXPECT192>:
   32600:	04 00 00 10 	*unknown*

00032604 <T_EXPECT193>:
   32604:	08 00 00 10 	shl	r0,r16

00032608 <T_EXPECT194>:
   32608:	10 00 00 10 	ld8	r0,r16

0003260c <T_EXPECT195>:
   3260c:	20 00 00 10 	*unknown*

00032610 <T_EXPECT196>:
   32610:	40 00 00 10 	*unknown*

00032614 <T_EXPECT197>:
   32614:	80 00 00 10 	*unknown*

00032618 <T_EXPECT198>:
   32618:	00 00 00 20 	add	r1,r0

0003261c <T_EXPECT199>:
   3261c:	00 00 00 21 	add	r1,r1

00032620 <T_EXPECT200>:
   32620:	00 00 00 22 	add	r1,r2

00032624 <T_EXPECT201>:
   32624:	00 00 00 24 	add	r1,r4

00032628 <T_EXPECT202>:
   32628:	00 00 00 28 	add	r1,r8

0003262c <T_EXPECT203>:
   3262c:	00 00 00 30 	add	r1,r16

00032630 <T_EXPECT204>:
   32630:	00 00 00 40 	add	r2,r0

00032634 <T_EXPECT205>:
   32634:	00 00 00 60 	add	r3,r0

00032638 <T_EXPECT206>:
   32638:	00 00 00 a0 	add	r5,r0

0003263c <T_EXPECT207>:
   3263c:	00 00 01 20 	add	r9,r0

00032640 <T_EXPECT208>:
   32640:	00 00 02 20 	add	r17,r0

00032644 <T_EXPECT209>:
   32644:	00 00 04 20 	*unknown*

00032648 <T_EXPECT210>:
   32648:	00 00 08 20 	*unknown*

0003264c <T_EXPECT211>:
   3264c:	00 00 10 20 	*unknown*

00032650 <T_EXPECT212>:
   32650:	00 00 20 20 	*unknown*

00032654 <T_EXPECT213>:
   32654:	00 00 40 20 	*unknown*

00032658 <T_EXPECT214>:
   32658:	00 00 80 20 	*unknown*

0003265c <T_EXPECT215>:
   3265c:	00 01 00 20 	*unknown*

00032660 <T_EXPECT216>:
   32660:	00 02 00 20 	*unknown*

00032664 <T_EXPECT217>:
   32664:	00 04 00 20 	*unknown*

00032668 <T_EXPECT218>:
   32668:	00 08 00 20 	*unknown*

0003266c <T_EXPECT219>:
   3266c:	00 10 00 20 	add	r1,0

00032670 <T_EXPECT220>:
   32670:	00 20 00 20 	sub	r1,r0

00032674 <T_EXPECT221>:
   32674:	00 40 00 20 	mull	r1,r0

00032678 <T_EXPECT222>:
   32678:	00 80 00 20 	udiv	r1,r0

0003267c <T_EXPECT223>:
   3267c:	01 00 00 20 	mod	r1,r0

00032680 <T_EXPECT224>:
   32680:	02 00 00 20 	inc	r1,r0

00032684 <T_EXPECT225>:
   32684:	04 00 00 20 	*unknown*

00032688 <T_EXPECT226>:
   32688:	08 00 00 20 	shl	r1,r0

0003268c <T_EXPECT227>:
   3268c:	10 00 00 20 	ld8	r1,r0

00032690 <T_EXPECT228>:
   32690:	20 00 00 20 	*unknown*

00032694 <T_EXPECT229>:
   32694:	40 00 00 20 	*unknown*

00032698 <T_EXPECT230>:
   32698:	80 00 00 20 	*unknown*

0003269c <T_EXPECT231>:
   3269c:	00 00 00 40 	add	r2,r0

000326a0 <T_EXPECT232>:
   326a0:	00 00 00 41 	add	r2,r1

000326a4 <T_EXPECT233>:
   326a4:	00 00 00 42 	add	r2,r2

000326a8 <T_EXPECT234>:
   326a8:	00 00 00 44 	add	r2,r4

000326ac <T_EXPECT235>:
   326ac:	00 00 00 48 	add	r2,r8

000326b0 <T_EXPECT236>:
   326b0:	00 00 00 50 	add	r2,r16

000326b4 <T_EXPECT237>:
   326b4:	00 00 00 60 	add	r3,r0

000326b8 <T_EXPECT238>:
   326b8:	00 00 00 80 	add	r4,r0

000326bc <T_EXPECT239>:
   326bc:	00 00 00 c0 	add	r6,r0

000326c0 <T_EXPECT240>:
   326c0:	00 00 01 40 	add	r10,r0

000326c4 <T_EXPECT241>:
   326c4:	00 00 02 40 	add	r18,r0

000326c8 <T_EXPECT242>:
   326c8:	00 00 04 40 	*unknown*

000326cc <T_EXPECT243>:
   326cc:	00 00 08 40 	*unknown*

000326d0 <T_EXPECT244>:
   326d0:	00 00 10 40 	*unknown*

000326d4 <T_EXPECT245>:
   326d4:	00 00 20 40 	*unknown*

000326d8 <T_EXPECT246>:
   326d8:	00 00 40 40 	*unknown*

000326dc <T_EXPECT247>:
   326dc:	00 00 80 40 	*unknown*

000326e0 <T_EXPECT248>:
   326e0:	00 01 00 40 	*unknown*

000326e4 <T_EXPECT249>:
   326e4:	00 02 00 40 	*unknown*

000326e8 <T_EXPECT250>:
   326e8:	00 04 00 40 	*unknown*

000326ec <T_EXPECT251>:
   326ec:	00 08 00 40 	*unknown*

000326f0 <T_EXPECT252>:
   326f0:	00 10 00 40 	add	r2,0

000326f4 <T_EXPECT253>:
   326f4:	00 20 00 40 	sub	r2,r0

000326f8 <T_EXPECT254>:
   326f8:	00 40 00 40 	mull	r2,r0

000326fc <T_EXPECT255>:
   326fc:	00 80 00 40 	udiv	r2,r0

00032700 <T_EXPECT256>:
   32700:	01 00 00 40 	mod	r2,r0

00032704 <T_EXPECT257>:
   32704:	02 00 00 40 	inc	r2,r0

00032708 <T_EXPECT258>:
   32708:	04 00 00 40 	*unknown*

0003270c <T_EXPECT259>:
   3270c:	08 00 00 40 	shl	r2,r0

00032710 <T_EXPECT260>:
   32710:	10 00 00 40 	ld8	r2,r0

00032714 <T_EXPECT261>:
   32714:	20 00 00 40 	*unknown*

00032718 <T_EXPECT262>:
   32718:	40 00 00 40 	*unknown*

0003271c <T_EXPECT263>:
   3271c:	80 00 00 40 	*unknown*

00032720 <T_EXPECT264>:
   32720:	00 00 00 80 	add	r4,r0

00032724 <T_EXPECT265>:
   32724:	00 00 00 81 	add	r4,r1

00032728 <T_EXPECT266>:
   32728:	00 00 00 82 	add	r4,r2

0003272c <T_EXPECT267>:
   3272c:	00 00 00 84 	add	r4,r4

00032730 <T_EXPECT268>:
   32730:	00 00 00 88 	add	r4,r8

00032734 <T_EXPECT269>:
   32734:	00 00 00 90 	add	r4,r16

00032738 <T_EXPECT270>:
   32738:	00 00 00 a0 	add	r5,r0

0003273c <T_EXPECT271>:
   3273c:	00 00 00 c0 	add	r6,r0

00032740 <T_EXPECT272>:
   32740:	00 00 01 00 	add	r8,r0

00032744 <T_EXPECT273>:
   32744:	00 00 01 80 	add	r12,r0

00032748 <T_EXPECT274>:
   32748:	00 00 02 80 	add	r20,r0

0003274c <T_EXPECT275>:
   3274c:	00 00 04 80 	*unknown*

00032750 <T_EXPECT276>:
   32750:	00 00 08 80 	*unknown*

00032754 <T_EXPECT277>:
   32754:	00 00 10 80 	*unknown*

00032758 <T_EXPECT278>:
   32758:	00 00 20 80 	*unknown*

0003275c <T_EXPECT279>:
   3275c:	00 00 40 80 	*unknown*

00032760 <T_EXPECT280>:
   32760:	00 00 80 80 	*unknown*

00032764 <T_EXPECT281>:
   32764:	00 01 00 80 	*unknown*

00032768 <T_EXPECT282>:
   32768:	00 02 00 80 	*unknown*

0003276c <T_EXPECT283>:
   3276c:	00 04 00 80 	*unknown*

00032770 <T_EXPECT284>:
   32770:	00 08 00 80 	*unknown*

00032774 <T_EXPECT285>:
   32774:	00 10 00 80 	add	r4,0

00032778 <T_EXPECT286>:
   32778:	00 20 00 80 	sub	r4,r0

0003277c <T_EXPECT287>:
   3277c:	00 40 00 80 	mull	r4,r0

00032780 <T_EXPECT288>:
   32780:	00 80 00 80 	udiv	r4,r0

00032784 <T_EXPECT289>:
   32784:	01 00 00 80 	mod	r4,r0

00032788 <T_EXPECT290>:
   32788:	02 00 00 80 	inc	r4,r0

0003278c <T_EXPECT291>:
   3278c:	04 00 00 80 	*unknown*

00032790 <T_EXPECT292>:
   32790:	08 00 00 80 	shl	r4,r0

00032794 <T_EXPECT293>:
   32794:	10 00 00 80 	ld8	r4,r0

00032798 <T_EXPECT294>:
   32798:	20 00 00 80 	*unknown*

0003279c <T_EXPECT295>:
   3279c:	40 00 00 80 	*unknown*

000327a0 <T_EXPECT296>:
   327a0:	80 00 00 80 	*unknown*

000327a4 <T_EXPECT297>:
   327a4:	00 00 01 00 	add	r8,r0

000327a8 <T_EXPECT298>:
   327a8:	00 00 01 01 	add	r8,r1

000327ac <T_EXPECT299>:
   327ac:	00 00 01 02 	add	r8,r2

000327b0 <T_EXPECT300>:
   327b0:	00 00 01 04 	add	r8,r4

000327b4 <T_EXPECT301>:
   327b4:	00 00 01 08 	add	r8,r8

000327b8 <T_EXPECT302>:
   327b8:	00 00 01 10 	add	r8,r16

000327bc <T_EXPECT303>:
   327bc:	00 00 01 20 	add	r9,r0

000327c0 <T_EXPECT304>:
   327c0:	00 00 01 40 	add	r10,r0

000327c4 <T_EXPECT305>:
   327c4:	00 00 01 80 	add	r12,r0

000327c8 <T_EXPECT306>:
   327c8:	00 00 02 00 	add	r16,r0

000327cc <T_EXPECT307>:
   327cc:	00 00 03 00 	add	r24,r0

000327d0 <T_EXPECT308>:
   327d0:	00 00 05 00 	*unknown*

000327d4 <T_EXPECT309>:
   327d4:	00 00 09 00 	*unknown*

000327d8 <T_EXPECT310>:
   327d8:	00 00 11 00 	*unknown*

000327dc <T_EXPECT311>:
   327dc:	00 00 21 00 	*unknown*

000327e0 <T_EXPECT312>:
   327e0:	00 00 41 00 	*unknown*

000327e4 <T_EXPECT313>:
   327e4:	00 00 81 00 	*unknown*

000327e8 <T_EXPECT314>:
   327e8:	00 01 01 00 	*unknown*

000327ec <T_EXPECT315>:
   327ec:	00 02 01 00 	*unknown*

000327f0 <T_EXPECT316>:
   327f0:	00 04 01 00 	*unknown*

000327f4 <T_EXPECT317>:
   327f4:	00 08 01 00 	*unknown*

000327f8 <T_EXPECT318>:
   327f8:	00 10 01 00 	add	r8,0

000327fc <T_EXPECT319>:
   327fc:	00 20 01 00 	sub	r8,r0

00032800 <T_EXPECT320>:
   32800:	00 40 01 00 	mull	r8,r0

00032804 <T_EXPECT321>:
   32804:	00 80 01 00 	udiv	r8,r0

00032808 <T_EXPECT322>:
   32808:	01 00 01 00 	mod	r8,r0

0003280c <T_EXPECT323>:
   3280c:	02 00 01 00 	inc	r8,r0

00032810 <T_EXPECT324>:
   32810:	04 00 01 00 	*unknown*

00032814 <T_EXPECT325>:
   32814:	08 00 01 00 	shl	r8,r0

00032818 <T_EXPECT326>:
   32818:	10 00 01 00 	ld8	r8,r0

0003281c <T_EXPECT327>:
   3281c:	20 00 01 00 	*unknown*

00032820 <T_EXPECT328>:
   32820:	40 00 01 00 	*unknown*

00032824 <T_EXPECT329>:
   32824:	80 00 01 00 	*unknown*

00032828 <T_EXPECT330>:
   32828:	00 00 02 00 	add	r16,r0

0003282c <T_EXPECT331>:
   3282c:	00 00 02 01 	add	r16,r1

00032830 <T_EXPECT332>:
   32830:	00 00 02 02 	add	r16,r2

00032834 <T_EXPECT333>:
   32834:	00 00 02 04 	add	r16,r4

00032838 <T_EXPECT334>:
   32838:	00 00 02 08 	add	r16,r8

0003283c <T_EXPECT335>:
   3283c:	00 00 02 10 	add	r16,r16

00032840 <T_EXPECT336>:
   32840:	00 00 02 20 	add	r17,r0

00032844 <T_EXPECT337>:
   32844:	00 00 02 40 	add	r18,r0

00032848 <T_EXPECT338>:
   32848:	00 00 02 80 	add	r20,r0

0003284c <T_EXPECT339>:
   3284c:	00 00 03 00 	add	r24,r0

00032850 <T_EXPECT340>:
   32850:	00 00 04 00 	*unknown*

00032854 <T_EXPECT341>:
   32854:	00 00 06 00 	*unknown*

00032858 <T_EXPECT342>:
   32858:	00 00 0a 00 	*unknown*

0003285c <T_EXPECT343>:
   3285c:	00 00 12 00 	*unknown*

00032860 <T_EXPECT344>:
   32860:	00 00 22 00 	*unknown*

00032864 <T_EXPECT345>:
   32864:	00 00 42 00 	*unknown*

00032868 <T_EXPECT346>:
   32868:	00 00 82 00 	*unknown*

0003286c <T_EXPECT347>:
   3286c:	00 01 02 00 	*unknown*

00032870 <T_EXPECT348>:
   32870:	00 02 02 00 	*unknown*

00032874 <T_EXPECT349>:
   32874:	00 04 02 00 	*unknown*

00032878 <T_EXPECT350>:
   32878:	00 08 02 00 	*unknown*

0003287c <T_EXPECT351>:
   3287c:	00 10 02 00 	add	r16,0

00032880 <T_EXPECT352>:
   32880:	00 20 02 00 	sub	r16,r0

00032884 <T_EXPECT353>:
   32884:	00 40 02 00 	mull	r16,r0

00032888 <T_EXPECT354>:
   32888:	00 80 02 00 	udiv	r16,r0

0003288c <T_EXPECT355>:
   3288c:	01 00 02 00 	mod	r16,r0

00032890 <T_EXPECT356>:
   32890:	02 00 02 00 	inc	r16,r0

00032894 <T_EXPECT357>:
   32894:	04 00 02 00 	*unknown*

00032898 <T_EXPECT358>:
   32898:	08 00 02 00 	shl	r16,r0

0003289c <T_EXPECT359>:
   3289c:	10 00 02 00 	ld8	r16,r0

000328a0 <T_EXPECT360>:
   328a0:	20 00 02 00 	*unknown*

000328a4 <T_EXPECT361>:
   328a4:	40 00 02 00 	*unknown*

000328a8 <T_EXPECT362>:
   328a8:	80 00 02 00 	*unknown*

000328ac <T_EXPECT363>:
   328ac:	00 00 04 00 	*unknown*

000328b0 <T_EXPECT364>:
   328b0:	00 00 04 01 	*unknown*

000328b4 <T_EXPECT365>:
   328b4:	00 00 04 02 	*unknown*

000328b8 <T_EXPECT366>:
   328b8:	00 00 04 04 	*unknown*

000328bc <T_EXPECT367>:
   328bc:	00 00 04 08 	*unknown*

000328c0 <T_EXPECT368>:
   328c0:	00 00 04 10 	*unknown*

000328c4 <T_EXPECT369>:
   328c4:	00 00 04 20 	*unknown*

000328c8 <T_EXPECT370>:
   328c8:	00 00 04 40 	*unknown*

000328cc <T_EXPECT371>:
   328cc:	00 00 04 80 	*unknown*

000328d0 <T_EXPECT372>:
   328d0:	00 00 05 00 	*unknown*

000328d4 <T_EXPECT373>:
   328d4:	00 00 06 00 	*unknown*

000328d8 <T_EXPECT374>:
   328d8:	00 00 08 00 	*unknown*

000328dc <T_EXPECT375>:
   328dc:	00 00 0c 00 	*unknown*

000328e0 <T_EXPECT376>:
   328e0:	00 00 14 00 	*unknown*

000328e4 <T_EXPECT377>:
   328e4:	00 00 24 00 	*unknown*

000328e8 <T_EXPECT378>:
   328e8:	00 00 44 00 	*unknown*

000328ec <T_EXPECT379>:
   328ec:	00 00 84 00 	*unknown*

000328f0 <T_EXPECT380>:
   328f0:	00 01 04 00 	*unknown*

000328f4 <T_EXPECT381>:
   328f4:	00 02 04 00 	*unknown*

000328f8 <T_EXPECT382>:
   328f8:	00 04 04 00 	*unknown*

000328fc <T_EXPECT383>:
   328fc:	00 08 04 00 	*unknown*

00032900 <T_EXPECT384>:
   32900:	00 10 04 00 	add	r0,32

00032904 <T_EXPECT385>:
   32904:	00 20 04 00 	*unknown*

00032908 <T_EXPECT386>:
   32908:	00 40 04 00 	*unknown*

0003290c <T_EXPECT387>:
   3290c:	00 80 04 00 	*unknown*

00032910 <T_EXPECT388>:
   32910:	01 00 04 00 	*unknown*

00032914 <T_EXPECT389>:
   32914:	02 00 04 00 	*unknown*

00032918 <T_EXPECT390>:
   32918:	04 00 04 00 	*unknown*

0003291c <T_EXPECT391>:
   3291c:	08 00 04 00 	*unknown*

00032920 <T_EXPECT392>:
   32920:	10 00 04 00 	*unknown*

00032924 <T_EXPECT393>:
   32924:	20 00 04 00 	*unknown*

00032928 <T_EXPECT394>:
   32928:	40 00 04 00 	*unknown*

0003292c <T_EXPECT395>:
   3292c:	80 00 04 00 	*unknown*

00032930 <T_EXPECT396>:
   32930:	00 00 08 00 	*unknown*

00032934 <T_EXPECT397>:
   32934:	00 00 08 01 	*unknown*

00032938 <T_EXPECT398>:
   32938:	00 00 08 02 	*unknown*

0003293c <T_EXPECT399>:
   3293c:	00 00 08 04 	*unknown*

00032940 <T_EXPECT400>:
   32940:	00 00 08 08 	*unknown*

00032944 <T_EXPECT401>:
   32944:	00 00 08 10 	*unknown*

00032948 <T_EXPECT402>:
   32948:	00 00 08 20 	*unknown*

0003294c <T_EXPECT403>:
   3294c:	00 00 08 40 	*unknown*

00032950 <T_EXPECT404>:
   32950:	00 00 08 80 	*unknown*

00032954 <T_EXPECT405>:
   32954:	00 00 09 00 	*unknown*

00032958 <T_EXPECT406>:
   32958:	00 00 0a 00 	*unknown*

0003295c <T_EXPECT407>:
   3295c:	00 00 0c 00 	*unknown*

00032960 <T_EXPECT408>:
   32960:	00 00 10 00 	*unknown*

00032964 <T_EXPECT409>:
   32964:	00 00 18 00 	*unknown*

00032968 <T_EXPECT410>:
   32968:	00 00 28 00 	*unknown*

0003296c <T_EXPECT411>:
   3296c:	00 00 48 00 	*unknown*

00032970 <T_EXPECT412>:
   32970:	00 00 88 00 	*unknown*

00032974 <T_EXPECT413>:
   32974:	00 01 08 00 	*unknown*

00032978 <T_EXPECT414>:
   32978:	00 02 08 00 	*unknown*

0003297c <T_EXPECT415>:
   3297c:	00 04 08 00 	*unknown*

00032980 <T_EXPECT416>:
   32980:	00 08 08 00 	*unknown*

00032984 <T_EXPECT417>:
   32984:	00 10 08 00 	add	r0,64

00032988 <T_EXPECT418>:
   32988:	00 20 08 00 	*unknown*

0003298c <T_EXPECT419>:
   3298c:	00 40 08 00 	*unknown*

00032990 <T_EXPECT420>:
   32990:	00 80 08 00 	*unknown*

00032994 <T_EXPECT421>:
   32994:	01 00 08 00 	*unknown*

00032998 <T_EXPECT422>:
   32998:	02 00 08 00 	*unknown*

0003299c <T_EXPECT423>:
   3299c:	04 00 08 00 	*unknown*

000329a0 <T_EXPECT424>:
   329a0:	08 00 08 00 	*unknown*

000329a4 <T_EXPECT425>:
   329a4:	10 00 08 00 	*unknown*

000329a8 <T_EXPECT426>:
   329a8:	20 00 08 00 	*unknown*

000329ac <T_EXPECT427>:
   329ac:	40 00 08 00 	*unknown*

000329b0 <T_EXPECT428>:
   329b0:	80 00 08 00 	*unknown*

000329b4 <T_EXPECT429>:
   329b4:	00 00 10 00 	*unknown*

000329b8 <T_EXPECT430>:
   329b8:	00 00 10 01 	*unknown*

000329bc <T_EXPECT431>:
   329bc:	00 00 10 02 	*unknown*

000329c0 <T_EXPECT432>:
   329c0:	00 00 10 04 	*unknown*

000329c4 <T_EXPECT433>:
   329c4:	00 00 10 08 	*unknown*

000329c8 <T_EXPECT434>:
   329c8:	00 00 10 10 	*unknown*

000329cc <T_EXPECT435>:
   329cc:	00 00 10 20 	*unknown*

000329d0 <T_EXPECT436>:
   329d0:	00 00 10 40 	*unknown*

000329d4 <T_EXPECT437>:
   329d4:	00 00 10 80 	*unknown*

000329d8 <T_EXPECT438>:
   329d8:	00 00 11 00 	*unknown*

000329dc <T_EXPECT439>:
   329dc:	00 00 12 00 	*unknown*

000329e0 <T_EXPECT440>:
   329e0:	00 00 14 00 	*unknown*

000329e4 <T_EXPECT441>:
   329e4:	00 00 18 00 	*unknown*

000329e8 <T_EXPECT442>:
   329e8:	00 00 20 00 	*unknown*

000329ec <T_EXPECT443>:
   329ec:	00 00 30 00 	*unknown*

000329f0 <T_EXPECT444>:
   329f0:	00 00 50 00 	*unknown*

000329f4 <T_EXPECT445>:
   329f4:	00 00 90 00 	*unknown*

000329f8 <T_EXPECT446>:
   329f8:	00 01 10 00 	*unknown*

000329fc <T_EXPECT447>:
   329fc:	00 02 10 00 	*unknown*

00032a00 <T_EXPECT448>:
   32a00:	00 04 10 00 	*unknown*

00032a04 <T_EXPECT449>:
   32a04:	00 08 10 00 	*unknown*

00032a08 <T_EXPECT450>:
   32a08:	00 10 10 00 	add	r0,128

00032a0c <T_EXPECT451>:
   32a0c:	00 20 10 00 	*unknown*

00032a10 <T_EXPECT452>:
   32a10:	00 40 10 00 	*unknown*

00032a14 <T_EXPECT453>:
   32a14:	00 80 10 00 	*unknown*

00032a18 <T_EXPECT454>:
   32a18:	01 00 10 00 	*unknown*

00032a1c <T_EXPECT455>:
   32a1c:	02 00 10 00 	*unknown*

00032a20 <T_EXPECT456>:
   32a20:	04 00 10 00 	*unknown*

00032a24 <T_EXPECT457>:
   32a24:	08 00 10 00 	*unknown*

00032a28 <T_EXPECT458>:
   32a28:	10 00 10 00 	*unknown*

00032a2c <T_EXPECT459>:
   32a2c:	20 00 10 00 	*unknown*

00032a30 <T_EXPECT460>:
   32a30:	40 00 10 00 	*unknown*

00032a34 <T_EXPECT461>:
   32a34:	80 00 10 00 	*unknown*

00032a38 <T_EXPECT462>:
   32a38:	00 00 20 00 	*unknown*

00032a3c <T_EXPECT463>:
   32a3c:	00 00 20 01 	*unknown*

00032a40 <T_EXPECT464>:
   32a40:	00 00 20 02 	*unknown*

00032a44 <T_EXPECT465>:
   32a44:	00 00 20 04 	*unknown*

00032a48 <T_EXPECT466>:
   32a48:	00 00 20 08 	*unknown*

00032a4c <T_EXPECT467>:
   32a4c:	00 00 20 10 	*unknown*

00032a50 <T_EXPECT468>:
   32a50:	00 00 20 20 	*unknown*

00032a54 <T_EXPECT469>:
   32a54:	00 00 20 40 	*unknown*

00032a58 <T_EXPECT470>:
   32a58:	00 00 20 80 	*unknown*

00032a5c <T_EXPECT471>:
   32a5c:	00 00 21 00 	*unknown*

00032a60 <T_EXPECT472>:
   32a60:	00 00 22 00 	*unknown*

00032a64 <T_EXPECT473>:
   32a64:	00 00 24 00 	*unknown*

00032a68 <T_EXPECT474>:
   32a68:	00 00 28 00 	*unknown*

00032a6c <T_EXPECT475>:
   32a6c:	00 00 30 00 	*unknown*

00032a70 <T_EXPECT476>:
   32a70:	00 00 40 00 	*unknown*

00032a74 <T_EXPECT477>:
   32a74:	00 00 60 00 	*unknown*

00032a78 <T_EXPECT478>:
   32a78:	00 00 a0 00 	*unknown*

00032a7c <T_EXPECT479>:
   32a7c:	00 01 20 00 	*unknown*

00032a80 <T_EXPECT480>:
   32a80:	00 02 20 00 	*unknown*

00032a84 <T_EXPECT481>:
   32a84:	00 04 20 00 	*unknown*

00032a88 <T_EXPECT482>:
   32a88:	00 08 20 00 	*unknown*

00032a8c <T_EXPECT483>:
   32a8c:	00 10 20 00 	add	r0,256

00032a90 <T_EXPECT484>:
   32a90:	00 20 20 00 	*unknown*

00032a94 <T_EXPECT485>:
   32a94:	00 40 20 00 	*unknown*

00032a98 <T_EXPECT486>:
   32a98:	00 80 20 00 	*unknown*

00032a9c <T_EXPECT487>:
   32a9c:	01 00 20 00 	*unknown*

00032aa0 <T_EXPECT488>:
   32aa0:	02 00 20 00 	*unknown*

00032aa4 <T_EXPECT489>:
   32aa4:	04 00 20 00 	*unknown*

00032aa8 <T_EXPECT490>:
   32aa8:	08 00 20 00 	*unknown*

00032aac <T_EXPECT491>:
   32aac:	10 00 20 00 	*unknown*

00032ab0 <T_EXPECT492>:
   32ab0:	20 00 20 00 	*unknown*

00032ab4 <T_EXPECT493>:
   32ab4:	40 00 20 00 	*unknown*

00032ab8 <T_EXPECT494>:
   32ab8:	80 00 20 00 	*unknown*

00032abc <T_EXPECT495>:
   32abc:	00 00 40 00 	*unknown*

00032ac0 <T_EXPECT496>:
   32ac0:	00 00 40 01 	*unknown*

00032ac4 <T_EXPECT497>:
   32ac4:	00 00 40 02 	*unknown*

00032ac8 <T_EXPECT498>:
   32ac8:	00 00 40 04 	*unknown*

00032acc <T_EXPECT499>:
   32acc:	00 00 40 08 	*unknown*

00032ad0 <T_EXPECT500>:
   32ad0:	00 00 40 10 	*unknown*

00032ad4 <T_EXPECT501>:
   32ad4:	00 00 40 20 	*unknown*

00032ad8 <T_EXPECT502>:
   32ad8:	00 00 40 40 	*unknown*

00032adc <T_EXPECT503>:
   32adc:	00 00 40 80 	*unknown*

00032ae0 <T_EXPECT504>:
   32ae0:	00 00 41 00 	*unknown*

00032ae4 <T_EXPECT505>:
   32ae4:	00 00 42 00 	*unknown*

00032ae8 <T_EXPECT506>:
   32ae8:	00 00 44 00 	*unknown*

00032aec <T_EXPECT507>:
   32aec:	00 00 48 00 	*unknown*

00032af0 <T_EXPECT508>:
   32af0:	00 00 50 00 	*unknown*

00032af4 <T_EXPECT509>:
   32af4:	00 00 60 00 	*unknown*

00032af8 <T_EXPECT510>:
   32af8:	00 00 80 00 	*unknown*

00032afc <T_EXPECT511>:
   32afc:	00 00 c0 00 	*unknown*

00032b00 <T_EXPECT512>:
   32b00:	00 01 40 00 	*unknown*

00032b04 <T_EXPECT513>:
   32b04:	00 02 40 00 	*unknown*

00032b08 <T_EXPECT514>:
   32b08:	00 04 40 00 	*unknown*

00032b0c <T_EXPECT515>:
   32b0c:	00 08 40 00 	*unknown*

00032b10 <T_EXPECT516>:
   32b10:	00 10 40 00 	add	r0,512

00032b14 <T_EXPECT517>:
   32b14:	00 20 40 00 	*unknown*

00032b18 <T_EXPECT518>:
   32b18:	00 40 40 00 	*unknown*

00032b1c <T_EXPECT519>:
   32b1c:	00 80 40 00 	*unknown*

00032b20 <T_EXPECT520>:
   32b20:	01 00 40 00 	*unknown*

00032b24 <T_EXPECT521>:
   32b24:	02 00 40 00 	*unknown*

00032b28 <T_EXPECT522>:
   32b28:	04 00 40 00 	*unknown*

00032b2c <T_EXPECT523>:
   32b2c:	08 00 40 00 	*unknown*

00032b30 <T_EXPECT524>:
   32b30:	10 00 40 00 	*unknown*

00032b34 <T_EXPECT525>:
   32b34:	20 00 40 00 	*unknown*

00032b38 <T_EXPECT526>:
   32b38:	40 00 40 00 	*unknown*

00032b3c <T_EXPECT527>:
   32b3c:	80 00 40 00 	*unknown*

00032b40 <T_EXPECT528>:
   32b40:	00 00 80 00 	*unknown*

00032b44 <T_EXPECT529>:
   32b44:	00 00 80 01 	*unknown*

00032b48 <T_EXPECT530>:
   32b48:	00 00 80 02 	*unknown*

00032b4c <T_EXPECT531>:
   32b4c:	00 00 80 04 	*unknown*

00032b50 <T_EXPECT532>:
   32b50:	00 00 80 08 	*unknown*

00032b54 <T_EXPECT533>:
   32b54:	00 00 80 10 	*unknown*

00032b58 <T_EXPECT534>:
   32b58:	00 00 80 20 	*unknown*

00032b5c <T_EXPECT535>:
   32b5c:	00 00 80 40 	*unknown*

00032b60 <T_EXPECT536>:
   32b60:	00 00 80 80 	*unknown*

00032b64 <T_EXPECT537>:
   32b64:	00 00 81 00 	*unknown*

00032b68 <T_EXPECT538>:
   32b68:	00 00 82 00 	*unknown*

00032b6c <T_EXPECT539>:
   32b6c:	00 00 84 00 	*unknown*

00032b70 <T_EXPECT540>:
   32b70:	00 00 88 00 	*unknown*

00032b74 <T_EXPECT541>:
   32b74:	00 00 90 00 	*unknown*

00032b78 <T_EXPECT542>:
   32b78:	00 00 a0 00 	*unknown*

00032b7c <T_EXPECT543>:
   32b7c:	00 00 c0 00 	*unknown*

00032b80 <T_EXPECT544>:
   32b80:	00 01 00 00 	*unknown*

00032b84 <T_EXPECT545>:
   32b84:	00 01 80 00 	*unknown*

00032b88 <T_EXPECT546>:
   32b88:	00 02 80 00 	*unknown*

00032b8c <T_EXPECT547>:
   32b8c:	00 04 80 00 	*unknown*

00032b90 <T_EXPECT548>:
   32b90:	00 08 80 00 	*unknown*

00032b94 <T_EXPECT549>:
   32b94:	00 10 80 00 	add	r0,-1024

00032b98 <T_EXPECT550>:
   32b98:	00 20 80 00 	*unknown*

00032b9c <T_EXPECT551>:
   32b9c:	00 40 80 00 	*unknown*

00032ba0 <T_EXPECT552>:
   32ba0:	00 80 80 00 	*unknown*

00032ba4 <T_EXPECT553>:
   32ba4:	01 00 80 00 	*unknown*

00032ba8 <T_EXPECT554>:
   32ba8:	02 00 80 00 	*unknown*

00032bac <T_EXPECT555>:
   32bac:	04 00 80 00 	*unknown*

00032bb0 <T_EXPECT556>:
   32bb0:	08 00 80 00 	*unknown*

00032bb4 <T_EXPECT557>:
   32bb4:	10 00 80 00 	*unknown*

00032bb8 <T_EXPECT558>:
   32bb8:	20 00 80 00 	*unknown*

00032bbc <T_EXPECT559>:
   32bbc:	40 00 80 00 	*unknown*

00032bc0 <T_EXPECT560>:
   32bc0:	80 00 80 00 	*unknown*

00032bc4 <T_EXPECT561>:
   32bc4:	00 01 00 00 	*unknown*

00032bc8 <T_EXPECT562>:
   32bc8:	00 01 00 01 	*unknown*

00032bcc <T_EXPECT563>:
   32bcc:	00 01 00 02 	*unknown*

00032bd0 <T_EXPECT564>:
   32bd0:	00 01 00 04 	*unknown*

00032bd4 <T_EXPECT565>:
   32bd4:	00 01 00 08 	*unknown*

00032bd8 <T_EXPECT566>:
   32bd8:	00 01 00 10 	*unknown*

00032bdc <T_EXPECT567>:
   32bdc:	00 01 00 20 	*unknown*

00032be0 <T_EXPECT568>:
   32be0:	00 01 00 40 	*unknown*

00032be4 <T_EXPECT569>:
   32be4:	00 01 00 80 	*unknown*

00032be8 <T_EXPECT570>:
   32be8:	00 01 01 00 	*unknown*

00032bec <T_EXPECT571>:
   32bec:	00 01 02 00 	*unknown*

00032bf0 <T_EXPECT572>:
   32bf0:	00 01 04 00 	*unknown*

00032bf4 <T_EXPECT573>:
   32bf4:	00 01 08 00 	*unknown*

00032bf8 <T_EXPECT574>:
   32bf8:	00 01 10 00 	*unknown*

00032bfc <T_EXPECT575>:
   32bfc:	00 01 20 00 	*unknown*

00032c00 <T_EXPECT576>:
   32c00:	00 01 40 00 	*unknown*

00032c04 <T_EXPECT577>:
   32c04:	00 01 80 00 	*unknown*

00032c08 <T_EXPECT578>:
   32c08:	00 02 00 00 	*unknown*

00032c0c <T_EXPECT579>:
   32c0c:	00 03 00 00 	*unknown*

00032c10 <T_EXPECT580>:
   32c10:	00 05 00 00 	*unknown*

00032c14 <T_EXPECT581>:
   32c14:	00 09 00 00 	*unknown*

00032c18 <T_EXPECT582>:
   32c18:	00 11 00 00 	*unknown*

00032c1c <T_EXPECT583>:
   32c1c:	00 21 00 00 	*unknown*

00032c20 <T_EXPECT584>:
   32c20:	00 41 00 00 	*unknown*

00032c24 <T_EXPECT585>:
   32c24:	00 81 00 00 	*unknown*

00032c28 <T_EXPECT586>:
   32c28:	01 01 00 00 	*unknown*

00032c2c <T_EXPECT587>:
   32c2c:	02 01 00 00 	*unknown*

00032c30 <T_EXPECT588>:
   32c30:	04 01 00 00 	*unknown*

00032c34 <T_EXPECT589>:
   32c34:	08 01 00 00 	*unknown*

00032c38 <T_EXPECT590>:
   32c38:	10 01 00 00 	*unknown*

00032c3c <T_EXPECT591>:
   32c3c:	20 01 00 00 	*unknown*

00032c40 <T_EXPECT592>:
   32c40:	40 01 00 00 	*unknown*

00032c44 <T_EXPECT593>:
   32c44:	80 01 00 00 	*unknown*

00032c48 <T_EXPECT594>:
   32c48:	00 02 00 00 	*unknown*

00032c4c <T_EXPECT595>:
   32c4c:	00 02 00 01 	*unknown*

00032c50 <T_EXPECT596>:
   32c50:	00 02 00 02 	*unknown*

00032c54 <T_EXPECT597>:
   32c54:	00 02 00 04 	*unknown*

00032c58 <T_EXPECT598>:
   32c58:	00 02 00 08 	*unknown*

00032c5c <T_EXPECT599>:
   32c5c:	00 02 00 10 	*unknown*

00032c60 <T_EXPECT600>:
   32c60:	00 02 00 20 	*unknown*

00032c64 <T_EXPECT601>:
   32c64:	00 02 00 40 	*unknown*

00032c68 <T_EXPECT602>:
   32c68:	00 02 00 80 	*unknown*

00032c6c <T_EXPECT603>:
   32c6c:	00 02 01 00 	*unknown*

00032c70 <T_EXPECT604>:
   32c70:	00 02 02 00 	*unknown*

00032c74 <T_EXPECT605>:
   32c74:	00 02 04 00 	*unknown*

00032c78 <T_EXPECT606>:
   32c78:	00 02 08 00 	*unknown*

00032c7c <T_EXPECT607>:
   32c7c:	00 02 10 00 	*unknown*

00032c80 <T_EXPECT608>:
   32c80:	00 02 20 00 	*unknown*

00032c84 <T_EXPECT609>:
   32c84:	00 02 40 00 	*unknown*

00032c88 <T_EXPECT610>:
   32c88:	00 02 80 00 	*unknown*

00032c8c <T_EXPECT611>:
   32c8c:	00 03 00 00 	*unknown*

00032c90 <T_EXPECT612>:
   32c90:	00 04 00 00 	*unknown*

00032c94 <T_EXPECT613>:
   32c94:	00 06 00 00 	*unknown*

00032c98 <T_EXPECT614>:
   32c98:	00 0a 00 00 	*unknown*

00032c9c <T_EXPECT615>:
   32c9c:	00 12 00 00 	*unknown*

00032ca0 <T_EXPECT616>:
   32ca0:	00 22 00 00 	*unknown*

00032ca4 <T_EXPECT617>:
   32ca4:	00 42 00 00 	*unknown*

00032ca8 <T_EXPECT618>:
   32ca8:	00 82 00 00 	*unknown*

00032cac <T_EXPECT619>:
   32cac:	01 02 00 00 	*unknown*

00032cb0 <T_EXPECT620>:
   32cb0:	02 02 00 00 	*unknown*

00032cb4 <T_EXPECT621>:
   32cb4:	04 02 00 00 	*unknown*

00032cb8 <T_EXPECT622>:
   32cb8:	08 02 00 00 	*unknown*

00032cbc <T_EXPECT623>:
   32cbc:	10 02 00 00 	*unknown*

00032cc0 <T_EXPECT624>:
   32cc0:	20 02 00 00 	*unknown*

00032cc4 <T_EXPECT625>:
   32cc4:	40 02 00 00 	*unknown*

00032cc8 <T_EXPECT626>:
   32cc8:	80 02 00 00 	*unknown*

00032ccc <T_EXPECT627>:
   32ccc:	00 04 00 00 	*unknown*

00032cd0 <T_EXPECT628>:
   32cd0:	00 04 00 01 	*unknown*

00032cd4 <T_EXPECT629>:
   32cd4:	00 04 00 02 	*unknown*

00032cd8 <T_EXPECT630>:
   32cd8:	00 04 00 04 	*unknown*

00032cdc <T_EXPECT631>:
   32cdc:	00 04 00 08 	*unknown*

00032ce0 <T_EXPECT632>:
   32ce0:	00 04 00 10 	*unknown*

00032ce4 <T_EXPECT633>:
   32ce4:	00 04 00 20 	*unknown*

00032ce8 <T_EXPECT634>:
   32ce8:	00 04 00 40 	*unknown*

00032cec <T_EXPECT635>:
   32cec:	00 04 00 80 	*unknown*

00032cf0 <T_EXPECT636>:
   32cf0:	00 04 01 00 	*unknown*

00032cf4 <T_EXPECT637>:
   32cf4:	00 04 02 00 	*unknown*

00032cf8 <T_EXPECT638>:
   32cf8:	00 04 04 00 	*unknown*

00032cfc <T_EXPECT639>:
   32cfc:	00 04 08 00 	*unknown*

00032d00 <T_EXPECT640>:
   32d00:	00 04 10 00 	*unknown*

00032d04 <T_EXPECT641>:
   32d04:	00 04 20 00 	*unknown*

00032d08 <T_EXPECT642>:
   32d08:	00 04 40 00 	*unknown*

00032d0c <T_EXPECT643>:
   32d0c:	00 04 80 00 	*unknown*

00032d10 <T_EXPECT644>:
   32d10:	00 05 00 00 	*unknown*

00032d14 <T_EXPECT645>:
   32d14:	00 06 00 00 	*unknown*

00032d18 <T_EXPECT646>:
   32d18:	00 08 00 00 	*unknown*

00032d1c <T_EXPECT647>:
   32d1c:	00 0c 00 00 	*unknown*

00032d20 <T_EXPECT648>:
   32d20:	00 14 00 00 	*unknown*

00032d24 <T_EXPECT649>:
   32d24:	00 24 00 00 	*unknown*

00032d28 <T_EXPECT650>:
   32d28:	00 44 00 00 	*unknown*

00032d2c <T_EXPECT651>:
   32d2c:	00 84 00 00 	*unknown*

00032d30 <T_EXPECT652>:
   32d30:	01 04 00 00 	*unknown*

00032d34 <T_EXPECT653>:
   32d34:	02 04 00 00 	*unknown*

00032d38 <T_EXPECT654>:
   32d38:	04 04 00 00 	*unknown*

00032d3c <T_EXPECT655>:
   32d3c:	08 04 00 00 	*unknown*

00032d40 <T_EXPECT656>:
   32d40:	10 04 00 00 	*unknown*

00032d44 <T_EXPECT657>:
   32d44:	20 04 00 00 	*unknown*

00032d48 <T_EXPECT658>:
   32d48:	40 04 00 00 	*unknown*

00032d4c <T_EXPECT659>:
   32d4c:	80 04 00 00 	*unknown*

00032d50 <T_EXPECT660>:
   32d50:	00 08 00 00 	*unknown*

00032d54 <T_EXPECT661>:
   32d54:	00 08 00 01 	*unknown*

00032d58 <T_EXPECT662>:
   32d58:	00 08 00 02 	*unknown*

00032d5c <T_EXPECT663>:
   32d5c:	00 08 00 04 	*unknown*

00032d60 <T_EXPECT664>:
   32d60:	00 08 00 08 	*unknown*

00032d64 <T_EXPECT665>:
   32d64:	00 08 00 10 	*unknown*

00032d68 <T_EXPECT666>:
   32d68:	00 08 00 20 	*unknown*

00032d6c <T_EXPECT667>:
   32d6c:	00 08 00 40 	*unknown*

00032d70 <T_EXPECT668>:
   32d70:	00 08 00 80 	*unknown*

00032d74 <T_EXPECT669>:
   32d74:	00 08 01 00 	*unknown*

00032d78 <T_EXPECT670>:
   32d78:	00 08 02 00 	*unknown*

00032d7c <T_EXPECT671>:
   32d7c:	00 08 04 00 	*unknown*

00032d80 <T_EXPECT672>:
   32d80:	00 08 08 00 	*unknown*

00032d84 <T_EXPECT673>:
   32d84:	00 08 10 00 	*unknown*

00032d88 <T_EXPECT674>:
   32d88:	00 08 20 00 	*unknown*

00032d8c <T_EXPECT675>:
   32d8c:	00 08 40 00 	*unknown*

00032d90 <T_EXPECT676>:
   32d90:	00 08 80 00 	*unknown*

00032d94 <T_EXPECT677>:
   32d94:	00 09 00 00 	*unknown*

00032d98 <T_EXPECT678>:
   32d98:	00 0a 00 00 	*unknown*

00032d9c <T_EXPECT679>:
   32d9c:	00 0c 00 00 	*unknown*

00032da0 <T_EXPECT680>:
   32da0:	00 10 00 00 	add	r0,0

00032da4 <T_EXPECT681>:
   32da4:	00 18 00 00 	*unknown*

00032da8 <T_EXPECT682>:
   32da8:	00 28 00 00 	*unknown*

00032dac <T_EXPECT683>:
   32dac:	00 48 00 00 	*unknown*

00032db0 <T_EXPECT684>:
   32db0:	00 88 00 00 	*unknown*

00032db4 <T_EXPECT685>:
   32db4:	01 08 00 00 	*unknown*

00032db8 <T_EXPECT686>:
   32db8:	02 08 00 00 	*unknown*

00032dbc <T_EXPECT687>:
   32dbc:	04 08 00 00 	*unknown*

00032dc0 <T_EXPECT688>:
   32dc0:	08 08 00 00 	*unknown*

00032dc4 <T_EXPECT689>:
   32dc4:	10 08 00 00 	*unknown*

00032dc8 <T_EXPECT690>:
   32dc8:	20 08 00 00 	*unknown*

00032dcc <T_EXPECT691>:
   32dcc:	40 08 00 00 	*unknown*

00032dd0 <T_EXPECT692>:
   32dd0:	80 08 00 00 	*unknown*

00032dd4 <T_EXPECT693>:
   32dd4:	00 10 00 00 	add	r0,0

00032dd8 <T_EXPECT694>:
   32dd8:	00 10 00 01 	add	r0,1

00032ddc <T_EXPECT695>:
   32ddc:	00 10 00 02 	add	r0,2

00032de0 <T_EXPECT696>:
   32de0:	00 10 00 04 	add	r0,4

00032de4 <T_EXPECT697>:
   32de4:	00 10 00 08 	add	r0,8

00032de8 <T_EXPECT698>:
   32de8:	00 10 00 10 	add	r0,16

00032dec <T_EXPECT699>:
   32dec:	00 10 00 20 	add	r1,0

00032df0 <T_EXPECT700>:
   32df0:	00 10 00 40 	add	r2,0

00032df4 <T_EXPECT701>:
   32df4:	00 10 00 80 	add	r4,0

00032df8 <T_EXPECT702>:
   32df8:	00 10 01 00 	add	r8,0

00032dfc <T_EXPECT703>:
   32dfc:	00 10 02 00 	add	r16,0

00032e00 <T_EXPECT704>:
   32e00:	00 10 04 00 	add	r0,32

00032e04 <T_EXPECT705>:
   32e04:	00 10 08 00 	add	r0,64

00032e08 <T_EXPECT706>:
   32e08:	00 10 10 00 	add	r0,128

00032e0c <T_EXPECT707>:
   32e0c:	00 10 20 00 	add	r0,256

00032e10 <T_EXPECT708>:
   32e10:	00 10 40 00 	add	r0,512

00032e14 <T_EXPECT709>:
   32e14:	00 10 80 00 	add	r0,-1024

00032e18 <T_EXPECT710>:
   32e18:	00 11 00 00 	*unknown*

00032e1c <T_EXPECT711>:
   32e1c:	00 12 00 00 	*unknown*

00032e20 <T_EXPECT712>:
   32e20:	00 14 00 00 	*unknown*

00032e24 <T_EXPECT713>:
   32e24:	00 18 00 00 	*unknown*

00032e28 <T_EXPECT714>:
   32e28:	00 20 00 00 	sub	r0,r0

00032e2c <T_EXPECT715>:
   32e2c:	00 30 00 00 	sub	r0,0

00032e30 <T_EXPECT716>:
   32e30:	00 50 00 00 	mull	r0,0

00032e34 <T_EXPECT717>:
   32e34:	00 90 00 00 	udiv	r0,0x0

00032e38 <T_EXPECT718>:
   32e38:	01 10 00 00 	mod	r0,0

00032e3c <T_EXPECT719>:
   32e3c:	02 10 00 00 	*unknown*

00032e40 <T_EXPECT720>:
   32e40:	04 10 00 00 	*unknown*

00032e44 <T_EXPECT721>:
   32e44:	08 10 00 00 	shl	r0,0x0

00032e48 <T_EXPECT722>:
   32e48:	10 10 00 00 	ld8	r0,0 <_start>

00032e4c <T_EXPECT723>:
   32e4c:	20 10 00 00 	*unknown*

00032e50 <T_EXPECT724>:
   32e50:	40 10 00 00 	*unknown*

00032e54 <T_EXPECT725>:
   32e54:	80 10 00 00 	*unknown*

00032e58 <T_EXPECT726>:
   32e58:	00 20 00 00 	sub	r0,r0

00032e5c <T_EXPECT727>:
   32e5c:	00 20 00 01 	sub	r0,r1

00032e60 <T_EXPECT728>:
   32e60:	00 20 00 02 	sub	r0,r2

00032e64 <T_EXPECT729>:
   32e64:	00 20 00 04 	sub	r0,r4

00032e68 <T_EXPECT730>:
   32e68:	00 20 00 08 	sub	r0,r8

00032e6c <T_EXPECT731>:
   32e6c:	00 20 00 10 	sub	r0,r16

00032e70 <T_EXPECT732>:
   32e70:	00 20 00 20 	sub	r1,r0

00032e74 <T_EXPECT733>:
   32e74:	00 20 00 40 	sub	r2,r0

00032e78 <T_EXPECT734>:
   32e78:	00 20 00 80 	sub	r4,r0

00032e7c <T_EXPECT735>:
   32e7c:	00 20 01 00 	sub	r8,r0

00032e80 <T_EXPECT736>:
   32e80:	00 20 02 00 	sub	r16,r0

00032e84 <T_EXPECT737>:
   32e84:	00 20 04 00 	*unknown*

00032e88 <T_EXPECT738>:
   32e88:	00 20 08 00 	*unknown*

00032e8c <T_EXPECT739>:
   32e8c:	00 20 10 00 	*unknown*

00032e90 <T_EXPECT740>:
   32e90:	00 20 20 00 	*unknown*

00032e94 <T_EXPECT741>:
   32e94:	00 20 40 00 	*unknown*

00032e98 <T_EXPECT742>:
   32e98:	00 20 80 00 	*unknown*

00032e9c <T_EXPECT743>:
   32e9c:	00 21 00 00 	*unknown*

00032ea0 <T_EXPECT744>:
   32ea0:	00 22 00 00 	*unknown*

00032ea4 <T_EXPECT745>:
   32ea4:	00 24 00 00 	*unknown*

00032ea8 <T_EXPECT746>:
   32ea8:	00 28 00 00 	*unknown*

00032eac <T_EXPECT747>:
   32eac:	00 30 00 00 	sub	r0,0

00032eb0 <T_EXPECT748>:
   32eb0:	00 40 00 00 	mull	r0,r0

00032eb4 <T_EXPECT749>:
   32eb4:	00 60 00 00 	mulh	r0,r0

00032eb8 <T_EXPECT750>:
   32eb8:	00 a0 00 00 	umod	r0,r0

00032ebc <T_EXPECT751>:
   32ebc:	01 20 00 00 	neg	r0,r0

00032ec0 <T_EXPECT752>:
   32ec0:	02 20 00 00 	dec	r0,r0

00032ec4 <T_EXPECT753>:
   32ec4:	04 20 00 00 	*unknown*

00032ec8 <T_EXPECT754>:
   32ec8:	08 20 00 00 	shr	r0,r0

00032ecc <T_EXPECT755>:
   32ecc:	10 20 00 00 	ld16	r0,r0

00032ed0 <T_EXPECT756>:
   32ed0:	20 20 00 00 	halt

00032ed4 <T_EXPECT757>:
   32ed4:	40 20 00 00 	*unknown*

00032ed8 <T_EXPECT758>:
   32ed8:	80 20 00 00 	*unknown*

00032edc <T_EXPECT759>:
   32edc:	00 40 00 00 	mull	r0,r0

00032ee0 <T_EXPECT760>:
   32ee0:	00 40 00 01 	mull	r0,r1

00032ee4 <T_EXPECT761>:
   32ee4:	00 40 00 02 	mull	r0,r2

00032ee8 <T_EXPECT762>:
   32ee8:	00 40 00 04 	mull	r0,r4

00032eec <T_EXPECT763>:
   32eec:	00 40 00 08 	mull	r0,r8

00032ef0 <T_EXPECT764>:
   32ef0:	00 40 00 10 	mull	r0,r16

00032ef4 <T_EXPECT765>:
   32ef4:	00 40 00 20 	mull	r1,r0

00032ef8 <T_EXPECT766>:
   32ef8:	00 40 00 40 	mull	r2,r0

00032efc <T_EXPECT767>:
   32efc:	00 40 00 80 	mull	r4,r0

00032f00 <T_EXPECT768>:
   32f00:	00 40 01 00 	mull	r8,r0

00032f04 <T_EXPECT769>:
   32f04:	00 40 02 00 	mull	r16,r0

00032f08 <T_EXPECT770>:
   32f08:	00 40 04 00 	*unknown*

00032f0c <T_EXPECT771>:
   32f0c:	00 40 08 00 	*unknown*

00032f10 <T_EXPECT772>:
   32f10:	00 40 10 00 	*unknown*

00032f14 <T_EXPECT773>:
   32f14:	00 40 20 00 	*unknown*

00032f18 <T_EXPECT774>:
   32f18:	00 40 40 00 	*unknown*

00032f1c <T_EXPECT775>:
   32f1c:	00 40 80 00 	*unknown*

00032f20 <T_EXPECT776>:
   32f20:	00 41 00 00 	*unknown*

00032f24 <T_EXPECT777>:
   32f24:	00 42 00 00 	*unknown*

00032f28 <T_EXPECT778>:
   32f28:	00 44 00 00 	*unknown*

00032f2c <T_EXPECT779>:
   32f2c:	00 48 00 00 	*unknown*

00032f30 <T_EXPECT780>:
   32f30:	00 50 00 00 	mull	r0,0

00032f34 <T_EXPECT781>:
   32f34:	00 60 00 00 	mulh	r0,r0

00032f38 <T_EXPECT782>:
   32f38:	00 80 00 00 	udiv	r0,r0

00032f3c <T_EXPECT783>:
   32f3c:	00 c0 00 00 	cmp	r0,r0

00032f40 <T_EXPECT784>:
   32f40:	01 40 00 00 	*unknown*

00032f44 <T_EXPECT785>:
   32f44:	02 40 00 00 	*unknown*

00032f48 <T_EXPECT786>:
   32f48:	04 40 00 00 	*unknown*

00032f4c <T_EXPECT787>:
   32f4c:	08 40 00 00 	*unknown*

00032f50 <T_EXPECT788>:
   32f50:	10 40 00 00 	ld32	r0,r0

00032f54 <T_EXPECT789>:
   32f54:	20 40 00 00 	move	r0,r0

00032f58 <T_EXPECT790>:
   32f58:	40 40 00 00 	*unknown*

00032f5c <T_EXPECT791>:
   32f5c:	80 40 00 00 	*unknown*

00032f60 <T_EXPECT792>:
   32f60:	00 80 00 00 	udiv	r0,r0

00032f64 <T_EXPECT793>:
   32f64:	00 80 00 01 	udiv	r0,r1

00032f68 <T_EXPECT794>:
   32f68:	00 80 00 02 	udiv	r0,r2

00032f6c <T_EXPECT795>:
   32f6c:	00 80 00 04 	udiv	r0,r4

00032f70 <T_EXPECT796>:
   32f70:	00 80 00 08 	udiv	r0,r8

00032f74 <T_EXPECT797>:
   32f74:	00 80 00 10 	udiv	r0,r16

00032f78 <T_EXPECT798>:
   32f78:	00 80 00 20 	udiv	r1,r0

00032f7c <T_EXPECT799>:
   32f7c:	00 80 00 40 	udiv	r2,r0

00032f80 <T_EXPECT800>:
   32f80:	00 80 00 80 	udiv	r4,r0

00032f84 <T_EXPECT801>:
   32f84:	00 80 01 00 	udiv	r8,r0

00032f88 <T_EXPECT802>:
   32f88:	00 80 02 00 	udiv	r16,r0

00032f8c <T_EXPECT803>:
   32f8c:	00 80 04 00 	*unknown*

00032f90 <T_EXPECT804>:
   32f90:	00 80 08 00 	*unknown*

00032f94 <T_EXPECT805>:
   32f94:	00 80 10 00 	*unknown*

00032f98 <T_EXPECT806>:
   32f98:	00 80 20 00 	*unknown*

00032f9c <T_EXPECT807>:
   32f9c:	00 80 40 00 	*unknown*

00032fa0 <T_EXPECT808>:
   32fa0:	00 80 80 00 	*unknown*

00032fa4 <T_EXPECT809>:
   32fa4:	00 81 00 00 	*unknown*

00032fa8 <T_EXPECT810>:
   32fa8:	00 82 00 00 	*unknown*

00032fac <T_EXPECT811>:
   32fac:	00 84 00 00 	*unknown*

00032fb0 <T_EXPECT812>:
   32fb0:	00 88 00 00 	*unknown*

00032fb4 <T_EXPECT813>:
   32fb4:	00 90 00 00 	udiv	r0,0x0

00032fb8 <T_EXPECT814>:
   32fb8:	00 a0 00 00 	umod	r0,r0

00032fbc <T_EXPECT815>:
   32fbc:	00 c0 00 00 	cmp	r0,r0

00032fc0 <T_EXPECT816>:
   32fc0:	01 00 00 00 	mod	r0,r0

00032fc4 <T_EXPECT817>:
   32fc4:	01 80 00 00 	*unknown*

00032fc8 <T_EXPECT818>:
   32fc8:	02 80 00 00 	*unknown*

00032fcc <T_EXPECT819>:
   32fcc:	04 80 00 00 	*unknown*

00032fd0 <T_EXPECT820>:
   32fd0:	08 80 00 00 	*unknown*

00032fd4 <T_EXPECT821>:
   32fd4:	10 80 00 00 	st16	r0,r0

00032fd8 <T_EXPECT822>:
   32fd8:	20 80 00 00 	*unknown*

00032fdc <T_EXPECT823>:
   32fdc:	40 80 00 00 	*unknown*

00032fe0 <T_EXPECT824>:
   32fe0:	80 80 00 00 	*unknown*

00032fe4 <T_EXPECT825>:
   32fe4:	01 00 00 00 	mod	r0,r0

00032fe8 <T_EXPECT826>:
   32fe8:	01 00 00 01 	mod	r0,r1

00032fec <T_EXPECT827>:
   32fec:	01 00 00 02 	mod	r0,r2

00032ff0 <T_EXPECT828>:
   32ff0:	01 00 00 04 	mod	r0,r4

00032ff4 <T_EXPECT829>:
   32ff4:	01 00 00 08 	mod	r0,r8

00032ff8 <T_EXPECT830>:
   32ff8:	01 00 00 10 	mod	r0,r16

00032ffc <T_EXPECT831>:
   32ffc:	01 00 00 20 	mod	r1,r0

00033000 <T_EXPECT832>:
   33000:	01 00 00 40 	mod	r2,r0

00033004 <T_EXPECT833>:
   33004:	01 00 00 80 	mod	r4,r0

00033008 <T_EXPECT834>:
   33008:	01 00 01 00 	mod	r8,r0

0003300c <T_EXPECT835>:
   3300c:	01 00 02 00 	mod	r16,r0

00033010 <T_EXPECT836>:
   33010:	01 00 04 00 	*unknown*

00033014 <T_EXPECT837>:
   33014:	01 00 08 00 	*unknown*

00033018 <T_EXPECT838>:
   33018:	01 00 10 00 	*unknown*

0003301c <T_EXPECT839>:
   3301c:	01 00 20 00 	*unknown*

00033020 <T_EXPECT840>:
   33020:	01 00 40 00 	*unknown*

00033024 <T_EXPECT841>:
   33024:	01 00 80 00 	*unknown*

00033028 <T_EXPECT842>:
   33028:	01 01 00 00 	*unknown*

0003302c <T_EXPECT843>:
   3302c:	01 02 00 00 	*unknown*

00033030 <T_EXPECT844>:
   33030:	01 04 00 00 	*unknown*

00033034 <T_EXPECT845>:
   33034:	01 08 00 00 	*unknown*

00033038 <T_EXPECT846>:
   33038:	01 10 00 00 	mod	r0,0

0003303c <T_EXPECT847>:
   3303c:	01 20 00 00 	neg	r0,r0

00033040 <T_EXPECT848>:
   33040:	01 40 00 00 	*unknown*

00033044 <T_EXPECT849>:
   33044:	01 80 00 00 	*unknown*

00033048 <T_EXPECT850>:
   33048:	02 00 00 00 	inc	r0,r0

0003304c <T_EXPECT851>:
   3304c:	03 00 00 00 	*unknown*

00033050 <T_EXPECT852>:
   33050:	05 00 00 00 	*unknown*

00033054 <T_EXPECT853>:
   33054:	09 00 00 00 	rol	r0,r0

00033058 <T_EXPECT854>:
   33058:	11 00 00 00 	push	r0

0003305c <T_EXPECT855>:
   3305c:	21 00 00 00 	*unknown*

00033060 <T_EXPECT856>:
   33060:	41 00 00 00 	*unknown*

00033064 <T_EXPECT857>:
   33064:	81 00 00 00 	*unknown*

00033068 <T_EXPECT858>:
   33068:	02 00 00 00 	inc	r0,r0

0003306c <T_EXPECT859>:
   3306c:	02 00 00 01 	inc	r0,r1

00033070 <T_EXPECT860>:
   33070:	02 00 00 02 	inc	r0,r2

00033074 <T_EXPECT861>:
   33074:	02 00 00 04 	inc	r0,r4

00033078 <T_EXPECT862>:
   33078:	02 00 00 08 	inc	r0,r8

0003307c <T_EXPECT863>:
   3307c:	02 00 00 10 	inc	r0,r16

00033080 <T_EXPECT864>:
   33080:	02 00 00 20 	inc	r1,r0

00033084 <T_EXPECT865>:
   33084:	02 00 00 40 	inc	r2,r0

00033088 <T_EXPECT866>:
   33088:	02 00 00 80 	inc	r4,r0

0003308c <T_EXPECT867>:
   3308c:	02 00 01 00 	inc	r8,r0

00033090 <T_EXPECT868>:
   33090:	02 00 02 00 	inc	r16,r0

00033094 <T_EXPECT869>:
   33094:	02 00 04 00 	*unknown*

00033098 <T_EXPECT870>:
   33098:	02 00 08 00 	*unknown*

0003309c <T_EXPECT871>:
   3309c:	02 00 10 00 	*unknown*

000330a0 <T_EXPECT872>:
   330a0:	02 00 20 00 	*unknown*

000330a4 <T_EXPECT873>:
   330a4:	02 00 40 00 	*unknown*

000330a8 <T_EXPECT874>:
   330a8:	02 00 80 00 	*unknown*

000330ac <T_EXPECT875>:
   330ac:	02 01 00 00 	*unknown*

000330b0 <T_EXPECT876>:
   330b0:	02 02 00 00 	*unknown*

000330b4 <T_EXPECT877>:
   330b4:	02 04 00 00 	*unknown*

000330b8 <T_EXPECT878>:
   330b8:	02 08 00 00 	*unknown*

000330bc <T_EXPECT879>:
   330bc:	02 10 00 00 	*unknown*

000330c0 <T_EXPECT880>:
   330c0:	02 20 00 00 	dec	r0,r0

000330c4 <T_EXPECT881>:
   330c4:	02 40 00 00 	*unknown*

000330c8 <T_EXPECT882>:
   330c8:	02 80 00 00 	*unknown*

000330cc <T_EXPECT883>:
   330cc:	03 00 00 00 	*unknown*

000330d0 <T_EXPECT884>:
   330d0:	04 00 00 00 	*unknown*

000330d4 <T_EXPECT885>:
   330d4:	06 00 00 00 	*unknown*

000330d8 <T_EXPECT886>:
   330d8:	0a 00 00 00 	*unknown*

000330dc <T_EXPECT887>:
   330dc:	12 00 00 00 	pop	r0

000330e0 <T_EXPECT888>:
   330e0:	22 00 00 00 	*unknown*

000330e4 <T_EXPECT889>:
   330e4:	42 00 00 00 	*unknown*

000330e8 <T_EXPECT890>:
   330e8:	82 00 00 00 	*unknown*

000330ec <T_EXPECT891>:
   330ec:	04 00 00 00 	*unknown*

000330f0 <T_EXPECT892>:
   330f0:	04 00 00 01 	*unknown*

000330f4 <T_EXPECT893>:
   330f4:	04 00 00 02 	*unknown*

000330f8 <T_EXPECT894>:
   330f8:	04 00 00 04 	*unknown*

000330fc <T_EXPECT895>:
   330fc:	04 00 00 08 	*unknown*

00033100 <T_EXPECT896>:
   33100:	04 00 00 10 	*unknown*

00033104 <T_EXPECT897>:
   33104:	04 00 00 20 	*unknown*

00033108 <T_EXPECT898>:
   33108:	04 00 00 40 	*unknown*

0003310c <T_EXPECT899>:
   3310c:	04 00 00 80 	*unknown*

00033110 <T_EXPECT900>:
   33110:	04 00 01 00 	*unknown*

00033114 <T_EXPECT901>:
   33114:	04 00 02 00 	*unknown*

00033118 <T_EXPECT902>:
   33118:	04 00 04 00 	*unknown*

0003311c <T_EXPECT903>:
   3311c:	04 00 08 00 	*unknown*

00033120 <T_EXPECT904>:
   33120:	04 00 10 00 	*unknown*

00033124 <T_EXPECT905>:
   33124:	04 00 20 00 	*unknown*

00033128 <T_EXPECT906>:
   33128:	04 00 40 00 	*unknown*

0003312c <T_EXPECT907>:
   3312c:	04 00 80 00 	*unknown*

00033130 <T_EXPECT908>:
   33130:	04 01 00 00 	*unknown*

00033134 <T_EXPECT909>:
   33134:	04 02 00 00 	*unknown*

00033138 <T_EXPECT910>:
   33138:	04 04 00 00 	*unknown*

0003313c <T_EXPECT911>:
   3313c:	04 08 00 00 	*unknown*

00033140 <T_EXPECT912>:
   33140:	04 10 00 00 	*unknown*

00033144 <T_EXPECT913>:
   33144:	04 20 00 00 	*unknown*

00033148 <T_EXPECT914>:
   33148:	04 40 00 00 	*unknown*

0003314c <T_EXPECT915>:
   3314c:	04 80 00 00 	*unknown*

00033150 <T_EXPECT916>:
   33150:	05 00 00 00 	*unknown*

00033154 <T_EXPECT917>:
   33154:	06 00 00 00 	*unknown*

00033158 <T_EXPECT918>:
   33158:	08 00 00 00 	shl	r0,r0

0003315c <T_EXPECT919>:
   3315c:	0c 00 00 00 	and	r0,r0

00033160 <T_EXPECT920>:
   33160:	14 00 00 00 	bur	r0,#al

00033164 <T_EXPECT921>:
   33164:	24 00 00 00 	swi	r0

00033168 <T_EXPECT922>:
   33168:	44 00 00 00 	*unknown*

0003316c <T_EXPECT923>:
   3316c:	84 00 00 00 	*unknown*

00033170 <T_EXPECT924>:
   33170:	08 00 00 00 	shl	r0,r0

00033174 <T_EXPECT925>:
   33174:	08 00 00 01 	shl	r0,r1

00033178 <T_EXPECT926>:
   33178:	08 00 00 02 	shl	r0,r2

0003317c <T_EXPECT927>:
   3317c:	08 00 00 04 	shl	r0,r4

00033180 <T_EXPECT928>:
   33180:	08 00 00 08 	shl	r0,r8

00033184 <T_EXPECT929>:
   33184:	08 00 00 10 	shl	r0,r16

00033188 <T_EXPECT930>:
   33188:	08 00 00 20 	shl	r1,r0

0003318c <T_EXPECT931>:
   3318c:	08 00 00 40 	shl	r2,r0

00033190 <T_EXPECT932>:
   33190:	08 00 00 80 	shl	r4,r0

00033194 <T_EXPECT933>:
   33194:	08 00 01 00 	shl	r8,r0

00033198 <T_EXPECT934>:
   33198:	08 00 02 00 	shl	r16,r0

0003319c <T_EXPECT935>:
   3319c:	08 00 04 00 	*unknown*

000331a0 <T_EXPECT936>:
   331a0:	08 00 08 00 	*unknown*

000331a4 <T_EXPECT937>:
   331a4:	08 00 10 00 	*unknown*

000331a8 <T_EXPECT938>:
   331a8:	08 00 20 00 	*unknown*

000331ac <T_EXPECT939>:
   331ac:	08 00 40 00 	*unknown*

000331b0 <T_EXPECT940>:
   331b0:	08 00 80 00 	*unknown*

000331b4 <T_EXPECT941>:
   331b4:	08 01 00 00 	*unknown*

000331b8 <T_EXPECT942>:
   331b8:	08 02 00 00 	*unknown*

000331bc <T_EXPECT943>:
   331bc:	08 04 00 00 	*unknown*

000331c0 <T_EXPECT944>:
   331c0:	08 08 00 00 	*unknown*

000331c4 <T_EXPECT945>:
   331c4:	08 10 00 00 	shl	r0,0x0

000331c8 <T_EXPECT946>:
   331c8:	08 20 00 00 	shr	r0,r0

000331cc <T_EXPECT947>:
   331cc:	08 40 00 00 	*unknown*

000331d0 <T_EXPECT948>:
   331d0:	08 80 00 00 	*unknown*

000331d4 <T_EXPECT949>:
   331d4:	09 00 00 00 	rol	r0,r0

000331d8 <T_EXPECT950>:
   331d8:	0a 00 00 00 	*unknown*

000331dc <T_EXPECT951>:
   331dc:	0c 00 00 00 	and	r0,r0

000331e0 <T_EXPECT952>:
   331e0:	10 00 00 00 	ld8	r0,r0

000331e4 <T_EXPECT953>:
   331e4:	18 00 00 00 	srspr	r0

000331e8 <T_EXPECT954>:
   331e8:	28 00 00 00 	*unknown*

000331ec <T_EXPECT955>:
   331ec:	48 00 00 00 	*unknown*

000331f0 <T_EXPECT956>:
   331f0:	88 00 00 00 	*unknown*

000331f4 <T_EXPECT957>:
   331f4:	10 00 00 00 	ld8	r0,r0

000331f8 <T_EXPECT958>:
   331f8:	10 00 00 01 	ld8	r0,r1

000331fc <T_EXPECT959>:
   331fc:	10 00 00 02 	ld8	r0,r2

00033200 <T_EXPECT960>:
   33200:	10 00 00 04 	ld8	r0,r4

00033204 <T_EXPECT961>:
   33204:	10 00 00 08 	ld8	r0,r8

00033208 <T_EXPECT962>:
   33208:	10 00 00 10 	ld8	r0,r16

0003320c <T_EXPECT963>:
   3320c:	10 00 00 20 	ld8	r1,r0

00033210 <T_EXPECT964>:
   33210:	10 00 00 40 	ld8	r2,r0

00033214 <T_EXPECT965>:
   33214:	10 00 00 80 	ld8	r4,r0

00033218 <T_EXPECT966>:
   33218:	10 00 01 00 	ld8	r8,r0

0003321c <T_EXPECT967>:
   3321c:	10 00 02 00 	ld8	r16,r0

00033220 <T_EXPECT968>:
   33220:	10 00 04 00 	*unknown*

00033224 <T_EXPECT969>:
   33224:	10 00 08 00 	*unknown*

00033228 <T_EXPECT970>:
   33228:	10 00 10 00 	*unknown*

0003322c <T_EXPECT971>:
   3322c:	10 00 20 00 	*unknown*

00033230 <T_EXPECT972>:
   33230:	10 00 40 00 	*unknown*

00033234 <T_EXPECT973>:
   33234:	10 00 80 00 	*unknown*

00033238 <T_EXPECT974>:
   33238:	10 01 00 00 	*unknown*

0003323c <T_EXPECT975>:
   3323c:	10 02 00 00 	*unknown*

00033240 <T_EXPECT976>:
   33240:	10 04 00 00 	*unknown*

00033244 <T_EXPECT977>:
   33244:	10 08 00 00 	*unknown*

00033248 <T_EXPECT978>:
   33248:	10 10 00 00 	ld8	r0,0 <_start>

0003324c <T_EXPECT979>:
   3324c:	10 20 00 00 	ld16	r0,r0

00033250 <T_EXPECT980>:
   33250:	10 40 00 00 	ld32	r0,r0

00033254 <T_EXPECT981>:
   33254:	10 80 00 00 	st16	r0,r0

00033258 <T_EXPECT982>:
   33258:	11 00 00 00 	push	r0

0003325c <T_EXPECT983>:
   3325c:	12 00 00 00 	pop	r0

00033260 <T_EXPECT984>:
   33260:	14 00 00 00 	bur	r0,#al

00033264 <T_EXPECT985>:
   33264:	18 00 00 00 	srspr	r0

00033268 <T_EXPECT986>:
   33268:	20 00 00 00 	nop

0003326c <T_EXPECT987>:
   3326c:	30 00 00 00 	*unknown*

00033270 <T_EXPECT988>:
   33270:	50 00 00 00 	*unknown*

00033274 <T_EXPECT989>:
   33274:	90 00 00 00 	*unknown*

00033278 <T_EXPECT990>:
   33278:	20 00 00 00 	nop

0003327c <T_EXPECT991>:
   3327c:	20 00 00 01 	*unknown*

00033280 <T_EXPECT992>:
   33280:	20 00 00 02 	*unknown*

00033284 <T_EXPECT993>:
   33284:	20 00 00 04 	*unknown*

00033288 <T_EXPECT994>:
   33288:	20 00 00 08 	*unknown*

0003328c <T_EXPECT995>:
   3328c:	20 00 00 10 	*unknown*

00033290 <T_EXPECT996>:
   33290:	20 00 00 20 	*unknown*

00033294 <T_EXPECT997>:
   33294:	20 00 00 40 	*unknown*

00033298 <T_EXPECT998>:
   33298:	20 00 00 80 	*unknown*

0003329c <T_EXPECT999>:
   3329c:	20 00 01 00 	*unknown*

000332a0 <T_EXPECT1000>:
   332a0:	20 00 02 00 	*unknown*

000332a4 <T_EXPECT1001>:
   332a4:	20 00 04 00 	*unknown*

000332a8 <T_EXPECT1002>:
   332a8:	20 00 08 00 	*unknown*

000332ac <T_EXPECT1003>:
   332ac:	20 00 10 00 	*unknown*

000332b0 <T_EXPECT1004>:
   332b0:	20 00 20 00 	*unknown*

000332b4 <T_EXPECT1005>:
   332b4:	20 00 40 00 	*unknown*

000332b8 <T_EXPECT1006>:
   332b8:	20 00 80 00 	*unknown*

000332bc <T_EXPECT1007>:
   332bc:	20 01 00 00 	*unknown*

000332c0 <T_EXPECT1008>:
   332c0:	20 02 00 00 	*unknown*

000332c4 <T_EXPECT1009>:
   332c4:	20 04 00 00 	*unknown*

000332c8 <T_EXPECT1010>:
   332c8:	20 08 00 00 	*unknown*

000332cc <T_EXPECT1011>:
   332cc:	20 10 00 00 	*unknown*

000332d0 <T_EXPECT1012>:
   332d0:	20 20 00 00 	halt

000332d4 <T_EXPECT1013>:
   332d4:	20 40 00 00 	move	r0,r0

000332d8 <T_EXPECT1014>:
   332d8:	20 80 00 00 	*unknown*

000332dc <T_EXPECT1015>:
   332dc:	21 00 00 00 	*unknown*

000332e0 <T_EXPECT1016>:
   332e0:	22 00 00 00 	*unknown*

000332e4 <T_EXPECT1017>:
   332e4:	24 00 00 00 	swi	r0

000332e8 <T_EXPECT1018>:
   332e8:	28 00 00 00 	*unknown*

000332ec <T_EXPECT1019>:
   332ec:	30 00 00 00 	*unknown*

000332f0 <T_EXPECT1020>:
   332f0:	40 00 00 00 	*unknown*

000332f4 <T_EXPECT1021>:
   332f4:	60 00 00 00 	*unknown*

000332f8 <T_EXPECT1022>:
   332f8:	a0 00 00 00 	*unknown*

000332fc <T_EXPECT1023>:
   332fc:	40 00 00 00 	*unknown*

00033300 <T_EXPECT1024>:
   33300:	40 00 00 01 	*unknown*

00033304 <T_EXPECT1025>:
   33304:	40 00 00 02 	*unknown*

00033308 <T_EXPECT1026>:
   33308:	40 00 00 04 	*unknown*

0003330c <T_EXPECT1027>:
   3330c:	40 00 00 08 	*unknown*

00033310 <T_EXPECT1028>:
   33310:	40 00 00 10 	*unknown*

00033314 <T_EXPECT1029>:
   33314:	40 00 00 20 	*unknown*

00033318 <T_EXPECT1030>:
   33318:	40 00 00 40 	*unknown*

0003331c <T_EXPECT1031>:
   3331c:	40 00 00 80 	*unknown*

00033320 <T_EXPECT1032>:
   33320:	40 00 01 00 	*unknown*

00033324 <T_EXPECT1033>:
   33324:	40 00 02 00 	*unknown*

00033328 <T_EXPECT1034>:
   33328:	40 00 04 00 	*unknown*

0003332c <T_EXPECT1035>:
   3332c:	40 00 08 00 	*unknown*

00033330 <T_EXPECT1036>:
   33330:	40 00 10 00 	*unknown*

00033334 <T_EXPECT1037>:
   33334:	40 00 20 00 	*unknown*

00033338 <T_EXPECT1038>:
   33338:	40 00 40 00 	*unknown*

0003333c <T_EXPECT1039>:
   3333c:	40 00 80 00 	*unknown*

00033340 <T_EXPECT1040>:
   33340:	40 01 00 00 	*unknown*

00033344 <T_EXPECT1041>:
   33344:	40 02 00 00 	*unknown*

00033348 <T_EXPECT1042>:
   33348:	40 04 00 00 	*unknown*

0003334c <T_EXPECT1043>:
   3334c:	40 08 00 00 	*unknown*

00033350 <T_EXPECT1044>:
   33350:	40 10 00 00 	*unknown*

00033354 <T_EXPECT1045>:
   33354:	40 20 00 00 	*unknown*

00033358 <T_EXPECT1046>:
   33358:	40 40 00 00 	*unknown*

0003335c <T_EXPECT1047>:
   3335c:	40 80 00 00 	*unknown*

00033360 <T_EXPECT1048>:
   33360:	41 00 00 00 	*unknown*

00033364 <T_EXPECT1049>:
   33364:	42 00 00 00 	*unknown*

00033368 <T_EXPECT1050>:
   33368:	44 00 00 00 	*unknown*

0003336c <T_EXPECT1051>:
   3336c:	48 00 00 00 	*unknown*

00033370 <T_EXPECT1052>:
   33370:	50 00 00 00 	*unknown*

00033374 <T_EXPECT1053>:
   33374:	60 00 00 00 	*unknown*

00033378 <T_EXPECT1054>:
   33378:	80 00 00 00 	*unknown*

0003337c <T_EXPECT1055>:
   3337c:	c0 00 00 00 	*unknown*

00033380 <T_EXPECT1056>:
   33380:	80 00 00 00 	*unknown*

00033384 <T_EXPECT1057>:
   33384:	80 00 00 01 	*unknown*

00033388 <T_EXPECT1058>:
   33388:	80 00 00 02 	*unknown*

0003338c <T_EXPECT1059>:
   3338c:	80 00 00 04 	*unknown*

00033390 <T_EXPECT1060>:
   33390:	80 00 00 08 	*unknown*

00033394 <T_EXPECT1061>:
   33394:	80 00 00 10 	*unknown*

00033398 <T_EXPECT1062>:
   33398:	80 00 00 20 	*unknown*

0003339c <T_EXPECT1063>:
   3339c:	80 00 00 40 	*unknown*

000333a0 <T_EXPECT1064>:
   333a0:	80 00 00 80 	*unknown*

000333a4 <T_EXPECT1065>:
   333a4:	80 00 01 00 	*unknown*

000333a8 <T_EXPECT1066>:
   333a8:	80 00 02 00 	*unknown*

000333ac <T_EXPECT1067>:
   333ac:	80 00 04 00 	*unknown*

000333b0 <T_EXPECT1068>:
   333b0:	80 00 08 00 	*unknown*

000333b4 <T_EXPECT1069>:
   333b4:	80 00 10 00 	*unknown*

000333b8 <T_EXPECT1070>:
   333b8:	80 00 20 00 	*unknown*

000333bc <T_EXPECT1071>:
   333bc:	80 00 40 00 	*unknown*

000333c0 <T_EXPECT1072>:
   333c0:	80 00 80 00 	*unknown*

000333c4 <T_EXPECT1073>:
   333c4:	80 01 00 00 	*unknown*

000333c8 <T_EXPECT1074>:
   333c8:	80 02 00 00 	*unknown*

000333cc <T_EXPECT1075>:
   333cc:	80 04 00 00 	*unknown*

000333d0 <T_EXPECT1076>:
   333d0:	80 08 00 00 	*unknown*

000333d4 <T_EXPECT1077>:
   333d4:	80 10 00 00 	*unknown*

000333d8 <T_EXPECT1078>:
   333d8:	80 20 00 00 	*unknown*

000333dc <T_EXPECT1079>:
   333dc:	80 40 00 00 	*unknown*

000333e0 <T_EXPECT1080>:
   333e0:	80 80 00 00 	*unknown*

000333e4 <T_EXPECT1081>:
   333e4:	81 00 00 00 	*unknown*

000333e8 <T_EXPECT1082>:
   333e8:	82 00 00 00 	*unknown*

000333ec <T_EXPECT1083>:
   333ec:	84 00 00 00 	*unknown*

000333f0 <T_EXPECT1084>:
   333f0:	88 00 00 00 	*unknown*

000333f4 <T_EXPECT1085>:
   333f4:	90 00 00 00 	*unknown*

000333f8 <T_EXPECT1086>:
   333f8:	a0 00 00 00 	*unknown*

000333fc <T_EXPECT1087>:
   333fc:	c0 00 00 00 	*unknown*

00033400 <T_EXPECT1088>:
   33400:	00 00 00 00 	add	r0,r0

00033404 <T_EXPECT1089>:
   33404:	00 00 00 06 	add	r0,r6

00033408 <T_EXPECT1090>:
   33408:	00 00 00 0e 	add	r0,r14

0003340c <T_EXPECT1091>:
   3340c:	00 00 00 1e 	add	r0,rbase

00033410 <T_EXPECT1092>:
   33410:	00 00 00 3e 	add	r1,rbase

00033414 <T_EXPECT1093>:
   33414:	00 00 00 7e 	add	r3,rbase

00033418 <T_EXPECT1094>:
   33418:	00 00 00 fe 	add	rtmp,rbase

0003341c <T_EXPECT1095>:
   3341c:	00 00 01 fe 	add	r15,rbase

00033420 <T_EXPECT1096>:
   33420:	00 00 03 fe 	add	rret,rbase

00033424 <T_EXPECT1097>:
   33424:	00 00 07 fe 	*unknown*

00033428 <T_EXPECT1098>:
   33428:	00 00 0f fe 	*unknown*

0003342c <T_EXPECT1099>:
   3342c:	00 00 1f fe 	*unknown*

00033430 <T_EXPECT1100>:
   33430:	00 00 3f fe 	*unknown*

00033434 <T_EXPECT1101>:
   33434:	00 00 7f fe 	*unknown*

00033438 <T_EXPECT1102>:
   33438:	00 00 ff fe 	*unknown*

0003343c <T_EXPECT1103>:
   3343c:	00 01 ff fe 	*unknown*

00033440 <T_EXPECT1104>:
   33440:	00 03 ff fe 	*unknown*

00033444 <T_EXPECT1105>:
   33444:	00 07 ff fe 	*unknown*

00033448 <T_EXPECT1106>:
   33448:	00 0f ff fe 	*unknown*

0003344c <T_EXPECT1107>:
   3344c:	00 1f ff fe 	*unknown*

00033450 <T_EXPECT1108>:
   33450:	00 3f ff fe 	*unknown*

00033454 <T_EXPECT1109>:
   33454:	00 7f ff fe 	*unknown*

00033458 <T_EXPECT1110>:
   33458:	00 ff ff fe 	*unknown*

0003345c <T_EXPECT1111>:
   3345c:	01 ff ff fe 	*unknown*

00033460 <T_EXPECT1112>:
   33460:	03 ff ff fe 	*unknown*

00033464 <T_EXPECT1113>:
   33464:	07 ff ff fe 	*unknown*

00033468 <T_EXPECT1114>:
   33468:	0f ff ff fe 	*unknown*

0003346c <T_EXPECT1115>:
   3346c:	1f ff ff fe 	*unknown*

00033470 <T_EXPECT1116>:
   33470:	3f ff ff fe 	*unknown*

00033474 <T_EXPECT1117>:
   33474:	7f ff ff fe 	*unknown*

00033478 <T_EXPECT1118>:
   33478:	ff ff ff fe 	*unknown*

0003347c <T_EXPECT1119>:
   3347c:	ff ff ff fe 	*unknown*

00033480 <T_IMM_DST0>:
   33480:	00 00 00 00 	add	r0,r0

00033484 <T_IMM_DST1>:
   33484:	00 00 00 00 	add	r0,r0

00033488 <T_IMM_DST2>:
   33488:	00 00 00 00 	add	r0,r0

0003348c <T_IMM_DST3>:
   3348c:	00 00 00 00 	add	r0,r0

00033490 <T_IMM_DST4>:
   33490:	00 00 00 00 	add	r0,r0

00033494 <T_IMM_DST5>:
   33494:	00 00 00 00 	add	r0,r0

00033498 <T_IMM_DST6>:
   33498:	00 00 00 00 	add	r0,r0

0003349c <T_IMM_DST7>:
   3349c:	00 00 00 00 	add	r0,r0

000334a0 <T_IMM_DST8>:
   334a0:	00 00 00 00 	add	r0,r0

000334a4 <T_IMM_DST9>:
   334a4:	00 00 00 00 	add	r0,r0

000334a8 <T_IMM_DST10>:
   334a8:	00 00 00 00 	add	r0,r0

000334ac <T_IMM_DST11>:
   334ac:	00 00 00 00 	add	r0,r0

000334b0 <T_IMM_DST12>:
   334b0:	00 00 00 01 	add	r0,r1

000334b4 <T_IMM_DST13>:
   334b4:	00 00 00 01 	add	r0,r1

000334b8 <T_IMM_DST14>:
   334b8:	00 00 00 01 	add	r0,r1

000334bc <T_IMM_DST15>:
   334bc:	00 00 00 01 	add	r0,r1

000334c0 <T_IMM_DST16>:
   334c0:	00 00 00 01 	add	r0,r1

000334c4 <T_IMM_DST17>:
   334c4:	00 00 00 01 	add	r0,r1

000334c8 <T_IMM_DST18>:
   334c8:	00 00 00 01 	add	r0,r1

000334cc <T_IMM_DST19>:
   334cc:	00 00 00 01 	add	r0,r1

000334d0 <T_IMM_DST20>:
   334d0:	00 00 00 01 	add	r0,r1

000334d4 <T_IMM_DST21>:
   334d4:	00 00 00 01 	add	r0,r1

000334d8 <T_IMM_DST22>:
   334d8:	00 00 00 01 	add	r0,r1

000334dc <T_IMM_DST23>:
   334dc:	00 00 00 01 	add	r0,r1

000334e0 <T_IMM_DST24>:
   334e0:	00 00 00 02 	add	r0,r2

000334e4 <T_IMM_DST25>:
   334e4:	00 00 00 02 	add	r0,r2

000334e8 <T_IMM_DST26>:
   334e8:	00 00 00 02 	add	r0,r2

000334ec <T_IMM_DST27>:
   334ec:	00 00 00 02 	add	r0,r2

000334f0 <T_IMM_DST28>:
   334f0:	00 00 00 02 	add	r0,r2

000334f4 <T_IMM_DST29>:
   334f4:	00 00 00 02 	add	r0,r2

000334f8 <T_IMM_DST30>:
   334f8:	00 00 00 02 	add	r0,r2

000334fc <T_IMM_DST31>:
   334fc:	00 00 00 02 	add	r0,r2

00033500 <T_IMM_DST32>:
   33500:	00 00 00 02 	add	r0,r2

00033504 <T_IMM_DST33>:
   33504:	00 00 00 02 	add	r0,r2

00033508 <T_IMM_DST34>:
   33508:	00 00 00 02 	add	r0,r2

0003350c <T_IMM_DST35>:
   3350c:	00 00 00 02 	add	r0,r2

00033510 <T_IMM_DST36>:
   33510:	00 00 00 04 	add	r0,r4

00033514 <T_IMM_DST37>:
   33514:	00 00 00 04 	add	r0,r4

00033518 <T_IMM_DST38>:
   33518:	00 00 00 04 	add	r0,r4

0003351c <T_IMM_DST39>:
   3351c:	00 00 00 04 	add	r0,r4

00033520 <T_IMM_DST40>:
   33520:	00 00 00 04 	add	r0,r4

00033524 <T_IMM_DST41>:
   33524:	00 00 00 04 	add	r0,r4

00033528 <T_IMM_DST42>:
   33528:	00 00 00 04 	add	r0,r4

0003352c <T_IMM_DST43>:
   3352c:	00 00 00 04 	add	r0,r4

00033530 <T_IMM_DST44>:
   33530:	00 00 00 04 	add	r0,r4

00033534 <T_IMM_DST45>:
   33534:	00 00 00 04 	add	r0,r4

00033538 <T_IMM_DST46>:
   33538:	00 00 00 04 	add	r0,r4

0003353c <T_IMM_DST47>:
   3353c:	00 00 00 04 	add	r0,r4

00033540 <T_IMM_DST48>:
   33540:	00 00 00 08 	add	r0,r8

00033544 <T_IMM_DST49>:
   33544:	00 00 00 08 	add	r0,r8

00033548 <T_IMM_DST50>:
   33548:	00 00 00 08 	add	r0,r8

0003354c <T_IMM_DST51>:
   3354c:	00 00 00 08 	add	r0,r8

00033550 <T_IMM_DST52>:
   33550:	00 00 00 08 	add	r0,r8

00033554 <T_IMM_DST53>:
   33554:	00 00 00 08 	add	r0,r8

00033558 <T_IMM_DST54>:
   33558:	00 00 00 08 	add	r0,r8

0003355c <T_IMM_DST55>:
   3355c:	00 00 00 08 	add	r0,r8

00033560 <T_IMM_DST56>:
   33560:	00 00 00 08 	add	r0,r8

00033564 <T_IMM_DST57>:
   33564:	00 00 00 08 	add	r0,r8

00033568 <T_IMM_DST58>:
   33568:	00 00 00 08 	add	r0,r8

0003356c <T_IMM_DST59>:
   3356c:	00 00 00 08 	add	r0,r8

00033570 <T_IMM_DST60>:
   33570:	00 00 00 10 	add	r0,r16

00033574 <T_IMM_DST61>:
   33574:	00 00 00 10 	add	r0,r16

00033578 <T_IMM_DST62>:
   33578:	00 00 00 10 	add	r0,r16

0003357c <T_IMM_DST63>:
   3357c:	00 00 00 10 	add	r0,r16

00033580 <T_IMM_DST64>:
   33580:	00 00 00 10 	add	r0,r16

00033584 <T_IMM_DST65>:
   33584:	00 00 00 10 	add	r0,r16

00033588 <T_IMM_DST66>:
   33588:	00 00 00 10 	add	r0,r16

0003358c <T_IMM_DST67>:
   3358c:	00 00 00 10 	add	r0,r16

00033590 <T_IMM_DST68>:
   33590:	00 00 00 10 	add	r0,r16

00033594 <T_IMM_DST69>:
   33594:	00 00 00 10 	add	r0,r16

00033598 <T_IMM_DST70>:
   33598:	00 00 00 10 	add	r0,r16

0003359c <T_IMM_DST71>:
   3359c:	00 00 00 10 	add	r0,r16

000335a0 <T_IMM_DST72>:
   335a0:	00 00 00 20 	add	r1,r0

000335a4 <T_IMM_DST73>:
   335a4:	00 00 00 20 	add	r1,r0

000335a8 <T_IMM_DST74>:
   335a8:	00 00 00 20 	add	r1,r0

000335ac <T_IMM_DST75>:
   335ac:	00 00 00 20 	add	r1,r0

000335b0 <T_IMM_DST76>:
   335b0:	00 00 00 20 	add	r1,r0

000335b4 <T_IMM_DST77>:
   335b4:	00 00 00 20 	add	r1,r0

000335b8 <T_IMM_DST78>:
   335b8:	00 00 00 20 	add	r1,r0

000335bc <T_IMM_DST79>:
   335bc:	00 00 00 20 	add	r1,r0

000335c0 <T_IMM_DST80>:
   335c0:	00 00 00 20 	add	r1,r0

000335c4 <T_IMM_DST81>:
   335c4:	00 00 00 20 	add	r1,r0

000335c8 <T_IMM_DST82>:
   335c8:	00 00 00 20 	add	r1,r0

000335cc <T_IMM_DST83>:
   335cc:	00 00 00 20 	add	r1,r0

000335d0 <T_IMM_DST84>:
   335d0:	00 00 00 40 	add	r2,r0

000335d4 <T_IMM_DST85>:
   335d4:	00 00 00 40 	add	r2,r0

000335d8 <T_IMM_DST86>:
   335d8:	00 00 00 40 	add	r2,r0

000335dc <T_IMM_DST87>:
   335dc:	00 00 00 40 	add	r2,r0

000335e0 <T_IMM_DST88>:
   335e0:	00 00 00 40 	add	r2,r0

000335e4 <T_IMM_DST89>:
   335e4:	00 00 00 40 	add	r2,r0

000335e8 <T_IMM_DST90>:
   335e8:	00 00 00 40 	add	r2,r0

000335ec <T_IMM_DST91>:
   335ec:	00 00 00 40 	add	r2,r0

000335f0 <T_IMM_DST92>:
   335f0:	00 00 00 40 	add	r2,r0

000335f4 <T_IMM_DST93>:
   335f4:	00 00 00 40 	add	r2,r0

000335f8 <T_IMM_DST94>:
   335f8:	00 00 00 40 	add	r2,r0

000335fc <T_IMM_DST95>:
   335fc:	00 00 00 40 	add	r2,r0

00033600 <T_IMM_DST96>:
   33600:	00 00 00 80 	add	r4,r0

00033604 <T_IMM_DST97>:
   33604:	00 00 00 80 	add	r4,r0

00033608 <T_IMM_DST98>:
   33608:	00 00 00 80 	add	r4,r0

0003360c <T_IMM_DST99>:
   3360c:	00 00 00 80 	add	r4,r0

00033610 <T_IMM_DST100>:
   33610:	00 00 00 80 	add	r4,r0

00033614 <T_IMM_DST101>:
   33614:	00 00 00 80 	add	r4,r0

00033618 <T_IMM_DST102>:
   33618:	00 00 00 80 	add	r4,r0

0003361c <T_IMM_DST103>:
   3361c:	00 00 00 80 	add	r4,r0

00033620 <T_IMM_DST104>:
   33620:	00 00 00 80 	add	r4,r0

00033624 <T_IMM_DST105>:
   33624:	00 00 00 80 	add	r4,r0

00033628 <T_IMM_DST106>:
   33628:	00 00 00 80 	add	r4,r0

0003362c <T_IMM_DST107>:
   3362c:	00 00 00 80 	add	r4,r0

00033630 <T_IMM_DST108>:
   33630:	00 00 01 00 	add	r8,r0

00033634 <T_IMM_DST109>:
   33634:	00 00 01 00 	add	r8,r0

00033638 <T_IMM_DST110>:
   33638:	00 00 01 00 	add	r8,r0

0003363c <T_IMM_DST111>:
   3363c:	00 00 01 00 	add	r8,r0

00033640 <T_IMM_DST112>:
   33640:	00 00 01 00 	add	r8,r0

00033644 <T_IMM_DST113>:
   33644:	00 00 01 00 	add	r8,r0

00033648 <T_IMM_DST114>:
   33648:	00 00 01 00 	add	r8,r0

0003364c <T_IMM_DST115>:
   3364c:	00 00 01 00 	add	r8,r0

00033650 <T_IMM_DST116>:
   33650:	00 00 01 00 	add	r8,r0

00033654 <T_IMM_DST117>:
   33654:	00 00 01 00 	add	r8,r0

00033658 <T_IMM_DST118>:
   33658:	00 00 01 00 	add	r8,r0

0003365c <T_IMM_DST119>:
   3365c:	00 00 01 00 	add	r8,r0

00033660 <T_IMM_DST120>:
   33660:	00 00 02 00 	add	r16,r0

00033664 <T_IMM_DST121>:
   33664:	00 00 02 00 	add	r16,r0

00033668 <T_IMM_DST122>:
   33668:	00 00 02 00 	add	r16,r0

0003366c <T_IMM_DST123>:
   3366c:	00 00 02 00 	add	r16,r0

00033670 <T_IMM_DST124>:
   33670:	00 00 02 00 	add	r16,r0

00033674 <T_IMM_DST125>:
   33674:	00 00 02 00 	add	r16,r0

00033678 <T_IMM_DST126>:
   33678:	00 00 02 00 	add	r16,r0

0003367c <T_IMM_DST127>:
   3367c:	00 00 02 00 	add	r16,r0

00033680 <T_IMM_DST128>:
   33680:	00 00 02 00 	add	r16,r0

00033684 <T_IMM_DST129>:
   33684:	00 00 02 00 	add	r16,r0

00033688 <T_IMM_DST130>:
   33688:	00 00 02 00 	add	r16,r0

0003368c <T_IMM_DST131>:
   3368c:	00 00 02 00 	add	r16,r0

00033690 <T_IMM_DST132>:
   33690:	00 00 04 00 	*unknown*

00033694 <T_IMM_DST133>:
   33694:	00 00 04 00 	*unknown*

00033698 <T_IMM_DST134>:
   33698:	00 00 04 00 	*unknown*

0003369c <T_IMM_DST135>:
   3369c:	00 00 04 00 	*unknown*

000336a0 <T_IMM_DST136>:
   336a0:	00 00 04 00 	*unknown*

000336a4 <T_IMM_DST137>:
   336a4:	00 00 04 00 	*unknown*

000336a8 <T_IMM_DST138>:
   336a8:	00 00 04 00 	*unknown*

000336ac <T_IMM_DST139>:
   336ac:	00 00 04 00 	*unknown*

000336b0 <T_IMM_DST140>:
   336b0:	00 00 04 00 	*unknown*

000336b4 <T_IMM_DST141>:
   336b4:	00 00 04 00 	*unknown*

000336b8 <T_IMM_DST142>:
   336b8:	00 00 04 00 	*unknown*

000336bc <T_IMM_DST143>:
   336bc:	00 00 04 00 	*unknown*

000336c0 <T_IMM_DST144>:
   336c0:	00 00 00 03 	add	r0,r3

000336c4 <T_IMM_DST145>:
   336c4:	00 00 00 07 	add	r0,rtmp

000336c8 <T_IMM_DST146>:
   336c8:	00 00 00 0f 	add	r0,r15

000336cc <T_IMM_DST147>:
   336cc:	00 00 00 1f 	add	r0,rret

000336d0 <T_IMM_DST148>:
   336d0:	00 00 00 3f 	add	r1,rret

000336d4 <T_IMM_DST149>:
   336d4:	00 00 00 7f 	add	r3,rret

000336d8 <T_IMM_DST150>:
   336d8:	00 00 00 ff 	add	rtmp,rret

000336dc <T_IMM_DST151>:
   336dc:	00 00 01 ff 	add	r15,rret

000336e0 <T_IMM_DST152>:
   336e0:	00 00 03 ff 	add	rret,rret

000336e4 <T_IMM_DST153>:
   336e4:	00 00 07 ff 	*unknown*

000336e8 <T_IMM_EXPECT0>:
   336e8:	00 00 00 00 	add	r0,r0

000336ec <T_IMM_EXPECT1>:
   336ec:	00 00 00 01 	add	r0,r1

000336f0 <T_IMM_EXPECT2>:
   336f0:	00 00 00 02 	add	r0,r2

000336f4 <T_IMM_EXPECT3>:
   336f4:	00 00 00 04 	add	r0,r4

000336f8 <T_IMM_EXPECT4>:
   336f8:	00 00 00 08 	add	r0,r8

000336fc <T_IMM_EXPECT5>:
   336fc:	00 00 00 10 	add	r0,r16

00033700 <T_IMM_EXPECT6>:
   33700:	00 00 00 20 	add	r1,r0

00033704 <T_IMM_EXPECT7>:
   33704:	00 00 00 40 	add	r2,r0

00033708 <T_IMM_EXPECT8>:
   33708:	00 00 00 80 	add	r4,r0

0003370c <T_IMM_EXPECT9>:
   3370c:	00 00 01 00 	add	r8,r0

00033710 <T_IMM_EXPECT10>:
   33710:	00 00 02 00 	add	r16,r0

00033714 <T_IMM_EXPECT11>:
   33714:	00 00 04 00 	*unknown*

00033718 <T_IMM_EXPECT12>:
   33718:	00 00 00 01 	add	r0,r1

0003371c <T_IMM_EXPECT13>:
   3371c:	00 00 00 02 	add	r0,r2

00033720 <T_IMM_EXPECT14>:
   33720:	00 00 00 03 	add	r0,r3

00033724 <T_IMM_EXPECT15>:
   33724:	00 00 00 05 	add	r0,r5

00033728 <T_IMM_EXPECT16>:
   33728:	00 00 00 09 	add	r0,r9

0003372c <T_IMM_EXPECT17>:
   3372c:	00 00 00 11 	add	r0,r17

00033730 <T_IMM_EXPECT18>:
   33730:	00 00 00 21 	add	r1,r1

00033734 <T_IMM_EXPECT19>:
   33734:	00 00 00 41 	add	r2,r1

00033738 <T_IMM_EXPECT20>:
   33738:	00 00 00 81 	add	r4,r1

0003373c <T_IMM_EXPECT21>:
   3373c:	00 00 01 01 	add	r8,r1

00033740 <T_IMM_EXPECT22>:
   33740:	00 00 02 01 	add	r16,r1

00033744 <T_IMM_EXPECT23>:
   33744:	00 00 04 01 	*unknown*

00033748 <T_IMM_EXPECT24>:
   33748:	00 00 00 02 	add	r0,r2

0003374c <T_IMM_EXPECT25>:
   3374c:	00 00 00 03 	add	r0,r3

00033750 <T_IMM_EXPECT26>:
   33750:	00 00 00 04 	add	r0,r4

00033754 <T_IMM_EXPECT27>:
   33754:	00 00 00 06 	add	r0,r6

00033758 <T_IMM_EXPECT28>:
   33758:	00 00 00 0a 	add	r0,r10

0003375c <T_IMM_EXPECT29>:
   3375c:	00 00 00 12 	add	r0,r18

00033760 <T_IMM_EXPECT30>:
   33760:	00 00 00 22 	add	r1,r2

00033764 <T_IMM_EXPECT31>:
   33764:	00 00 00 42 	add	r2,r2

00033768 <T_IMM_EXPECT32>:
   33768:	00 00 00 82 	add	r4,r2

0003376c <T_IMM_EXPECT33>:
   3376c:	00 00 01 02 	add	r8,r2

00033770 <T_IMM_EXPECT34>:
   33770:	00 00 02 02 	add	r16,r2

00033774 <T_IMM_EXPECT35>:
   33774:	00 00 04 02 	*unknown*

00033778 <T_IMM_EXPECT36>:
   33778:	00 00 00 04 	add	r0,r4

0003377c <T_IMM_EXPECT37>:
   3377c:	00 00 00 05 	add	r0,r5

00033780 <T_IMM_EXPECT38>:
   33780:	00 00 00 06 	add	r0,r6

00033784 <T_IMM_EXPECT39>:
   33784:	00 00 00 08 	add	r0,r8

00033788 <T_IMM_EXPECT40>:
   33788:	00 00 00 0c 	add	r0,r12

0003378c <T_IMM_EXPECT41>:
   3378c:	00 00 00 14 	add	r0,r20

00033790 <T_IMM_EXPECT42>:
   33790:	00 00 00 24 	add	r1,r4

00033794 <T_IMM_EXPECT43>:
   33794:	00 00 00 44 	add	r2,r4

00033798 <T_IMM_EXPECT44>:
   33798:	00 00 00 84 	add	r4,r4

0003379c <T_IMM_EXPECT45>:
   3379c:	00 00 01 04 	add	r8,r4

000337a0 <T_IMM_EXPECT46>:
   337a0:	00 00 02 04 	add	r16,r4

000337a4 <T_IMM_EXPECT47>:
   337a4:	00 00 04 04 	*unknown*

000337a8 <T_IMM_EXPECT48>:
   337a8:	00 00 00 08 	add	r0,r8

000337ac <T_IMM_EXPECT49>:
   337ac:	00 00 00 09 	add	r0,r9

000337b0 <T_IMM_EXPECT50>:
   337b0:	00 00 00 0a 	add	r0,r10

000337b4 <T_IMM_EXPECT51>:
   337b4:	00 00 00 0c 	add	r0,r12

000337b8 <T_IMM_EXPECT52>:
   337b8:	00 00 00 10 	add	r0,r16

000337bc <T_IMM_EXPECT53>:
   337bc:	00 00 00 18 	add	r0,r24

000337c0 <T_IMM_EXPECT54>:
   337c0:	00 00 00 28 	add	r1,r8

000337c4 <T_IMM_EXPECT55>:
   337c4:	00 00 00 48 	add	r2,r8

000337c8 <T_IMM_EXPECT56>:
   337c8:	00 00 00 88 	add	r4,r8

000337cc <T_IMM_EXPECT57>:
   337cc:	00 00 01 08 	add	r8,r8

000337d0 <T_IMM_EXPECT58>:
   337d0:	00 00 02 08 	add	r16,r8

000337d4 <T_IMM_EXPECT59>:
   337d4:	00 00 04 08 	*unknown*

000337d8 <T_IMM_EXPECT60>:
   337d8:	00 00 00 10 	add	r0,r16

000337dc <T_IMM_EXPECT61>:
   337dc:	00 00 00 11 	add	r0,r17

000337e0 <T_IMM_EXPECT62>:
   337e0:	00 00 00 12 	add	r0,r18

000337e4 <T_IMM_EXPECT63>:
   337e4:	00 00 00 14 	add	r0,r20

000337e8 <T_IMM_EXPECT64>:
   337e8:	00 00 00 18 	add	r0,r24

000337ec <T_IMM_EXPECT65>:
   337ec:	00 00 00 20 	add	r1,r0

000337f0 <T_IMM_EXPECT66>:
   337f0:	00 00 00 30 	add	r1,r16

000337f4 <T_IMM_EXPECT67>:
   337f4:	00 00 00 50 	add	r2,r16

000337f8 <T_IMM_EXPECT68>:
   337f8:	00 00 00 90 	add	r4,r16

000337fc <T_IMM_EXPECT69>:
   337fc:	00 00 01 10 	add	r8,r16

00033800 <T_IMM_EXPECT70>:
   33800:	00 00 02 10 	add	r16,r16

00033804 <T_IMM_EXPECT71>:
   33804:	00 00 04 10 	*unknown*

00033808 <T_IMM_EXPECT72>:
   33808:	00 00 00 20 	add	r1,r0

0003380c <T_IMM_EXPECT73>:
   3380c:	00 00 00 21 	add	r1,r1

00033810 <T_IMM_EXPECT74>:
   33810:	00 00 00 22 	add	r1,r2

00033814 <T_IMM_EXPECT75>:
   33814:	00 00 00 24 	add	r1,r4

00033818 <T_IMM_EXPECT76>:
   33818:	00 00 00 28 	add	r1,r8

0003381c <T_IMM_EXPECT77>:
   3381c:	00 00 00 30 	add	r1,r16

00033820 <T_IMM_EXPECT78>:
   33820:	00 00 00 40 	add	r2,r0

00033824 <T_IMM_EXPECT79>:
   33824:	00 00 00 60 	add	r3,r0

00033828 <T_IMM_EXPECT80>:
   33828:	00 00 00 a0 	add	r5,r0

0003382c <T_IMM_EXPECT81>:
   3382c:	00 00 01 20 	add	r9,r0

00033830 <T_IMM_EXPECT82>:
   33830:	00 00 02 20 	add	r17,r0

00033834 <T_IMM_EXPECT83>:
   33834:	00 00 04 20 	*unknown*

00033838 <T_IMM_EXPECT84>:
   33838:	00 00 00 40 	add	r2,r0

0003383c <T_IMM_EXPECT85>:
   3383c:	00 00 00 41 	add	r2,r1

00033840 <T_IMM_EXPECT86>:
   33840:	00 00 00 42 	add	r2,r2

00033844 <T_IMM_EXPECT87>:
   33844:	00 00 00 44 	add	r2,r4

00033848 <T_IMM_EXPECT88>:
   33848:	00 00 00 48 	add	r2,r8

0003384c <T_IMM_EXPECT89>:
   3384c:	00 00 00 50 	add	r2,r16

00033850 <T_IMM_EXPECT90>:
   33850:	00 00 00 60 	add	r3,r0

00033854 <T_IMM_EXPECT91>:
   33854:	00 00 00 80 	add	r4,r0

00033858 <T_IMM_EXPECT92>:
   33858:	00 00 00 c0 	add	r6,r0

0003385c <T_IMM_EXPECT93>:
   3385c:	00 00 01 40 	add	r10,r0

00033860 <T_IMM_EXPECT94>:
   33860:	00 00 02 40 	add	r18,r0

00033864 <T_IMM_EXPECT95>:
   33864:	00 00 04 40 	*unknown*

00033868 <T_IMM_EXPECT96>:
   33868:	00 00 00 80 	add	r4,r0

0003386c <T_IMM_EXPECT97>:
   3386c:	00 00 00 81 	add	r4,r1

00033870 <T_IMM_EXPECT98>:
   33870:	00 00 00 82 	add	r4,r2

00033874 <T_IMM_EXPECT99>:
   33874:	00 00 00 84 	add	r4,r4

00033878 <T_IMM_EXPECT100>:
   33878:	00 00 00 88 	add	r4,r8

0003387c <T_IMM_EXPECT101>:
   3387c:	00 00 00 90 	add	r4,r16

00033880 <T_IMM_EXPECT102>:
   33880:	00 00 00 a0 	add	r5,r0

00033884 <T_IMM_EXPECT103>:
   33884:	00 00 00 c0 	add	r6,r0

00033888 <T_IMM_EXPECT104>:
   33888:	00 00 01 00 	add	r8,r0

0003388c <T_IMM_EXPECT105>:
   3388c:	00 00 01 80 	add	r12,r0

00033890 <T_IMM_EXPECT106>:
   33890:	00 00 02 80 	add	r20,r0

00033894 <T_IMM_EXPECT107>:
   33894:	00 00 04 80 	*unknown*

00033898 <T_IMM_EXPECT108>:
   33898:	00 00 01 00 	add	r8,r0

0003389c <T_IMM_EXPECT109>:
   3389c:	00 00 01 01 	add	r8,r1

000338a0 <T_IMM_EXPECT110>:
   338a0:	00 00 01 02 	add	r8,r2

000338a4 <T_IMM_EXPECT111>:
   338a4:	00 00 01 04 	add	r8,r4

000338a8 <T_IMM_EXPECT112>:
   338a8:	00 00 01 08 	add	r8,r8

000338ac <T_IMM_EXPECT113>:
   338ac:	00 00 01 10 	add	r8,r16

000338b0 <T_IMM_EXPECT114>:
   338b0:	00 00 01 20 	add	r9,r0

000338b4 <T_IMM_EXPECT115>:
   338b4:	00 00 01 40 	add	r10,r0

000338b8 <T_IMM_EXPECT116>:
   338b8:	00 00 01 80 	add	r12,r0

000338bc <T_IMM_EXPECT117>:
   338bc:	00 00 02 00 	add	r16,r0

000338c0 <T_IMM_EXPECT118>:
   338c0:	00 00 03 00 	add	r24,r0

000338c4 <T_IMM_EXPECT119>:
   338c4:	00 00 05 00 	*unknown*

000338c8 <T_IMM_EXPECT120>:
   338c8:	00 00 02 00 	add	r16,r0

000338cc <T_IMM_EXPECT121>:
   338cc:	00 00 02 01 	add	r16,r1

000338d0 <T_IMM_EXPECT122>:
   338d0:	00 00 02 02 	add	r16,r2

000338d4 <T_IMM_EXPECT123>:
   338d4:	00 00 02 04 	add	r16,r4

000338d8 <T_IMM_EXPECT124>:
   338d8:	00 00 02 08 	add	r16,r8

000338dc <T_IMM_EXPECT125>:
   338dc:	00 00 02 10 	add	r16,r16

000338e0 <T_IMM_EXPECT126>:
   338e0:	00 00 02 20 	add	r17,r0

000338e4 <T_IMM_EXPECT127>:
   338e4:	00 00 02 40 	add	r18,r0

000338e8 <T_IMM_EXPECT128>:
   338e8:	00 00 02 80 	add	r20,r0

000338ec <T_IMM_EXPECT129>:
   338ec:	00 00 03 00 	add	r24,r0

000338f0 <T_IMM_EXPECT130>:
   338f0:	00 00 04 00 	*unknown*

000338f4 <T_IMM_EXPECT131>:
   338f4:	00 00 06 00 	*unknown*

000338f8 <T_IMM_EXPECT132>:
   338f8:	00 00 04 00 	*unknown*

000338fc <T_IMM_EXPECT133>:
   338fc:	00 00 04 01 	*unknown*

00033900 <T_IMM_EXPECT134>:
   33900:	00 00 04 02 	*unknown*

00033904 <T_IMM_EXPECT135>:
   33904:	00 00 04 04 	*unknown*

00033908 <T_IMM_EXPECT136>:
   33908:	00 00 04 08 	*unknown*

0003390c <T_IMM_EXPECT137>:
   3390c:	00 00 04 10 	*unknown*

00033910 <T_IMM_EXPECT138>:
   33910:	00 00 04 20 	*unknown*

00033914 <T_IMM_EXPECT139>:
   33914:	00 00 04 40 	*unknown*

00033918 <T_IMM_EXPECT140>:
   33918:	00 00 04 80 	*unknown*

0003391c <T_IMM_EXPECT141>:
   3391c:	00 00 05 00 	*unknown*

00033920 <T_IMM_EXPECT142>:
   33920:	00 00 06 00 	*unknown*

00033924 <T_IMM_EXPECT143>:
   33924:	00 00 08 00 	*unknown*

00033928 <T_IMM_EXPECT144>:
   33928:	00 00 00 06 	add	r0,r6

0003392c <T_IMM_EXPECT145>:
   3392c:	00 00 00 0e 	add	r0,r14

00033930 <T_IMM_EXPECT146>:
   33930:	00 00 00 1e 	add	r0,rbase

00033934 <T_IMM_EXPECT147>:
   33934:	00 00 00 3e 	add	r1,rbase

00033938 <T_IMM_EXPECT148>:
   33938:	00 00 00 7e 	add	r3,rbase

0003393c <T_IMM_EXPECT149>:
   3393c:	00 00 00 fe 	add	rtmp,rbase

00033940 <T_IMM_EXPECT150>:
   33940:	00 00 01 fe 	add	r15,rbase

00033944 <T_IMM_EXPECT151>:
   33944:	00 00 03 fe 	add	rret,rbase

00033948 <T_IMM_EXPECT152>:
   33948:	00 00 07 fe 	*unknown*

0003394c <T_IMM_EXPECT153>:
   3394c:	00 00 0f fe 	*unknown*

セクション .stack の逆アセンブル:

000f0000 <STACK_INDEX>:
   f0000:	00 00 00 00 	add	r0,r0
